GAS LISTING C:\Users\gabri\AppData\Local\Temp\cc5DSkcw.s 			page 1


   1              		.file	"main.cpp"
   2              		.text
   3              	.Ltext0:
   4              		.cfi_sections	.debug_frame
   5              		.section	.text$_Z5scanfPKcz,"x"
   6              		.linkonce discard
   7              		.globl	_Z5scanfPKcz
   9              		.seh_proc	_Z5scanfPKcz
  10              	_Z5scanfPKcz:
  11              	.LFB21:
  12              		.file 1 "C:/Program Files/CodeBlocks/MinGW/x86_64-w64-mingw32/include/stdio.h"
   1:C:/Program Files/CodeBlocks/MinGW/x86_64-w64-mingw32/include\stdio.h **** /**
   2:C:/Program Files/CodeBlocks/MinGW/x86_64-w64-mingw32/include\stdio.h ****  * This file has no copyright assigned and is placed in the Public Domain.
   3:C:/Program Files/CodeBlocks/MinGW/x86_64-w64-mingw32/include\stdio.h ****  * This file is part of the mingw-w64 runtime package.
   4:C:/Program Files/CodeBlocks/MinGW/x86_64-w64-mingw32/include\stdio.h ****  * No warranty is given; refer to the file DISCLAIMER.PD within this package.
   5:C:/Program Files/CodeBlocks/MinGW/x86_64-w64-mingw32/include\stdio.h ****  */
   6:C:/Program Files/CodeBlocks/MinGW/x86_64-w64-mingw32/include\stdio.h **** #ifndef _INC_STDIO
   7:C:/Program Files/CodeBlocks/MinGW/x86_64-w64-mingw32/include\stdio.h **** #define _INC_STDIO
   8:C:/Program Files/CodeBlocks/MinGW/x86_64-w64-mingw32/include\stdio.h **** 
   9:C:/Program Files/CodeBlocks/MinGW/x86_64-w64-mingw32/include\stdio.h **** #include <crtdefs.h>
  10:C:/Program Files/CodeBlocks/MinGW/x86_64-w64-mingw32/include\stdio.h **** 
  11:C:/Program Files/CodeBlocks/MinGW/x86_64-w64-mingw32/include\stdio.h **** #include <_mingw_print_push.h>
  12:C:/Program Files/CodeBlocks/MinGW/x86_64-w64-mingw32/include\stdio.h **** 
  13:C:/Program Files/CodeBlocks/MinGW/x86_64-w64-mingw32/include\stdio.h **** #pragma pack(push,_CRT_PACKING)
  14:C:/Program Files/CodeBlocks/MinGW/x86_64-w64-mingw32/include\stdio.h **** 
  15:C:/Program Files/CodeBlocks/MinGW/x86_64-w64-mingw32/include\stdio.h **** #ifdef __cplusplus
  16:C:/Program Files/CodeBlocks/MinGW/x86_64-w64-mingw32/include\stdio.h **** extern "C" {
  17:C:/Program Files/CodeBlocks/MinGW/x86_64-w64-mingw32/include\stdio.h **** #endif
  18:C:/Program Files/CodeBlocks/MinGW/x86_64-w64-mingw32/include\stdio.h **** 
  19:C:/Program Files/CodeBlocks/MinGW/x86_64-w64-mingw32/include\stdio.h **** #define BUFSIZ 512
  20:C:/Program Files/CodeBlocks/MinGW/x86_64-w64-mingw32/include\stdio.h **** #define _NFILE _NSTREAM_
  21:C:/Program Files/CodeBlocks/MinGW/x86_64-w64-mingw32/include\stdio.h **** #define _NSTREAM_ 512
  22:C:/Program Files/CodeBlocks/MinGW/x86_64-w64-mingw32/include\stdio.h **** #define _IOB_ENTRIES 20
  23:C:/Program Files/CodeBlocks/MinGW/x86_64-w64-mingw32/include\stdio.h **** #define EOF (-1)
  24:C:/Program Files/CodeBlocks/MinGW/x86_64-w64-mingw32/include\stdio.h **** 
  25:C:/Program Files/CodeBlocks/MinGW/x86_64-w64-mingw32/include\stdio.h **** #ifndef _FILE_DEFINED
  26:C:/Program Files/CodeBlocks/MinGW/x86_64-w64-mingw32/include\stdio.h ****   struct _iobuf {
  27:C:/Program Files/CodeBlocks/MinGW/x86_64-w64-mingw32/include\stdio.h ****     char *_ptr;
  28:C:/Program Files/CodeBlocks/MinGW/x86_64-w64-mingw32/include\stdio.h ****     int _cnt;
  29:C:/Program Files/CodeBlocks/MinGW/x86_64-w64-mingw32/include\stdio.h ****     char *_base;
  30:C:/Program Files/CodeBlocks/MinGW/x86_64-w64-mingw32/include\stdio.h ****     int _flag;
  31:C:/Program Files/CodeBlocks/MinGW/x86_64-w64-mingw32/include\stdio.h ****     int _file;
  32:C:/Program Files/CodeBlocks/MinGW/x86_64-w64-mingw32/include\stdio.h ****     int _charbuf;
  33:C:/Program Files/CodeBlocks/MinGW/x86_64-w64-mingw32/include\stdio.h ****     int _bufsiz;
  34:C:/Program Files/CodeBlocks/MinGW/x86_64-w64-mingw32/include\stdio.h ****     char *_tmpfname;
  35:C:/Program Files/CodeBlocks/MinGW/x86_64-w64-mingw32/include\stdio.h ****   };
  36:C:/Program Files/CodeBlocks/MinGW/x86_64-w64-mingw32/include\stdio.h ****   typedef struct _iobuf FILE;
  37:C:/Program Files/CodeBlocks/MinGW/x86_64-w64-mingw32/include\stdio.h **** #define _FILE_DEFINED
  38:C:/Program Files/CodeBlocks/MinGW/x86_64-w64-mingw32/include\stdio.h **** #endif
  39:C:/Program Files/CodeBlocks/MinGW/x86_64-w64-mingw32/include\stdio.h **** 
  40:C:/Program Files/CodeBlocks/MinGW/x86_64-w64-mingw32/include\stdio.h **** #ifdef _POSIX_
  41:C:/Program Files/CodeBlocks/MinGW/x86_64-w64-mingw32/include\stdio.h **** #define _P_tmpdir "/"
  42:C:/Program Files/CodeBlocks/MinGW/x86_64-w64-mingw32/include\stdio.h **** #define _wP_tmpdir L"/"
  43:C:/Program Files/CodeBlocks/MinGW/x86_64-w64-mingw32/include\stdio.h **** #else
  44:C:/Program Files/CodeBlocks/MinGW/x86_64-w64-mingw32/include\stdio.h **** #define _P_tmpdir "\\"
  45:C:/Program Files/CodeBlocks/MinGW/x86_64-w64-mingw32/include\stdio.h **** #define _wP_tmpdir L"\\"
  46:C:/Program Files/CodeBlocks/MinGW/x86_64-w64-mingw32/include\stdio.h **** #endif
GAS LISTING C:\Users\gabri\AppData\Local\Temp\cc5DSkcw.s 			page 2


  47:C:/Program Files/CodeBlocks/MinGW/x86_64-w64-mingw32/include\stdio.h **** 
  48:C:/Program Files/CodeBlocks/MinGW/x86_64-w64-mingw32/include\stdio.h **** #define L_tmpnam (sizeof(_P_tmpdir) + 12)
  49:C:/Program Files/CodeBlocks/MinGW/x86_64-w64-mingw32/include\stdio.h **** 
  50:C:/Program Files/CodeBlocks/MinGW/x86_64-w64-mingw32/include\stdio.h **** #ifdef _POSIX_
  51:C:/Program Files/CodeBlocks/MinGW/x86_64-w64-mingw32/include\stdio.h **** #define L_ctermid 9
  52:C:/Program Files/CodeBlocks/MinGW/x86_64-w64-mingw32/include\stdio.h **** #define L_cuserid 32
  53:C:/Program Files/CodeBlocks/MinGW/x86_64-w64-mingw32/include\stdio.h **** #endif
  54:C:/Program Files/CodeBlocks/MinGW/x86_64-w64-mingw32/include\stdio.h **** 
  55:C:/Program Files/CodeBlocks/MinGW/x86_64-w64-mingw32/include\stdio.h **** #define SEEK_CUR 1
  56:C:/Program Files/CodeBlocks/MinGW/x86_64-w64-mingw32/include\stdio.h **** #define SEEK_END 2
  57:C:/Program Files/CodeBlocks/MinGW/x86_64-w64-mingw32/include\stdio.h **** #define SEEK_SET 0
  58:C:/Program Files/CodeBlocks/MinGW/x86_64-w64-mingw32/include\stdio.h **** 
  59:C:/Program Files/CodeBlocks/MinGW/x86_64-w64-mingw32/include\stdio.h **** #define	STDIN_FILENO	0
  60:C:/Program Files/CodeBlocks/MinGW/x86_64-w64-mingw32/include\stdio.h **** #define	STDOUT_FILENO	1
  61:C:/Program Files/CodeBlocks/MinGW/x86_64-w64-mingw32/include\stdio.h **** #define	STDERR_FILENO	2
  62:C:/Program Files/CodeBlocks/MinGW/x86_64-w64-mingw32/include\stdio.h **** 
  63:C:/Program Files/CodeBlocks/MinGW/x86_64-w64-mingw32/include\stdio.h **** #define FILENAME_MAX 260
  64:C:/Program Files/CodeBlocks/MinGW/x86_64-w64-mingw32/include\stdio.h **** #define FOPEN_MAX 20
  65:C:/Program Files/CodeBlocks/MinGW/x86_64-w64-mingw32/include\stdio.h **** #define _SYS_OPEN 20
  66:C:/Program Files/CodeBlocks/MinGW/x86_64-w64-mingw32/include\stdio.h **** #define TMP_MAX 32767
  67:C:/Program Files/CodeBlocks/MinGW/x86_64-w64-mingw32/include\stdio.h **** 
  68:C:/Program Files/CodeBlocks/MinGW/x86_64-w64-mingw32/include\stdio.h **** #ifndef NULL
  69:C:/Program Files/CodeBlocks/MinGW/x86_64-w64-mingw32/include\stdio.h **** #ifdef __cplusplus
  70:C:/Program Files/CodeBlocks/MinGW/x86_64-w64-mingw32/include\stdio.h **** #ifndef _WIN64
  71:C:/Program Files/CodeBlocks/MinGW/x86_64-w64-mingw32/include\stdio.h **** #define NULL 0
  72:C:/Program Files/CodeBlocks/MinGW/x86_64-w64-mingw32/include\stdio.h **** #else
  73:C:/Program Files/CodeBlocks/MinGW/x86_64-w64-mingw32/include\stdio.h **** #define NULL 0LL
  74:C:/Program Files/CodeBlocks/MinGW/x86_64-w64-mingw32/include\stdio.h **** #endif  /* W64 */
  75:C:/Program Files/CodeBlocks/MinGW/x86_64-w64-mingw32/include\stdio.h **** #else
  76:C:/Program Files/CodeBlocks/MinGW/x86_64-w64-mingw32/include\stdio.h **** #define NULL ((void *)0)
  77:C:/Program Files/CodeBlocks/MinGW/x86_64-w64-mingw32/include\stdio.h **** #endif
  78:C:/Program Files/CodeBlocks/MinGW/x86_64-w64-mingw32/include\stdio.h **** #endif
  79:C:/Program Files/CodeBlocks/MinGW/x86_64-w64-mingw32/include\stdio.h **** 
  80:C:/Program Files/CodeBlocks/MinGW/x86_64-w64-mingw32/include\stdio.h **** #include <_mingw_off_t.h>
  81:C:/Program Files/CodeBlocks/MinGW/x86_64-w64-mingw32/include\stdio.h **** 
  82:C:/Program Files/CodeBlocks/MinGW/x86_64-w64-mingw32/include\stdio.h **** _CRTIMP FILE *__cdecl __acrt_iob_func(unsigned index);
  83:C:/Program Files/CodeBlocks/MinGW/x86_64-w64-mingw32/include\stdio.h **** #ifndef _STDIO_DEFINED
  84:C:/Program Files/CodeBlocks/MinGW/x86_64-w64-mingw32/include\stdio.h **** #ifdef _WIN64
  85:C:/Program Files/CodeBlocks/MinGW/x86_64-w64-mingw32/include\stdio.h ****   _CRTIMP FILE *__cdecl __iob_func(void);
  86:C:/Program Files/CodeBlocks/MinGW/x86_64-w64-mingw32/include\stdio.h **** #define _iob  __iob_func()
  87:C:/Program Files/CodeBlocks/MinGW/x86_64-w64-mingw32/include\stdio.h **** #else
  88:C:/Program Files/CodeBlocks/MinGW/x86_64-w64-mingw32/include\stdio.h **** #ifdef _MSVCRT_
  89:C:/Program Files/CodeBlocks/MinGW/x86_64-w64-mingw32/include\stdio.h **** extern FILE _iob[];	/* A pointer to an array of FILE */
  90:C:/Program Files/CodeBlocks/MinGW/x86_64-w64-mingw32/include\stdio.h **** #define __iob_func()	(_iob)
  91:C:/Program Files/CodeBlocks/MinGW/x86_64-w64-mingw32/include\stdio.h **** #else
  92:C:/Program Files/CodeBlocks/MinGW/x86_64-w64-mingw32/include\stdio.h **** extern FILE (* __MINGW_IMP_SYMBOL(_iob))[];	/* A pointer to an array of FILE */
  93:C:/Program Files/CodeBlocks/MinGW/x86_64-w64-mingw32/include\stdio.h **** #define __iob_func()	(* __MINGW_IMP_SYMBOL(_iob))
  94:C:/Program Files/CodeBlocks/MinGW/x86_64-w64-mingw32/include\stdio.h **** #define _iob __iob_func()
  95:C:/Program Files/CodeBlocks/MinGW/x86_64-w64-mingw32/include\stdio.h **** #endif
  96:C:/Program Files/CodeBlocks/MinGW/x86_64-w64-mingw32/include\stdio.h **** #endif
  97:C:/Program Files/CodeBlocks/MinGW/x86_64-w64-mingw32/include\stdio.h **** #endif
  98:C:/Program Files/CodeBlocks/MinGW/x86_64-w64-mingw32/include\stdio.h **** 
  99:C:/Program Files/CodeBlocks/MinGW/x86_64-w64-mingw32/include\stdio.h **** #ifndef _FPOS_T_DEFINED
 100:C:/Program Files/CodeBlocks/MinGW/x86_64-w64-mingw32/include\stdio.h **** #define _FPOS_T_DEFINED
 101:C:/Program Files/CodeBlocks/MinGW/x86_64-w64-mingw32/include\stdio.h **** #undef _FPOSOFF
 102:C:/Program Files/CodeBlocks/MinGW/x86_64-w64-mingw32/include\stdio.h **** 
 103:C:/Program Files/CodeBlocks/MinGW/x86_64-w64-mingw32/include\stdio.h **** #if (!defined(NO_OLDNAMES) || defined(__GNUC__))
GAS LISTING C:\Users\gabri\AppData\Local\Temp\cc5DSkcw.s 			page 3


 104:C:/Program Files/CodeBlocks/MinGW/x86_64-w64-mingw32/include\stdio.h ****   __MINGW_EXTENSION typedef __int64 fpos_t;
 105:C:/Program Files/CodeBlocks/MinGW/x86_64-w64-mingw32/include\stdio.h **** #define _FPOSOFF(fp) ((long)(fp))
 106:C:/Program Files/CodeBlocks/MinGW/x86_64-w64-mingw32/include\stdio.h **** #else
 107:C:/Program Files/CodeBlocks/MinGW/x86_64-w64-mingw32/include\stdio.h ****   __MINGW_EXTENSION typedef long long fpos_t;
 108:C:/Program Files/CodeBlocks/MinGW/x86_64-w64-mingw32/include\stdio.h **** #define _FPOSOFF(fp) ((long)(fp))
 109:C:/Program Files/CodeBlocks/MinGW/x86_64-w64-mingw32/include\stdio.h **** #endif
 110:C:/Program Files/CodeBlocks/MinGW/x86_64-w64-mingw32/include\stdio.h **** 
 111:C:/Program Files/CodeBlocks/MinGW/x86_64-w64-mingw32/include\stdio.h **** #endif
 112:C:/Program Files/CodeBlocks/MinGW/x86_64-w64-mingw32/include\stdio.h **** 
 113:C:/Program Files/CodeBlocks/MinGW/x86_64-w64-mingw32/include\stdio.h **** #ifndef _STDSTREAM_DEFINED
 114:C:/Program Files/CodeBlocks/MinGW/x86_64-w64-mingw32/include\stdio.h **** #define _STDSTREAM_DEFINED
 115:C:/Program Files/CodeBlocks/MinGW/x86_64-w64-mingw32/include\stdio.h **** 
 116:C:/Program Files/CodeBlocks/MinGW/x86_64-w64-mingw32/include\stdio.h **** #define stdin (__acrt_iob_func(0))
 117:C:/Program Files/CodeBlocks/MinGW/x86_64-w64-mingw32/include\stdio.h **** #define stdout (__acrt_iob_func(1))
 118:C:/Program Files/CodeBlocks/MinGW/x86_64-w64-mingw32/include\stdio.h **** #define stderr (__acrt_iob_func(2))
 119:C:/Program Files/CodeBlocks/MinGW/x86_64-w64-mingw32/include\stdio.h **** #endif
 120:C:/Program Files/CodeBlocks/MinGW/x86_64-w64-mingw32/include\stdio.h **** 
 121:C:/Program Files/CodeBlocks/MinGW/x86_64-w64-mingw32/include\stdio.h **** #define _IOREAD 0x0001
 122:C:/Program Files/CodeBlocks/MinGW/x86_64-w64-mingw32/include\stdio.h **** #define _IOWRT 0x0002
 123:C:/Program Files/CodeBlocks/MinGW/x86_64-w64-mingw32/include\stdio.h **** 
 124:C:/Program Files/CodeBlocks/MinGW/x86_64-w64-mingw32/include\stdio.h **** #define _IOFBF 0x0000
 125:C:/Program Files/CodeBlocks/MinGW/x86_64-w64-mingw32/include\stdio.h **** #define _IOLBF 0x0040
 126:C:/Program Files/CodeBlocks/MinGW/x86_64-w64-mingw32/include\stdio.h **** #define _IONBF 0x0004
 127:C:/Program Files/CodeBlocks/MinGW/x86_64-w64-mingw32/include\stdio.h **** 
 128:C:/Program Files/CodeBlocks/MinGW/x86_64-w64-mingw32/include\stdio.h **** #define _IOMYBUF 0x0008
 129:C:/Program Files/CodeBlocks/MinGW/x86_64-w64-mingw32/include\stdio.h **** #define _IOEOF 0x0010
 130:C:/Program Files/CodeBlocks/MinGW/x86_64-w64-mingw32/include\stdio.h **** #define _IOERR 0x0020
 131:C:/Program Files/CodeBlocks/MinGW/x86_64-w64-mingw32/include\stdio.h **** #define _IOSTRG 0x0040
 132:C:/Program Files/CodeBlocks/MinGW/x86_64-w64-mingw32/include\stdio.h **** #define _IORW 0x0080
 133:C:/Program Files/CodeBlocks/MinGW/x86_64-w64-mingw32/include\stdio.h **** #ifdef _POSIX_
 134:C:/Program Files/CodeBlocks/MinGW/x86_64-w64-mingw32/include\stdio.h **** #define _IOAPPEND 0x0200
 135:C:/Program Files/CodeBlocks/MinGW/x86_64-w64-mingw32/include\stdio.h **** #endif
 136:C:/Program Files/CodeBlocks/MinGW/x86_64-w64-mingw32/include\stdio.h **** 
 137:C:/Program Files/CodeBlocks/MinGW/x86_64-w64-mingw32/include\stdio.h **** #define _TWO_DIGIT_EXPONENT 0x1
 138:C:/Program Files/CodeBlocks/MinGW/x86_64-w64-mingw32/include\stdio.h **** 
 139:C:/Program Files/CodeBlocks/MinGW/x86_64-w64-mingw32/include\stdio.h **** #if !defined(_UCRTBASE_STDIO_DEFINED) && __MSVCRT_VERSION__ >= 0x1400
 140:C:/Program Files/CodeBlocks/MinGW/x86_64-w64-mingw32/include\stdio.h **** #define _UCRTBASE_STDIO_DEFINED
 141:C:/Program Files/CodeBlocks/MinGW/x86_64-w64-mingw32/include\stdio.h **** 
 142:C:/Program Files/CodeBlocks/MinGW/x86_64-w64-mingw32/include\stdio.h **** #define UCRTBASE_PRINTF_LEGACY_VSPRINTF_NULL_TERMINATION (0x0001)
 143:C:/Program Files/CodeBlocks/MinGW/x86_64-w64-mingw32/include\stdio.h **** #define UCRTBASE_PRINTF_STANDARD_SNPRINTF_BEHAVIOUR      (0x0002)
 144:C:/Program Files/CodeBlocks/MinGW/x86_64-w64-mingw32/include\stdio.h **** #define UCRTBASE_PRINTF_LEGACY_WIDE_SPECIFIERS           (0x0004)
 145:C:/Program Files/CodeBlocks/MinGW/x86_64-w64-mingw32/include\stdio.h **** #define UCRTBASE_PRINTF_LEGACY_MSVCRT_COMPATIBILITY      (0x0008)
 146:C:/Program Files/CodeBlocks/MinGW/x86_64-w64-mingw32/include\stdio.h **** #define UCRTBASE_PRINTF_LEGACY_THREE_DIGIT_EXPONENTS     (0x0010)
 147:C:/Program Files/CodeBlocks/MinGW/x86_64-w64-mingw32/include\stdio.h **** 
 148:C:/Program Files/CodeBlocks/MinGW/x86_64-w64-mingw32/include\stdio.h **** #define UCRTBASE_SCANF_SECURECRT                         (0x0001)
 149:C:/Program Files/CodeBlocks/MinGW/x86_64-w64-mingw32/include\stdio.h **** #define UCRTBASE_SCANF_LEGACY_WIDE_SPECIFIERS            (0x0002)
 150:C:/Program Files/CodeBlocks/MinGW/x86_64-w64-mingw32/include\stdio.h **** #define UCRTBASE_SCANF_LEGACY_MSVCRT_COMPATIBILITY       (0x0004)
 151:C:/Program Files/CodeBlocks/MinGW/x86_64-w64-mingw32/include\stdio.h **** 
 152:C:/Program Files/CodeBlocks/MinGW/x86_64-w64-mingw32/include\stdio.h **** // Default wide printfs and scanfs to the standard mode
 153:C:/Program Files/CodeBlocks/MinGW/x86_64-w64-mingw32/include\stdio.h **** #ifndef UCRTBASE_PRINTF_DEFAULT_WIDE
 154:C:/Program Files/CodeBlocks/MinGW/x86_64-w64-mingw32/include\stdio.h **** #define UCRTBASE_PRINTF_DEFAULT_WIDE 0
 155:C:/Program Files/CodeBlocks/MinGW/x86_64-w64-mingw32/include\stdio.h **** #endif
 156:C:/Program Files/CodeBlocks/MinGW/x86_64-w64-mingw32/include\stdio.h **** #ifndef UCRTBASE_SCANF_DEFAULT_WIDE
 157:C:/Program Files/CodeBlocks/MinGW/x86_64-w64-mingw32/include\stdio.h **** #define UCRTBASE_SCANF_DEFAULT_WIDE 0
 158:C:/Program Files/CodeBlocks/MinGW/x86_64-w64-mingw32/include\stdio.h **** #endif
 159:C:/Program Files/CodeBlocks/MinGW/x86_64-w64-mingw32/include\stdio.h **** #endif
 160:C:/Program Files/CodeBlocks/MinGW/x86_64-w64-mingw32/include\stdio.h **** 
GAS LISTING C:\Users\gabri\AppData\Local\Temp\cc5DSkcw.s 			page 4


 161:C:/Program Files/CodeBlocks/MinGW/x86_64-w64-mingw32/include\stdio.h **** #ifndef _STDIO_DEFINED
 162:C:/Program Files/CodeBlocks/MinGW/x86_64-w64-mingw32/include\stdio.h **** extern
 163:C:/Program Files/CodeBlocks/MinGW/x86_64-w64-mingw32/include\stdio.h ****   __attribute__((__format__ (gnu_scanf, 2, 3))) __MINGW_ATTRIB_NONNULL(2)
 164:C:/Program Files/CodeBlocks/MinGW/x86_64-w64-mingw32/include\stdio.h ****   int __cdecl __mingw_sscanf(const char * __restrict__ _Src,const char * __restrict__ _Format,...);
 165:C:/Program Files/CodeBlocks/MinGW/x86_64-w64-mingw32/include\stdio.h **** extern
 166:C:/Program Files/CodeBlocks/MinGW/x86_64-w64-mingw32/include\stdio.h ****   __attribute__((__format__ (gnu_scanf, 2, 0))) __MINGW_ATTRIB_NONNULL(2)
 167:C:/Program Files/CodeBlocks/MinGW/x86_64-w64-mingw32/include\stdio.h ****   int __cdecl __mingw_vsscanf (const char * __restrict__ _Str,const char * __restrict__ Format,va_l
 168:C:/Program Files/CodeBlocks/MinGW/x86_64-w64-mingw32/include\stdio.h **** extern
 169:C:/Program Files/CodeBlocks/MinGW/x86_64-w64-mingw32/include\stdio.h ****   __attribute__((__format__ (gnu_scanf, 1, 2))) __MINGW_ATTRIB_NONNULL(1)
 170:C:/Program Files/CodeBlocks/MinGW/x86_64-w64-mingw32/include\stdio.h ****   int __cdecl __mingw_scanf(const char * __restrict__ _Format,...);
 171:C:/Program Files/CodeBlocks/MinGW/x86_64-w64-mingw32/include\stdio.h **** extern
 172:C:/Program Files/CodeBlocks/MinGW/x86_64-w64-mingw32/include\stdio.h ****   __attribute__((__format__ (gnu_scanf, 1, 0))) __MINGW_ATTRIB_NONNULL(1)
 173:C:/Program Files/CodeBlocks/MinGW/x86_64-w64-mingw32/include\stdio.h ****   int __cdecl __mingw_vscanf(const char * __restrict__ Format, va_list argp);
 174:C:/Program Files/CodeBlocks/MinGW/x86_64-w64-mingw32/include\stdio.h **** extern
 175:C:/Program Files/CodeBlocks/MinGW/x86_64-w64-mingw32/include\stdio.h ****   __attribute__((__format__ (gnu_scanf, 2, 3))) __MINGW_ATTRIB_NONNULL(2)
 176:C:/Program Files/CodeBlocks/MinGW/x86_64-w64-mingw32/include\stdio.h ****   int __cdecl __mingw_fscanf(FILE * __restrict__ _File,const char * __restrict__ _Format,...);
 177:C:/Program Files/CodeBlocks/MinGW/x86_64-w64-mingw32/include\stdio.h **** extern
 178:C:/Program Files/CodeBlocks/MinGW/x86_64-w64-mingw32/include\stdio.h ****   __attribute__((__format__ (gnu_scanf, 2, 0))) __MINGW_ATTRIB_NONNULL(2)
 179:C:/Program Files/CodeBlocks/MinGW/x86_64-w64-mingw32/include\stdio.h ****   int __cdecl __mingw_vfscanf (FILE * __restrict__ fp, const char * __restrict__ Format,va_list arg
 180:C:/Program Files/CodeBlocks/MinGW/x86_64-w64-mingw32/include\stdio.h **** 
 181:C:/Program Files/CodeBlocks/MinGW/x86_64-w64-mingw32/include\stdio.h **** extern
 182:C:/Program Files/CodeBlocks/MinGW/x86_64-w64-mingw32/include\stdio.h ****   __attribute__((__format__ (gnu_printf, 3, 0))) __MINGW_ATTRIB_NONNULL(3)
 183:C:/Program Files/CodeBlocks/MinGW/x86_64-w64-mingw32/include\stdio.h ****   int __cdecl __mingw_vsnprintf(char * __restrict__ _DstBuf,size_t _MaxCount,const char * __restric
 184:C:/Program Files/CodeBlocks/MinGW/x86_64-w64-mingw32/include\stdio.h ****                                va_list _ArgList);
 185:C:/Program Files/CodeBlocks/MinGW/x86_64-w64-mingw32/include\stdio.h **** extern
 186:C:/Program Files/CodeBlocks/MinGW/x86_64-w64-mingw32/include\stdio.h ****   __attribute__((__format__ (gnu_printf, 3, 4))) __MINGW_ATTRIB_NONNULL(3)
 187:C:/Program Files/CodeBlocks/MinGW/x86_64-w64-mingw32/include\stdio.h ****   int __cdecl __mingw_snprintf(char * __restrict__ s, size_t n, const char * __restrict__  format, 
 188:C:/Program Files/CodeBlocks/MinGW/x86_64-w64-mingw32/include\stdio.h **** extern
 189:C:/Program Files/CodeBlocks/MinGW/x86_64-w64-mingw32/include\stdio.h ****   __attribute__((__format__ (gnu_printf, 1, 2))) __MINGW_ATTRIB_NONNULL(1)
 190:C:/Program Files/CodeBlocks/MinGW/x86_64-w64-mingw32/include\stdio.h ****   int __cdecl __mingw_printf(const char * __restrict__ , ... ) __MINGW_NOTHROW;
 191:C:/Program Files/CodeBlocks/MinGW/x86_64-w64-mingw32/include\stdio.h **** extern
 192:C:/Program Files/CodeBlocks/MinGW/x86_64-w64-mingw32/include\stdio.h ****   __attribute__((__format__ (gnu_printf, 1, 0))) __MINGW_ATTRIB_NONNULL(1)
 193:C:/Program Files/CodeBlocks/MinGW/x86_64-w64-mingw32/include\stdio.h ****   int __cdecl __mingw_vprintf (const char * __restrict__ , va_list) __MINGW_NOTHROW;
 194:C:/Program Files/CodeBlocks/MinGW/x86_64-w64-mingw32/include\stdio.h **** extern
 195:C:/Program Files/CodeBlocks/MinGW/x86_64-w64-mingw32/include\stdio.h ****   __attribute__((__format__ (gnu_printf, 2, 3))) __MINGW_ATTRIB_NONNULL(2)
 196:C:/Program Files/CodeBlocks/MinGW/x86_64-w64-mingw32/include\stdio.h ****   int __cdecl __mingw_fprintf (FILE * __restrict__ , const char * __restrict__ , ...) __MINGW_NOTHR
 197:C:/Program Files/CodeBlocks/MinGW/x86_64-w64-mingw32/include\stdio.h **** extern
 198:C:/Program Files/CodeBlocks/MinGW/x86_64-w64-mingw32/include\stdio.h ****   __attribute__((__format__ (gnu_printf, 2, 0))) __MINGW_ATTRIB_NONNULL(2)
 199:C:/Program Files/CodeBlocks/MinGW/x86_64-w64-mingw32/include\stdio.h ****   int __cdecl __mingw_vfprintf (FILE * __restrict__ , const char * __restrict__ , va_list) __MINGW_
 200:C:/Program Files/CodeBlocks/MinGW/x86_64-w64-mingw32/include\stdio.h **** extern
 201:C:/Program Files/CodeBlocks/MinGW/x86_64-w64-mingw32/include\stdio.h ****   __attribute__((__format__ (gnu_printf, 2, 3))) __MINGW_ATTRIB_NONNULL(2)
 202:C:/Program Files/CodeBlocks/MinGW/x86_64-w64-mingw32/include\stdio.h ****   int __cdecl __mingw_sprintf (char * __restrict__ , const char * __restrict__ , ...) __MINGW_NOTHR
 203:C:/Program Files/CodeBlocks/MinGW/x86_64-w64-mingw32/include\stdio.h **** extern
 204:C:/Program Files/CodeBlocks/MinGW/x86_64-w64-mingw32/include\stdio.h ****   __attribute__((__format__ (gnu_printf, 2, 0))) __MINGW_ATTRIB_NONNULL(2)
 205:C:/Program Files/CodeBlocks/MinGW/x86_64-w64-mingw32/include\stdio.h ****   int __cdecl __mingw_vsprintf (char * __restrict__ , const char * __restrict__ , va_list) __MINGW_
 206:C:/Program Files/CodeBlocks/MinGW/x86_64-w64-mingw32/include\stdio.h **** extern
 207:C:/Program Files/CodeBlocks/MinGW/x86_64-w64-mingw32/include\stdio.h ****   __attribute__((__format__ (gnu_printf, 2, 3))) __attribute__((nonnull (1,2)))
 208:C:/Program Files/CodeBlocks/MinGW/x86_64-w64-mingw32/include\stdio.h ****   int __cdecl __mingw_asprintf(char ** __restrict__ , const char * __restrict__ , ...) __MINGW_NOTH
 209:C:/Program Files/CodeBlocks/MinGW/x86_64-w64-mingw32/include\stdio.h **** extern
 210:C:/Program Files/CodeBlocks/MinGW/x86_64-w64-mingw32/include\stdio.h ****   __attribute__((__format__ (gnu_printf, 2, 0))) __attribute__((nonnull (1,2)))
 211:C:/Program Files/CodeBlocks/MinGW/x86_64-w64-mingw32/include\stdio.h ****   int __cdecl __mingw_vasprintf(char ** __restrict__ , const char * __restrict__ , va_list) __MINGW
 212:C:/Program Files/CodeBlocks/MinGW/x86_64-w64-mingw32/include\stdio.h **** 
 213:C:/Program Files/CodeBlocks/MinGW/x86_64-w64-mingw32/include\stdio.h **** #if __MSVCRT_VERSION__ >= 0x1400
 214:C:/Program Files/CodeBlocks/MinGW/x86_64-w64-mingw32/include\stdio.h ****   int __cdecl __stdio_common_vsprintf(unsigned __int64 options, char *str, size_t len, const char *
 215:C:/Program Files/CodeBlocks/MinGW/x86_64-w64-mingw32/include\stdio.h ****   int __cdecl __stdio_common_vfprintf(unsigned __int64 options, FILE *file, const char *format, _lo
 216:C:/Program Files/CodeBlocks/MinGW/x86_64-w64-mingw32/include\stdio.h ****   int __cdecl __stdio_common_vsscanf(unsigned __int64 options, const char *input, size_t length, co
 217:C:/Program Files/CodeBlocks/MinGW/x86_64-w64-mingw32/include\stdio.h ****   int __cdecl __stdio_common_vfscanf(unsigned __int64 options, FILE *file, const char *format, _loc
GAS LISTING C:\Users\gabri\AppData\Local\Temp\cc5DSkcw.s 			page 5


 218:C:/Program Files/CodeBlocks/MinGW/x86_64-w64-mingw32/include\stdio.h **** #endif
 219:C:/Program Files/CodeBlocks/MinGW/x86_64-w64-mingw32/include\stdio.h **** 
 220:C:/Program Files/CodeBlocks/MinGW/x86_64-w64-mingw32/include\stdio.h **** #undef __MINGW_PRINTF_FORMAT
 221:C:/Program Files/CodeBlocks/MinGW/x86_64-w64-mingw32/include\stdio.h **** #undef __MINGW_SCANF_FORMAT
 222:C:/Program Files/CodeBlocks/MinGW/x86_64-w64-mingw32/include\stdio.h **** 
 223:C:/Program Files/CodeBlocks/MinGW/x86_64-w64-mingw32/include\stdio.h **** #if defined(__clang__)
 224:C:/Program Files/CodeBlocks/MinGW/x86_64-w64-mingw32/include\stdio.h **** #define __MINGW_PRINTF_FORMAT printf
 225:C:/Program Files/CodeBlocks/MinGW/x86_64-w64-mingw32/include\stdio.h **** #define __MINGW_SCANF_FORMAT  scanf
 226:C:/Program Files/CodeBlocks/MinGW/x86_64-w64-mingw32/include\stdio.h **** #elif defined(__USE_MINGW_ANSI_STDIO)
 227:C:/Program Files/CodeBlocks/MinGW/x86_64-w64-mingw32/include\stdio.h **** #define __MINGW_PRINTF_FORMAT gnu_printf
 228:C:/Program Files/CodeBlocks/MinGW/x86_64-w64-mingw32/include\stdio.h **** #define __MINGW_SCANF_FORMAT  gnu_scanf
 229:C:/Program Files/CodeBlocks/MinGW/x86_64-w64-mingw32/include\stdio.h **** #else
 230:C:/Program Files/CodeBlocks/MinGW/x86_64-w64-mingw32/include\stdio.h **** #define __MINGW_PRINTF_FORMAT ms_printf
 231:C:/Program Files/CodeBlocks/MinGW/x86_64-w64-mingw32/include\stdio.h **** #define __MINGW_SCANF_FORMAT  ms_scanf
 232:C:/Program Files/CodeBlocks/MinGW/x86_64-w64-mingw32/include\stdio.h **** #endif
 233:C:/Program Files/CodeBlocks/MinGW/x86_64-w64-mingw32/include\stdio.h **** 
 234:C:/Program Files/CodeBlocks/MinGW/x86_64-w64-mingw32/include\stdio.h **** #if __USE_MINGW_ANSI_STDIO
 235:C:/Program Files/CodeBlocks/MinGW/x86_64-w64-mingw32/include\stdio.h **** /*
 236:C:/Program Files/CodeBlocks/MinGW/x86_64-w64-mingw32/include\stdio.h ****  * User has expressed a preference for C99 conformance...
 237:C:/Program Files/CodeBlocks/MinGW/x86_64-w64-mingw32/include\stdio.h ****  */
 238:C:/Program Files/CodeBlocks/MinGW/x86_64-w64-mingw32/include\stdio.h **** 
 239:C:/Program Files/CodeBlocks/MinGW/x86_64-w64-mingw32/include\stdio.h **** #ifdef _GNU_SOURCE
 240:C:/Program Files/CodeBlocks/MinGW/x86_64-w64-mingw32/include\stdio.h **** __mingw_ovr
 241:C:/Program Files/CodeBlocks/MinGW/x86_64-w64-mingw32/include\stdio.h **** __attribute__ ((__format__ (gnu_printf, 2, 3))) __attribute__((nonnull (1,2)))
 242:C:/Program Files/CodeBlocks/MinGW/x86_64-w64-mingw32/include\stdio.h **** int asprintf(char **__ret, const char *__format, ...)
 243:C:/Program Files/CodeBlocks/MinGW/x86_64-w64-mingw32/include\stdio.h **** {
 244:C:/Program Files/CodeBlocks/MinGW/x86_64-w64-mingw32/include\stdio.h ****   int __retval;
 245:C:/Program Files/CodeBlocks/MinGW/x86_64-w64-mingw32/include\stdio.h ****   __builtin_va_list __local_argv; __builtin_va_start( __local_argv, __format );
 246:C:/Program Files/CodeBlocks/MinGW/x86_64-w64-mingw32/include\stdio.h ****   __retval = __mingw_vasprintf( __ret, __format, __local_argv );
 247:C:/Program Files/CodeBlocks/MinGW/x86_64-w64-mingw32/include\stdio.h ****   __builtin_va_end( __local_argv );
 248:C:/Program Files/CodeBlocks/MinGW/x86_64-w64-mingw32/include\stdio.h ****   return __retval;
 249:C:/Program Files/CodeBlocks/MinGW/x86_64-w64-mingw32/include\stdio.h **** }
 250:C:/Program Files/CodeBlocks/MinGW/x86_64-w64-mingw32/include\stdio.h **** 
 251:C:/Program Files/CodeBlocks/MinGW/x86_64-w64-mingw32/include\stdio.h **** __mingw_ovr
 252:C:/Program Files/CodeBlocks/MinGW/x86_64-w64-mingw32/include\stdio.h **** __attribute__ ((__format__ (gnu_printf, 2, 0))) __attribute__((nonnull (1,2)))
 253:C:/Program Files/CodeBlocks/MinGW/x86_64-w64-mingw32/include\stdio.h **** int vasprintf(char **__ret, const char *__format, __builtin_va_list __local_argv)
 254:C:/Program Files/CodeBlocks/MinGW/x86_64-w64-mingw32/include\stdio.h **** {
 255:C:/Program Files/CodeBlocks/MinGW/x86_64-w64-mingw32/include\stdio.h ****   return __mingw_vasprintf( __ret, __format, __local_argv );
 256:C:/Program Files/CodeBlocks/MinGW/x86_64-w64-mingw32/include\stdio.h **** }
 257:C:/Program Files/CodeBlocks/MinGW/x86_64-w64-mingw32/include\stdio.h **** #endif /* _GNU_SOURCE */
 258:C:/Program Files/CodeBlocks/MinGW/x86_64-w64-mingw32/include\stdio.h **** 
 259:C:/Program Files/CodeBlocks/MinGW/x86_64-w64-mingw32/include\stdio.h **** /* There seems to be a bug about builtins and static overrides of them
 260:C:/Program Files/CodeBlocks/MinGW/x86_64-w64-mingw32/include\stdio.h ****    in g++.  So we need to do here some trickery.  */
 261:C:/Program Files/CodeBlocks/MinGW/x86_64-w64-mingw32/include\stdio.h **** #ifdef __cplusplus
 262:C:/Program Files/CodeBlocks/MinGW/x86_64-w64-mingw32/include\stdio.h **** extern "C++" {
 263:C:/Program Files/CodeBlocks/MinGW/x86_64-w64-mingw32/include\stdio.h **** #endif
 264:C:/Program Files/CodeBlocks/MinGW/x86_64-w64-mingw32/include\stdio.h **** 
 265:C:/Program Files/CodeBlocks/MinGW/x86_64-w64-mingw32/include\stdio.h **** __mingw_ovr
 266:C:/Program Files/CodeBlocks/MinGW/x86_64-w64-mingw32/include\stdio.h **** __attribute__((__format__ (gnu_scanf, 2, 3))) __MINGW_ATTRIB_NONNULL(2)
 267:C:/Program Files/CodeBlocks/MinGW/x86_64-w64-mingw32/include\stdio.h **** int sscanf(const char *__source, const char *__format, ...)
 268:C:/Program Files/CodeBlocks/MinGW/x86_64-w64-mingw32/include\stdio.h **** {
 269:C:/Program Files/CodeBlocks/MinGW/x86_64-w64-mingw32/include\stdio.h ****   int __retval;
 270:C:/Program Files/CodeBlocks/MinGW/x86_64-w64-mingw32/include\stdio.h ****   __builtin_va_list __local_argv; __builtin_va_start( __local_argv, __format );
 271:C:/Program Files/CodeBlocks/MinGW/x86_64-w64-mingw32/include\stdio.h ****   __retval = __mingw_vsscanf( __source, __format, __local_argv );
 272:C:/Program Files/CodeBlocks/MinGW/x86_64-w64-mingw32/include\stdio.h ****   __builtin_va_end( __local_argv );
 273:C:/Program Files/CodeBlocks/MinGW/x86_64-w64-mingw32/include\stdio.h ****   return __retval;
 274:C:/Program Files/CodeBlocks/MinGW/x86_64-w64-mingw32/include\stdio.h **** }
GAS LISTING C:\Users\gabri\AppData\Local\Temp\cc5DSkcw.s 			page 6


 275:C:/Program Files/CodeBlocks/MinGW/x86_64-w64-mingw32/include\stdio.h **** 
 276:C:/Program Files/CodeBlocks/MinGW/x86_64-w64-mingw32/include\stdio.h **** __mingw_ovr
 277:C:/Program Files/CodeBlocks/MinGW/x86_64-w64-mingw32/include\stdio.h **** __attribute__((__format__ (gnu_scanf, 1, 2))) __MINGW_ATTRIB_NONNULL(1)
 278:C:/Program Files/CodeBlocks/MinGW/x86_64-w64-mingw32/include\stdio.h **** int scanf(const char *__format, ...)
 279:C:/Program Files/CodeBlocks/MinGW/x86_64-w64-mingw32/include\stdio.h **** {
  13              		.loc 1 279 1
  14              		.cfi_startproc
  15 0000 55       		pushq	%rbp
  16              		.seh_pushreg	%rbp
  17              		.cfi_def_cfa_offset 16
  18              		.cfi_offset 6, -16
  19 0001 53       		pushq	%rbx
  20              		.seh_pushreg	%rbx
  21              		.cfi_def_cfa_offset 24
  22              		.cfi_offset 3, -24
  23 0002 4883EC38 		subq	$56, %rsp
  24              		.seh_stackalloc	56
  25              		.cfi_def_cfa_offset 80
  26 0006 488DAC24 		leaq	128(%rsp), %rbp
  26      80000000 
  27              		.seh_setframe	%rbp, 128
  28              		.cfi_def_cfa 6, -48
  29              		.seh_endprologue
  30 000e 48894DD0 		movq	%rcx, -48(%rbp)
  31 0012 488955D8 		movq	%rdx, -40(%rbp)
  32 0016 4C8945E0 		movq	%r8, -32(%rbp)
  33 001a 4C894DE8 		movq	%r9, -24(%rbp)
 280:C:/Program Files/CodeBlocks/MinGW/x86_64-w64-mingw32/include\stdio.h ****   int __retval;
 281:C:/Program Files/CodeBlocks/MinGW/x86_64-w64-mingw32/include\stdio.h ****   __builtin_va_list __local_argv; __builtin_va_start( __local_argv, __format );
  34              		.loc 1 281 53
  35 001e 488D45D8 		leaq	-40(%rbp), %rax
  36 0022 488945A0 		movq	%rax, -96(%rbp)
 282:C:/Program Files/CodeBlocks/MinGW/x86_64-w64-mingw32/include\stdio.h ****   __retval = __mingw_vfscanf( stdin, __format, __local_argv );
  37              		.loc 1 282 29
  38 0026 488B5DA0 		movq	-96(%rbp), %rbx
  39 002a B9000000 		movl	$0, %ecx
  39      00
  40 002f 488B0500 		movq	__imp___acrt_iob_func(%rip), %rax
  40      000000
  41 0036 FFD0     		call	*%rax
  42              	.LVL0:
  43 0038 4989D8   		movq	%rbx, %r8
  44 003b 488B55D0 		movq	-48(%rbp), %rdx
  45 003f 4889C1   		movq	%rax, %rcx
  46 0042 E8000000 		call	__mingw_vfscanf
  46      00
  47 0047 8945AC   		movl	%eax, -84(%rbp)
 283:C:/Program Files/CodeBlocks/MinGW/x86_64-w64-mingw32/include\stdio.h ****   __builtin_va_end( __local_argv );
 284:C:/Program Files/CodeBlocks/MinGW/x86_64-w64-mingw32/include\stdio.h ****   return __retval;
  48              		.loc 1 284 10
  49 004a 8B45AC   		movl	-84(%rbp), %eax
 285:C:/Program Files/CodeBlocks/MinGW/x86_64-w64-mingw32/include\stdio.h **** }
  50              		.loc 1 285 1
  51 004d 4883C438 		addq	$56, %rsp
  52 0051 5B       		popq	%rbx
  53              		.cfi_restore 3
  54 0052 5D       		popq	%rbp
GAS LISTING C:\Users\gabri\AppData\Local\Temp\cc5DSkcw.s 			page 7


  55              		.cfi_restore 6
  56              		.cfi_def_cfa 7, -40
  57 0053 C3       		ret
  58              		.cfi_endproc
  59              	.LFE21:
  60              		.seh_endproc
  61 0054 90909090 		.section	.text$_Z6printfPKcz,"x"
  61      90909090 
  61      90909090 
  62              		.linkonce discard
  63              		.globl	_Z6printfPKcz
  65              		.seh_proc	_Z6printfPKcz
  66              	_Z6printfPKcz:
  67              	.LFB27:
 286:C:/Program Files/CodeBlocks/MinGW/x86_64-w64-mingw32/include\stdio.h **** 
 287:C:/Program Files/CodeBlocks/MinGW/x86_64-w64-mingw32/include\stdio.h **** __mingw_ovr
 288:C:/Program Files/CodeBlocks/MinGW/x86_64-w64-mingw32/include\stdio.h **** __attribute__((__format__ (gnu_scanf, 2, 3))) __MINGW_ATTRIB_NONNULL(2)
 289:C:/Program Files/CodeBlocks/MinGW/x86_64-w64-mingw32/include\stdio.h **** int fscanf(FILE *__stream, const char *__format, ...)
 290:C:/Program Files/CodeBlocks/MinGW/x86_64-w64-mingw32/include\stdio.h **** {
 291:C:/Program Files/CodeBlocks/MinGW/x86_64-w64-mingw32/include\stdio.h ****   int __retval;
 292:C:/Program Files/CodeBlocks/MinGW/x86_64-w64-mingw32/include\stdio.h ****   __builtin_va_list __local_argv; __builtin_va_start( __local_argv, __format );
 293:C:/Program Files/CodeBlocks/MinGW/x86_64-w64-mingw32/include\stdio.h ****   __retval = __mingw_vfscanf( __stream, __format, __local_argv );
 294:C:/Program Files/CodeBlocks/MinGW/x86_64-w64-mingw32/include\stdio.h ****   __builtin_va_end( __local_argv );
 295:C:/Program Files/CodeBlocks/MinGW/x86_64-w64-mingw32/include\stdio.h ****   return __retval;
 296:C:/Program Files/CodeBlocks/MinGW/x86_64-w64-mingw32/include\stdio.h **** }
 297:C:/Program Files/CodeBlocks/MinGW/x86_64-w64-mingw32/include\stdio.h **** 
 298:C:/Program Files/CodeBlocks/MinGW/x86_64-w64-mingw32/include\stdio.h **** #ifndef __NO_ISOCEXT  /* externs in libmingwex.a */
 299:C:/Program Files/CodeBlocks/MinGW/x86_64-w64-mingw32/include\stdio.h **** #ifdef __GNUC__
 300:C:/Program Files/CodeBlocks/MinGW/x86_64-w64-mingw32/include\stdio.h **** #pragma GCC diagnostic push
 301:C:/Program Files/CodeBlocks/MinGW/x86_64-w64-mingw32/include\stdio.h **** #pragma GCC diagnostic ignored "-Wshadow"
 302:C:/Program Files/CodeBlocks/MinGW/x86_64-w64-mingw32/include\stdio.h **** #endif
 303:C:/Program Files/CodeBlocks/MinGW/x86_64-w64-mingw32/include\stdio.h **** 
 304:C:/Program Files/CodeBlocks/MinGW/x86_64-w64-mingw32/include\stdio.h **** __mingw_ovr
 305:C:/Program Files/CodeBlocks/MinGW/x86_64-w64-mingw32/include\stdio.h **** __attribute__((__format__ (gnu_scanf, 2, 0))) __MINGW_ATTRIB_NONNULL(2)
 306:C:/Program Files/CodeBlocks/MinGW/x86_64-w64-mingw32/include\stdio.h **** int vsscanf (const char *__source, const char *__format, __builtin_va_list __local_argv)
 307:C:/Program Files/CodeBlocks/MinGW/x86_64-w64-mingw32/include\stdio.h **** {
 308:C:/Program Files/CodeBlocks/MinGW/x86_64-w64-mingw32/include\stdio.h ****   return __mingw_vsscanf( __source, __format, __local_argv );
 309:C:/Program Files/CodeBlocks/MinGW/x86_64-w64-mingw32/include\stdio.h **** }
 310:C:/Program Files/CodeBlocks/MinGW/x86_64-w64-mingw32/include\stdio.h **** 
 311:C:/Program Files/CodeBlocks/MinGW/x86_64-w64-mingw32/include\stdio.h **** __mingw_ovr
 312:C:/Program Files/CodeBlocks/MinGW/x86_64-w64-mingw32/include\stdio.h **** __attribute__((__format__ (gnu_scanf, 1, 0))) __MINGW_ATTRIB_NONNULL(1)
 313:C:/Program Files/CodeBlocks/MinGW/x86_64-w64-mingw32/include\stdio.h **** int vscanf(const char *__format,  __builtin_va_list __local_argv)
 314:C:/Program Files/CodeBlocks/MinGW/x86_64-w64-mingw32/include\stdio.h **** {
 315:C:/Program Files/CodeBlocks/MinGW/x86_64-w64-mingw32/include\stdio.h ****   return __mingw_vfscanf( stdin, __format, __local_argv );
 316:C:/Program Files/CodeBlocks/MinGW/x86_64-w64-mingw32/include\stdio.h **** }
 317:C:/Program Files/CodeBlocks/MinGW/x86_64-w64-mingw32/include\stdio.h **** 
 318:C:/Program Files/CodeBlocks/MinGW/x86_64-w64-mingw32/include\stdio.h **** __mingw_ovr
 319:C:/Program Files/CodeBlocks/MinGW/x86_64-w64-mingw32/include\stdio.h **** __attribute__((__format__ (gnu_scanf, 2, 0))) __MINGW_ATTRIB_NONNULL(2)
 320:C:/Program Files/CodeBlocks/MinGW/x86_64-w64-mingw32/include\stdio.h **** int vfscanf (FILE *__stream,  const char *__format, __builtin_va_list __local_argv)
 321:C:/Program Files/CodeBlocks/MinGW/x86_64-w64-mingw32/include\stdio.h **** {
 322:C:/Program Files/CodeBlocks/MinGW/x86_64-w64-mingw32/include\stdio.h ****   return __mingw_vfscanf( __stream, __format, __local_argv );
 323:C:/Program Files/CodeBlocks/MinGW/x86_64-w64-mingw32/include\stdio.h **** }
 324:C:/Program Files/CodeBlocks/MinGW/x86_64-w64-mingw32/include\stdio.h **** 
 325:C:/Program Files/CodeBlocks/MinGW/x86_64-w64-mingw32/include\stdio.h **** #ifdef __GNUC__
 326:C:/Program Files/CodeBlocks/MinGW/x86_64-w64-mingw32/include\stdio.h **** #pragma GCC diagnostic pop
 327:C:/Program Files/CodeBlocks/MinGW/x86_64-w64-mingw32/include\stdio.h **** #endif
 328:C:/Program Files/CodeBlocks/MinGW/x86_64-w64-mingw32/include\stdio.h **** #endif /* __NO_ISOCEXT */
GAS LISTING C:\Users\gabri\AppData\Local\Temp\cc5DSkcw.s 			page 8


 329:C:/Program Files/CodeBlocks/MinGW/x86_64-w64-mingw32/include\stdio.h **** 
 330:C:/Program Files/CodeBlocks/MinGW/x86_64-w64-mingw32/include\stdio.h **** 
 331:C:/Program Files/CodeBlocks/MinGW/x86_64-w64-mingw32/include\stdio.h **** 
 332:C:/Program Files/CodeBlocks/MinGW/x86_64-w64-mingw32/include\stdio.h **** __mingw_ovr
 333:C:/Program Files/CodeBlocks/MinGW/x86_64-w64-mingw32/include\stdio.h **** __attribute__((__format__ (gnu_printf, 2, 3))) __MINGW_ATTRIB_NONNULL(2)
 334:C:/Program Files/CodeBlocks/MinGW/x86_64-w64-mingw32/include\stdio.h **** int fprintf (FILE *__stream, const char *__format, ...)
 335:C:/Program Files/CodeBlocks/MinGW/x86_64-w64-mingw32/include\stdio.h **** {
 336:C:/Program Files/CodeBlocks/MinGW/x86_64-w64-mingw32/include\stdio.h ****   int __retval;
 337:C:/Program Files/CodeBlocks/MinGW/x86_64-w64-mingw32/include\stdio.h ****   __builtin_va_list __local_argv; __builtin_va_start( __local_argv, __format );
 338:C:/Program Files/CodeBlocks/MinGW/x86_64-w64-mingw32/include\stdio.h ****   __retval = __mingw_vfprintf( __stream, __format, __local_argv );
 339:C:/Program Files/CodeBlocks/MinGW/x86_64-w64-mingw32/include\stdio.h ****   __builtin_va_end( __local_argv );
 340:C:/Program Files/CodeBlocks/MinGW/x86_64-w64-mingw32/include\stdio.h ****   return __retval;
 341:C:/Program Files/CodeBlocks/MinGW/x86_64-w64-mingw32/include\stdio.h **** }
 342:C:/Program Files/CodeBlocks/MinGW/x86_64-w64-mingw32/include\stdio.h **** 
 343:C:/Program Files/CodeBlocks/MinGW/x86_64-w64-mingw32/include\stdio.h **** __mingw_ovr
 344:C:/Program Files/CodeBlocks/MinGW/x86_64-w64-mingw32/include\stdio.h **** __attribute__((__format__ (gnu_printf, 1, 2))) __MINGW_ATTRIB_NONNULL(1)
 345:C:/Program Files/CodeBlocks/MinGW/x86_64-w64-mingw32/include\stdio.h **** int printf (const char *__format, ...)
 346:C:/Program Files/CodeBlocks/MinGW/x86_64-w64-mingw32/include\stdio.h **** {
  68              		.loc 1 346 1
  69              		.cfi_startproc
  70 0000 55       		pushq	%rbp
  71              		.seh_pushreg	%rbp
  72              		.cfi_def_cfa_offset 16
  73              		.cfi_offset 6, -16
  74 0001 53       		pushq	%rbx
  75              		.seh_pushreg	%rbx
  76              		.cfi_def_cfa_offset 24
  77              		.cfi_offset 3, -24
  78 0002 4883EC38 		subq	$56, %rsp
  79              		.seh_stackalloc	56
  80              		.cfi_def_cfa_offset 80
  81 0006 488DAC24 		leaq	128(%rsp), %rbp
  81      80000000 
  82              		.seh_setframe	%rbp, 128
  83              		.cfi_def_cfa 6, -48
  84              		.seh_endprologue
  85 000e 48894DD0 		movq	%rcx, -48(%rbp)
  86 0012 488955D8 		movq	%rdx, -40(%rbp)
  87 0016 4C8945E0 		movq	%r8, -32(%rbp)
  88 001a 4C894DE8 		movq	%r9, -24(%rbp)
 347:C:/Program Files/CodeBlocks/MinGW/x86_64-w64-mingw32/include\stdio.h ****   int __retval;
 348:C:/Program Files/CodeBlocks/MinGW/x86_64-w64-mingw32/include\stdio.h ****   __builtin_va_list __local_argv; __builtin_va_start( __local_argv, __format );
  89              		.loc 1 348 53
  90 001e 488D45D8 		leaq	-40(%rbp), %rax
  91 0022 488945A0 		movq	%rax, -96(%rbp)
 349:C:/Program Files/CodeBlocks/MinGW/x86_64-w64-mingw32/include\stdio.h ****   __retval = __mingw_vfprintf( stdout, __format, __local_argv );
  92              		.loc 1 349 30
  93 0026 488B5DA0 		movq	-96(%rbp), %rbx
  94 002a B9010000 		movl	$1, %ecx
  94      00
  95 002f 488B0500 		movq	__imp___acrt_iob_func(%rip), %rax
  95      000000
  96 0036 FFD0     		call	*%rax
  97              	.LVL1:
  98 0038 4989D8   		movq	%rbx, %r8
  99 003b 488B55D0 		movq	-48(%rbp), %rdx
 100 003f 4889C1   		movq	%rax, %rcx
GAS LISTING C:\Users\gabri\AppData\Local\Temp\cc5DSkcw.s 			page 9


 101 0042 E8000000 		call	__mingw_vfprintf
 101      00
 102 0047 8945AC   		movl	%eax, -84(%rbp)
 350:C:/Program Files/CodeBlocks/MinGW/x86_64-w64-mingw32/include\stdio.h ****   __builtin_va_end( __local_argv );
 351:C:/Program Files/CodeBlocks/MinGW/x86_64-w64-mingw32/include\stdio.h ****   return __retval;
 103              		.loc 1 351 10
 104 004a 8B45AC   		movl	-84(%rbp), %eax
 352:C:/Program Files/CodeBlocks/MinGW/x86_64-w64-mingw32/include\stdio.h **** }
 105              		.loc 1 352 1
 106 004d 4883C438 		addq	$56, %rsp
 107 0051 5B       		popq	%rbx
 108              		.cfi_restore 3
 109 0052 5D       		popq	%rbp
 110              		.cfi_restore 6
 111              		.cfi_def_cfa 7, -40
 112 0053 C3       		ret
 113              		.cfi_endproc
 114              	.LFE27:
 115              		.seh_endproc
 116 0054 90909090 		.section .rdata,"dr"
 116      90909090 
 116      90909090 
 117              	_ZStL19piecewise_construct:
 118 0000 00       		.space 1
 119              	_ZStL13allocator_arg:
 120 0001 00       		.space 1
 121              	_ZStL6ignore:
 122 0002 00       		.space 1
 123              	.lcomm _ZStL8__ioinit,1,1
 124 0003 00       		.align 4
 125              	_ZN9__gnu_cxxL21__default_lock_policyE:
 126 0004 02000000 		.long	2
 127              	_ZStL10defer_lock:
 128 0008 00       		.space 1
 129              	_ZStL11try_to_lock:
 130 0009 00       		.space 1
 131              	_ZStL10adopt_lock:
 132 000a 00       		.space 1
 133 000b 00       		.align 4
 134              	_ZNSt15regex_constantsL5icaseE:
 135 000c 01000000 		.long	1
 136              		.align 4
 137              	_ZNSt15regex_constantsL6nosubsE:
 138 0010 02000000 		.long	2
 139              		.align 4
 140              	_ZNSt15regex_constantsL8optimizeE:
 141 0014 04000000 		.long	4
 142              		.align 4
 143              	_ZNSt15regex_constantsL7collateE:
 144 0018 08000000 		.long	8
 145              		.align 4
 146              	_ZNSt15regex_constantsL10ECMAScriptE:
 147 001c 10000000 		.long	16
 148              		.align 4
 149              	_ZNSt15regex_constantsL5basicE:
 150 0020 20000000 		.long	32
 151              		.align 4
GAS LISTING C:\Users\gabri\AppData\Local\Temp\cc5DSkcw.s 			page 10


 152              	_ZNSt15regex_constantsL8extendedE:
 153 0024 40000000 		.long	64
 154              		.align 4
 155              	_ZNSt15regex_constantsL3awkE:
 156 0028 80000000 		.long	128
 157              		.align 4
 158              	_ZNSt15regex_constantsL4grepE:
 159 002c 00010000 		.long	256
 160              		.align 4
 161              	_ZNSt15regex_constantsL5egrepE:
 162 0030 00020000 		.long	512
 163              		.align 4
 164              	_ZNSt15regex_constantsL12__polynomialE:
 165 0034 00040000 		.long	1024
 166              		.align 4
 167              	_ZNSt15regex_constantsL13match_defaultE:
 168 0038 00000000 		.space 4
 169              		.align 4
 170              	_ZNSt15regex_constantsL13match_not_bolE:
 171 003c 01000000 		.long	1
 172              		.align 4
 173              	_ZNSt15regex_constantsL13match_not_eolE:
 174 0040 02000000 		.long	2
 175              		.align 4
 176              	_ZNSt15regex_constantsL13match_not_bowE:
 177 0044 04000000 		.long	4
 178              		.align 4
 179              	_ZNSt15regex_constantsL13match_not_eowE:
 180 0048 08000000 		.long	8
 181              		.align 4
 182              	_ZNSt15regex_constantsL9match_anyE:
 183 004c 10000000 		.long	16
 184              		.align 4
 185              	_ZNSt15regex_constantsL14match_not_nullE:
 186 0050 20000000 		.long	32
 187              		.align 4
 188              	_ZNSt15regex_constantsL16match_continuousE:
 189 0054 40000000 		.long	64
 190              		.align 4
 191              	_ZNSt15regex_constantsL16match_prev_availE:
 192 0058 80000000 		.long	128
 193              		.align 4
 194              	_ZNSt15regex_constantsL14format_defaultE:
 195 005c 00000000 		.space 4
 196              		.align 4
 197              	_ZNSt15regex_constantsL10format_sedE:
 198 0060 00010000 		.long	256
 199              		.align 4
 200              	_ZNSt15regex_constantsL14format_no_copyE:
 201 0064 00020000 		.long	512
 202              		.align 4
 203              	_ZNSt15regex_constantsL17format_first_onlyE:
 204 0068 00040000 		.long	1024
 205              		.align 4
 206              	_ZNSt15regex_constantsL13error_collateE:
 207 006c 00000000 		.space 4
 208              		.align 4
GAS LISTING C:\Users\gabri\AppData\Local\Temp\cc5DSkcw.s 			page 11


 209              	_ZNSt15regex_constantsL11error_ctypeE:
 210 0070 01000000 		.long	1
 211              		.align 4
 212              	_ZNSt15regex_constantsL12error_escapeE:
 213 0074 02000000 		.long	2
 214              		.align 4
 215              	_ZNSt15regex_constantsL13error_backrefE:
 216 0078 03000000 		.long	3
 217              		.align 4
 218              	_ZNSt15regex_constantsL11error_brackE:
 219 007c 04000000 		.long	4
 220              		.align 4
 221              	_ZNSt15regex_constantsL11error_parenE:
 222 0080 05000000 		.long	5
 223              		.align 4
 224              	_ZNSt15regex_constantsL11error_braceE:
 225 0084 06000000 		.long	6
 226              		.align 4
 227              	_ZNSt15regex_constantsL14error_badbraceE:
 228 0088 07000000 		.long	7
 229              		.align 4
 230              	_ZNSt15regex_constantsL11error_rangeE:
 231 008c 08000000 		.long	8
 232              		.align 4
 233              	_ZNSt15regex_constantsL11error_spaceE:
 234 0090 09000000 		.long	9
 235              		.align 4
 236              	_ZNSt15regex_constantsL15error_badrepeatE:
 237 0094 0A000000 		.long	10
 238              		.align 4
 239              	_ZNSt15regex_constantsL16error_complexityE:
 240 0098 0B000000 		.long	11
 241              		.align 4
 242              	_ZNSt15regex_constantsL11error_stackE:
 243 009c 0C000000 		.long	12
 244              		.align 4
 245              	_ZNSt8__detailL19_S_invalid_state_idE:
 246 00a0 FFFFFFFF 		.long	-1
 247              		.section	.text$_ZN10MeuArquivo9cabecalhoC1Ev,"x"
 248              		.linkonce discard
 249              		.align 2
 250              		.globl	_ZN10MeuArquivo9cabecalhoC1Ev
 252              		.seh_proc	_ZN10MeuArquivo9cabecalhoC1Ev
 253              	_ZN10MeuArquivo9cabecalhoC1Ev:
 254              	.LFB8813:
 255              		.file 2 "C:/Users/gabri/Documentos/UFU/2021-1/GBD/GBD-2021-1/Trabalho 2/GBDTrabalho2/main.cpp"
   1:C:/Users/gabri/Documentos/UFU/2021-1/GBD/GBD-2021-1/Trabalho 2/GBDTrabalho2\main.cpp **** /*
   2:C:/Users/gabri/Documentos/UFU/2021-1/GBD/GBD-2021-1/Trabalho 2/GBDTrabalho2\main.cpp ****  * File:        main.cpp
   3:C:/Users/gabri/Documentos/UFU/2021-1/GBD/GBD-2021-1/Trabalho 2/GBDTrabalho2\main.cpp ****  * Author:      Gabriel Ribeiro Bernardi - 11821BCC036
   4:C:/Users/gabri/Documentos/UFU/2021-1/GBD/GBD-2021-1/Trabalho 2/GBDTrabalho2\main.cpp ****  *              Guilherme Soares Correa - 11821BCC026
   5:C:/Users/gabri/Documentos/UFU/2021-1/GBD/GBD-2021-1/Trabalho 2/GBDTrabalho2\main.cpp ****  *              Bruno Oliveira Sinhoroto - 11821BCC044
   6:C:/Users/gabri/Documentos/UFU/2021-1/GBD/GBD-2021-1/Trabalho 2/GBDTrabalho2\main.cpp ****  * Observacao:  Foram retirados os acentos das strings a serem impressas nos printfs e dos comentar
   7:C:/Users/gabri/Documentos/UFU/2021-1/GBD/GBD-2021-1/Trabalho 2/GBDTrabalho2\main.cpp ****  */
   8:C:/Users/gabri/Documentos/UFU/2021-1/GBD/GBD-2021-1/Trabalho 2/GBDTrabalho2\main.cpp **** 
   9:C:/Users/gabri/Documentos/UFU/2021-1/GBD/GBD-2021-1/Trabalho 2/GBDTrabalho2\main.cpp **** #include <bits/stdc++.h>
  10:C:/Users/gabri/Documentos/UFU/2021-1/GBD/GBD-2021-1/Trabalho 2/GBDTrabalho2\main.cpp **** 
  11:C:/Users/gabri/Documentos/UFU/2021-1/GBD/GBD-2021-1/Trabalho 2/GBDTrabalho2\main.cpp **** using namespace std;
GAS LISTING C:\Users\gabri\AppData\Local\Temp\cc5DSkcw.s 			page 12


  12:C:/Users/gabri/Documentos/UFU/2021-1/GBD/GBD-2021-1/Trabalho 2/GBDTrabalho2\main.cpp **** 
  13:C:/Users/gabri/Documentos/UFU/2021-1/GBD/GBD-2021-1/Trabalho 2/GBDTrabalho2\main.cpp **** class MeuArquivo {
  14:C:/Users/gabri/Documentos/UFU/2021-1/GBD/GBD-2021-1/Trabalho 2/GBDTrabalho2\main.cpp **** public:
  15:C:/Users/gabri/Documentos/UFU/2021-1/GBD/GBD-2021-1/Trabalho 2/GBDTrabalho2\main.cpp ****     struct cabecalho { int quantidade; int disponivel = -1; } cabecalho;
 256              		.loc 2 15 12
 257              		.cfi_startproc
 258 0000 55       		pushq	%rbp
 259              		.seh_pushreg	%rbp
 260              		.cfi_def_cfa_offset 16
 261              		.cfi_offset 6, -16
 262 0001 4889E5   		movq	%rsp, %rbp
 263              		.seh_setframe	%rbp, 0
 264              		.cfi_def_cfa_register 6
 265              		.seh_endprologue
 266 0004 48894D10 		movq	%rcx, 16(%rbp)
 267              	.LBB2:
 268              		.loc 2 15 12
 269 0008 488B4510 		movq	16(%rbp), %rax
 270 000c C74004FF 		movl	$-1, 4(%rax)
 270      FFFFFF
 271              	.LBE2:
 272 0013 90       		nop
 273 0014 5D       		popq	%rbp
 274              		.cfi_restore 6
 275              		.cfi_def_cfa 7, 8
 276 0015 C3       		ret
 277              		.cfi_endproc
 278              	.LFE8813:
 279              		.seh_endproc
 280 0016 90909090 		.section .rdata,"dr"
 280      90909090 
 280      9090
 281              	.LC0:
 282 00a4 772B00   		.ascii "w+\0"
 283              	.LC1:
 284 00a7 6461646F 		.ascii "dados.dat\0"
 284      732E6461 
 284      7400
 285              		.section	.text$_ZN10MeuArquivoC1Ev,"x"
 286              		.linkonce discard
 287              		.align 2
 288              		.globl	_ZN10MeuArquivoC1Ev
 290              		.seh_proc	_ZN10MeuArquivoC1Ev
 291              	_ZN10MeuArquivoC1Ev:
 292              	.LFB8815:
  16:C:/Users/gabri/Documentos/UFU/2021-1/GBD/GBD-2021-1/Trabalho 2/GBDTrabalho2\main.cpp ****     struct registro { int quantidade; int disponivel; } registro;
  17:C:/Users/gabri/Documentos/UFU/2021-1/GBD/GBD-2021-1/Trabalho 2/GBDTrabalho2\main.cpp ****     typedef struct removeRegistro { int prox; int tamanho; } removeRegistro;
  18:C:/Users/gabri/Documentos/UFU/2021-1/GBD/GBD-2021-1/Trabalho 2/GBDTrabalho2\main.cpp **** 
  19:C:/Users/gabri/Documentos/UFU/2021-1/GBD/GBD-2021-1/Trabalho 2/GBDTrabalho2\main.cpp ****     // construtor: abre arquivo. Essa aplicacao deveria ler o arquivo se existente ou criar um novo
  20:C:/Users/gabri/Documentos/UFU/2021-1/GBD/GBD-2021-1/Trabalho 2/GBDTrabalho2\main.cpp ****     // Entretando recriaremos o arquivo a cada execucao ("w+").
  21:C:/Users/gabri/Documentos/UFU/2021-1/GBD/GBD-2021-1/Trabalho 2/GBDTrabalho2\main.cpp ****     MeuArquivo() {
 293              		.loc 2 21 5
 294              		.cfi_startproc
 295 0000 55       		pushq	%rbp
 296              		.seh_pushreg	%rbp
 297              		.cfi_def_cfa_offset 16
 298              		.cfi_offset 6, -16
GAS LISTING C:\Users\gabri\AppData\Local\Temp\cc5DSkcw.s 			page 13


 299 0001 4889E5   		movq	%rsp, %rbp
 300              		.seh_setframe	%rbp, 0
 301              		.cfi_def_cfa_register 6
 302 0004 4883EC20 		subq	$32, %rsp
 303              		.seh_stackalloc	32
 304              		.seh_endprologue
 305 0008 48894D10 		movq	%rcx, 16(%rbp)
 306              	.LBB3:
 307              		.loc 2 21 18
 308 000c 488B4510 		movq	16(%rbp), %rax
 309 0010 4889C1   		movq	%rax, %rcx
 310 0013 E8000000 		call	_ZN10MeuArquivo9cabecalhoC1Ev
 310      00
  22:C:/Users/gabri/Documentos/UFU/2021-1/GBD/GBD-2021-1/Trabalho 2/GBDTrabalho2\main.cpp ****         fd = fopen("dados.dat","w+");
 311              		.loc 2 22 19
 312 0018 488D15A4 		leaq	.LC0(%rip), %rdx
 312      000000
 313 001f 488D0DA7 		leaq	.LC1(%rip), %rcx
 313      000000
 314 0026 E8000000 		call	fopen
 314      00
 315 002b 4889C2   		movq	%rax, %rdx
 316              		.loc 2 22 12
 317 002e 488B4510 		movq	16(%rbp), %rax
 318 0032 48895010 		movq	%rdx, 16(%rax)
  23:C:/Users/gabri/Documentos/UFU/2021-1/GBD/GBD-2021-1/Trabalho 2/GBDTrabalho2\main.cpp ****         fwrite(&cabecalho, sizeof(cabecalho), 1, fd);
 319              		.loc 2 23 15
 320 0036 488B4510 		movq	16(%rbp), %rax
 321 003a 488B5010 		movq	16(%rax), %rdx
 322              		.loc 2 23 16
 323 003e 488B4510 		movq	16(%rbp), %rax
 324              		.loc 2 23 15
 325 0042 4989D1   		movq	%rdx, %r9
 326 0045 41B80100 		movl	$1, %r8d
 326      0000
 327 004b BA080000 		movl	$8, %edx
 327      00
 328 0050 4889C1   		movq	%rax, %rcx
 329 0053 E8000000 		call	fwrite
 329      00
  24:C:/Users/gabri/Documentos/UFU/2021-1/GBD/GBD-2021-1/Trabalho 2/GBDTrabalho2\main.cpp ****         fflush(fd);
 330              		.loc 2 24 15
 331 0058 488B4510 		movq	16(%rbp), %rax
 332 005c 488B4010 		movq	16(%rax), %rax
 333 0060 4889C1   		movq	%rax, %rcx
 334 0063 E8000000 		call	fflush
 334      00
 335              	.LBE3:
  25:C:/Users/gabri/Documentos/UFU/2021-1/GBD/GBD-2021-1/Trabalho 2/GBDTrabalho2\main.cpp ****     }
 336              		.loc 2 25 5
 337 0068 90       		nop
 338 0069 4883C420 		addq	$32, %rsp
 339 006d 5D       		popq	%rbp
 340              		.cfi_restore 6
 341              		.cfi_def_cfa 7, 8
 342 006e C3       		ret
 343              		.cfi_endproc
GAS LISTING C:\Users\gabri\AppData\Local\Temp\cc5DSkcw.s 			page 14


 344              	.LFE8815:
 345              		.seh_endproc
 346 006f 90       		.section .rdata,"dr"
 347 00b1 00000000 		.align 8
 347      000000
 348              	.LC2:
 349 00b8 4E616F20 		.ascii "Nao foi possivel escrever o tamanho da palavra no final.\0"
 349      666F6920 
 349      706F7373 
 349      6976656C 
 349      20657363 
 350 00f1 00000000 		.align 8
 350      000000
 351              	.LC3:
 352 00f8 4E616F20 		.ascii "Nao foi possivel escrever a palavra no final.\0"
 352      666F6920 
 352      706F7373 
 352      6976656C 
 352      20657363 
 353              		.section	.text$_ZN10MeuArquivo13inserePalavraEPc,"x"
 354              		.linkonce discard
 355              		.align 2
 356              		.globl	_ZN10MeuArquivo13inserePalavraEPc
 358              		.seh_proc	_ZN10MeuArquivo13inserePalavraEPc
 359              	_ZN10MeuArquivo13inserePalavraEPc:
 360              	.LFB8819:
  26:C:/Users/gabri/Documentos/UFU/2021-1/GBD/GBD-2021-1/Trabalho 2/GBDTrabalho2\main.cpp **** 
  27:C:/Users/gabri/Documentos/UFU/2021-1/GBD/GBD-2021-1/Trabalho 2/GBDTrabalho2\main.cpp ****     // Destrutor: fecha arquivo
  28:C:/Users/gabri/Documentos/UFU/2021-1/GBD/GBD-2021-1/Trabalho 2/GBDTrabalho2\main.cpp ****     ~MeuArquivo() {
  29:C:/Users/gabri/Documentos/UFU/2021-1/GBD/GBD-2021-1/Trabalho 2/GBDTrabalho2\main.cpp ****         fclose(fd);
  30:C:/Users/gabri/Documentos/UFU/2021-1/GBD/GBD-2021-1/Trabalho 2/GBDTrabalho2\main.cpp ****     }
  31:C:/Users/gabri/Documentos/UFU/2021-1/GBD/GBD-2021-1/Trabalho 2/GBDTrabalho2\main.cpp **** 
  32:C:/Users/gabri/Documentos/UFU/2021-1/GBD/GBD-2021-1/Trabalho 2/GBDTrabalho2\main.cpp ****     // Insere uma nova palavra, consulta se h espaco disponvel ou se deve inserir no final
  33:C:/Users/gabri/Documentos/UFU/2021-1/GBD/GBD-2021-1/Trabalho 2/GBDTrabalho2\main.cpp ****     void inserePalavra(char *palavra) {
 361              		.loc 2 33 10
 362              		.cfi_startproc
 363 0000 55       		pushq	%rbp
 364              		.seh_pushreg	%rbp
 365              		.cfi_def_cfa_offset 16
 366              		.cfi_offset 6, -16
 367 0001 4889E5   		movq	%rsp, %rbp
 368              		.seh_setframe	%rbp, 0
 369              		.cfi_def_cfa_register 6
 370 0004 4883EC40 		subq	$64, %rsp
 371              		.seh_stackalloc	64
 372              		.seh_endprologue
 373 0008 48894D10 		movq	%rcx, 16(%rbp)
 374 000c 48895518 		movq	%rdx, 24(%rbp)
  34:C:/Users/gabri/Documentos/UFU/2021-1/GBD/GBD-2021-1/Trabalho 2/GBDTrabalho2\main.cpp ****         this->substituiBarraNporBarraZero(palavra); // funcao auxiliar substitui terminador por \0
 375              		.loc 2 34 42
 376 0010 488B4518 		movq	24(%rbp), %rax
 377 0014 4889C2   		movq	%rax, %rdx
 378 0017 488B4D10 		movq	16(%rbp), %rcx
 379 001b E8000000 		call	_ZN10MeuArquivo27substituiBarraNporBarraZeroEPc
 379      00
  35:C:/Users/gabri/Documentos/UFU/2021-1/GBD/GBD-2021-1/Trabalho 2/GBDTrabalho2\main.cpp **** 
  36:C:/Users/gabri/Documentos/UFU/2021-1/GBD/GBD-2021-1/Trabalho 2/GBDTrabalho2\main.cpp ****         /* Para garantir melhor organizacao e manipulacao, garante-se que a string tenha pelo menos
GAS LISTING C:\Users\gabri\AppData\Local\Temp\cc5DSkcw.s 			page 15


  37:C:/Users/gabri/Documentos/UFU/2021-1/GBD/GBD-2021-1/Trabalho 2/GBDTrabalho2\main.cpp ****            Se tiver menos de 8 bytes, faz-se a alocacao do espao, caso contrrio mantem-se o taman
  38:C:/Users/gabri/Documentos/UFU/2021-1/GBD/GBD-2021-1/Trabalho 2/GBDTrabalho2\main.cpp ****          */
  39:C:/Users/gabri/Documentos/UFU/2021-1/GBD/GBD-2021-1/Trabalho 2/GBDTrabalho2\main.cpp ****         char *stringAlocada;
  40:C:/Users/gabri/Documentos/UFU/2021-1/GBD/GBD-2021-1/Trabalho 2/GBDTrabalho2\main.cpp ****         if(strlen(palavra) + 1 < 8) {
 380              		.loc 2 40 18
 381 0020 488B4518 		movq	24(%rbp), %rax
 382 0024 4889C1   		movq	%rax, %rcx
 383 0027 E8000000 		call	strlen
 383      00
 384              		.loc 2 40 28
 385 002c 4883C001 		addq	$1, %rax
 386              		.loc 2 40 9
 387 0030 4883F807 		cmpq	$7, %rax
 388 0034 7720     		ja	.L8
  41:C:/Users/gabri/Documentos/UFU/2021-1/GBD/GBD-2021-1/Trabalho 2/GBDTrabalho2\main.cpp ****             stringAlocada = (char*) malloc(8);  //Alocando tamanho da palavra a ser inserida
 389              		.loc 2 41 43
 390 0036 B9080000 		movl	$8, %ecx
 390      00
 391 003b E8000000 		call	malloc
 391      00
 392 0040 488945F8 		movq	%rax, -8(%rbp)
  42:C:/Users/gabri/Documentos/UFU/2021-1/GBD/GBD-2021-1/Trabalho 2/GBDTrabalho2\main.cpp ****             strcpy(stringAlocada, palavra);     //Copia valor string palavra para str
 393              		.loc 2 42 19
 394 0044 488B5518 		movq	24(%rbp), %rdx
 395 0048 488B45F8 		movq	-8(%rbp), %rax
 396 004c 4889C1   		movq	%rax, %rcx
 397 004f E8000000 		call	strcpy
 397      00
 398 0054 EB08     		jmp	.L9
 399              	.L8:
  43:C:/Users/gabri/Documentos/UFU/2021-1/GBD/GBD-2021-1/Trabalho 2/GBDTrabalho2\main.cpp ****         }else{
  44:C:/Users/gabri/Documentos/UFU/2021-1/GBD/GBD-2021-1/Trabalho 2/GBDTrabalho2\main.cpp ****             stringAlocada = palavra;
 400              		.loc 2 44 27
 401 0056 488B4518 		movq	24(%rbp), %rax
 402 005a 488945F8 		movq	%rax, -8(%rbp)
 403              	.L9:
  45:C:/Users/gabri/Documentos/UFU/2021-1/GBD/GBD-2021-1/Trabalho 2/GBDTrabalho2\main.cpp ****         }
  46:C:/Users/gabri/Documentos/UFU/2021-1/GBD/GBD-2021-1/Trabalho 2/GBDTrabalho2\main.cpp ****         palavra = stringAlocada;
 404              		.loc 2 46 17
 405 005e 488B45F8 		movq	-8(%rbp), %rax
 406 0062 48894518 		movq	%rax, 24(%rbp)
 407              	.LBB4:
  47:C:/Users/gabri/Documentos/UFU/2021-1/GBD/GBD-2021-1/Trabalho 2/GBDTrabalho2\main.cpp **** 
  48:C:/Users/gabri/Documentos/UFU/2021-1/GBD/GBD-2021-1/Trabalho 2/GBDTrabalho2\main.cpp ****         if(inserePalavra1(palavra) == 0) {  //Se retornar 0, palavra nao foi inserida no decorrer d
 408              		.loc 2 48 26
 409 0066 488B4518 		movq	24(%rbp), %rax
 410 006a 4889C2   		movq	%rax, %rdx
 411 006d 488B4D10 		movq	16(%rbp), %rcx
 412 0071 E8000000 		call	_ZN10MeuArquivo14inserePalavra1EPc
 412      00
 413              		.loc 2 48 36
 414 0076 85C0     		testl	%eax, %eax
 415 0078 0F94C0   		sete	%al
 416              		.loc 2 48 9
 417 007b 84C0     		testb	%al, %al
 418 007d 0F840701 		je	.L10
 418      0000
GAS LISTING C:\Users\gabri\AppData\Local\Temp\cc5DSkcw.s 			page 16


 419              	.LBB5:
  49:C:/Users/gabri/Documentos/UFU/2021-1/GBD/GBD-2021-1/Trabalho 2/GBDTrabalho2\main.cpp ****             fseek(fd, 0, SEEK_END);
 420              		.loc 2 49 18
 421 0083 488B4510 		movq	16(%rbp), %rax
 422 0087 488B4010 		movq	16(%rax), %rax
 423 008b 41B80200 		movl	$2, %r8d
 423      0000
 424 0091 BA000000 		movl	$0, %edx
 424      00
 425 0096 4889C1   		movq	%rax, %rcx
 426 0099 E8000000 		call	fseek
 426      00
  50:C:/Users/gabri/Documentos/UFU/2021-1/GBD/GBD-2021-1/Trabalho 2/GBDTrabalho2\main.cpp ****             //Insere palavra ao final do arquivo caso nao seja possivel insercao no decorrer do dic
  51:C:/Users/gabri/Documentos/UFU/2021-1/GBD/GBD-2021-1/Trabalho 2/GBDTrabalho2\main.cpp **** //            int offset = ftell(fd);
  52:C:/Users/gabri/Documentos/UFU/2021-1/GBD/GBD-2021-1/Trabalho 2/GBDTrabalho2\main.cpp ****             int tamanhoPalavra = strlen(palavra);
 427              		.loc 2 52 40
 428 009e 488B4518 		movq	24(%rbp), %rax
 429 00a2 4889C1   		movq	%rax, %rcx
 430 00a5 E8000000 		call	strlen
 430      00
 431              		.loc 2 52 17
 432 00aa 8945F4   		movl	%eax, -12(%rbp)
  53:C:/Users/gabri/Documentos/UFU/2021-1/GBD/GBD-2021-1/Trabalho 2/GBDTrabalho2\main.cpp ****             int tamanho = max(int(sizeof(removeRegistro) - sizeof(int)), tamanhoPalavra + 1);
 433              		.loc 2 53 89
 434 00ad 8B45F4   		movl	-12(%rbp), %eax
 435 00b0 83C001   		addl	$1, %eax
 436 00b3 8945EC   		movl	%eax, -20(%rbp)
 437              		.loc 2 53 31
 438 00b6 C745F004 		movl	$4, -16(%rbp)
 438      000000
 439              		.loc 2 53 92
 440 00bd 488D55EC 		leaq	-20(%rbp), %rdx
 441 00c1 488D45F0 		leaq	-16(%rbp), %rax
 442 00c5 4889C1   		movq	%rax, %rcx
 443 00c8 E8000000 		call	_ZSt3maxIiERKT_S2_S2_
 443      00
 444              		.loc 2 53 30
 445 00cd 8B00     		movl	(%rax), %eax
 446              		.loc 2 53 92
 447 00cf 8945E8   		movl	%eax, -24(%rbp)
  54:C:/Users/gabri/Documentos/UFU/2021-1/GBD/GBD-2021-1/Trabalho 2/GBDTrabalho2\main.cpp **** 
  55:C:/Users/gabri/Documentos/UFU/2021-1/GBD/GBD-2021-1/Trabalho 2/GBDTrabalho2\main.cpp ****             //Tenta-se escrever o tamanho da palavra e a palavra no final do dicionario
  56:C:/Users/gabri/Documentos/UFU/2021-1/GBD/GBD-2021-1/Trabalho 2/GBDTrabalho2\main.cpp ****             if(fwrite(&tamanho, sizeof(int), 1, fd) != 1) {
 448              		.loc 2 56 22
 449 00d2 488B4510 		movq	16(%rbp), %rax
 450 00d6 488B5010 		movq	16(%rax), %rdx
 451 00da 488D45E8 		leaq	-24(%rbp), %rax
 452 00de 4989D1   		movq	%rdx, %r9
 453 00e1 41B80100 		movl	$1, %r8d
 453      0000
 454 00e7 BA040000 		movl	$4, %edx
 454      00
 455 00ec 4889C1   		movq	%rax, %rcx
 456 00ef E8000000 		call	fwrite
 456      00
 457              		.loc 2 56 53
 458 00f4 4883F801 		cmpq	$1, %rax
GAS LISTING C:\Users\gabri\AppData\Local\Temp\cc5DSkcw.s 			page 17


 459 00f8 0F95C0   		setne	%al
 460              		.loc 2 56 13
 461 00fb 84C0     		testb	%al, %al
 462 00fd 7422     		je	.L11
  57:C:/Users/gabri/Documentos/UFU/2021-1/GBD/GBD-2021-1/Trabalho 2/GBDTrabalho2\main.cpp ****                 cout << "Nao foi possivel escrever o tamanho da palavra no final." << endl;
 463              		.loc 2 57 25
 464 00ff 488D15B8 		leaq	.LC2(%rip), %rdx
 464      000000
 465 0106 488B0D00 		movq	.refptr._ZSt4cout(%rip), %rcx
 465      000000
 466 010d E8000000 		call	_ZStlsISt11char_traitsIcEERSt13basic_ostreamIcT_ES5_PKc
 466      00
 467              		.loc 2 57 87
 468 0112 488B1500 		movq	.refptr._ZSt4endlIcSt11char_traitsIcEERSt13basic_ostreamIT_T0_ES6_(%rip), %rdx
 468      000000
 469 0119 4889C1   		movq	%rax, %rcx
 470 011c E8000000 		call	_ZNSolsEPFRSoS_E
 470      00
 471              	.L11:
  58:C:/Users/gabri/Documentos/UFU/2021-1/GBD/GBD-2021-1/Trabalho 2/GBDTrabalho2\main.cpp ****             }
  59:C:/Users/gabri/Documentos/UFU/2021-1/GBD/GBD-2021-1/Trabalho 2/GBDTrabalho2\main.cpp ****             if(fwrite(palavra, sizeof(char), tamanho, fd) != tamanho) {
 472              		.loc 2 59 22
 473 0121 488B4510 		movq	16(%rbp), %rax
 474 0125 488B4810 		movq	16(%rax), %rcx
 475 0129 8B45E8   		movl	-24(%rbp), %eax
 476 012c 4863D0   		movslq	%eax, %rdx
 477 012f 488B4518 		movq	24(%rbp), %rax
 478 0133 4989C9   		movq	%rcx, %r9
 479 0136 4989D0   		movq	%rdx, %r8
 480 0139 BA010000 		movl	$1, %edx
 480      00
 481 013e 4889C1   		movq	%rax, %rcx
 482 0141 E8000000 		call	fwrite
 482      00
 483 0146 4889C2   		movq	%rax, %rdx
 484              		.loc 2 59 59
 485 0149 8B45E8   		movl	-24(%rbp), %eax
 486 014c 4898     		cltq
 487 014e 4839C2   		cmpq	%rax, %rdx
 488 0151 0F95C0   		setne	%al
 489              		.loc 2 59 13
 490 0154 84C0     		testb	%al, %al
 491 0156 7422     		je	.L12
  60:C:/Users/gabri/Documentos/UFU/2021-1/GBD/GBD-2021-1/Trabalho 2/GBDTrabalho2\main.cpp ****                 cout << "Nao foi possivel escrever a palavra no final." << endl;
 492              		.loc 2 60 25
 493 0158 488D15F8 		leaq	.LC3(%rip), %rdx
 493      000000
 494 015f 488B0D00 		movq	.refptr._ZSt4cout(%rip), %rcx
 494      000000
 495 0166 E8000000 		call	_ZStlsISt11char_traitsIcEERSt13basic_ostreamIcT_ES5_PKc
 495      00
 496              		.loc 2 60 76
 497 016b 488B1500 		movq	.refptr._ZSt4endlIcSt11char_traitsIcEERSt13basic_ostreamIT_T0_ES6_(%rip), %rdx
 497      000000
 498 0172 4889C1   		movq	%rax, %rcx
 499 0175 E8000000 		call	_ZNSolsEPFRSoS_E
 499      00
GAS LISTING C:\Users\gabri\AppData\Local\Temp\cc5DSkcw.s 			page 18


 500              	.L12:
  61:C:/Users/gabri/Documentos/UFU/2021-1/GBD/GBD-2021-1/Trabalho 2/GBDTrabalho2\main.cpp ****             }
  62:C:/Users/gabri/Documentos/UFU/2021-1/GBD/GBD-2021-1/Trabalho 2/GBDTrabalho2\main.cpp ****             fflush(fd);
 501              		.loc 2 62 19
 502 017a 488B4510 		movq	16(%rbp), %rax
 503 017e 488B4010 		movq	16(%rax), %rax
 504 0182 4889C1   		movq	%rax, %rcx
 505 0185 E8000000 		call	fflush
 505      00
 506              	.L10:
 507              	.LBE5:
 508              	.LBE4:
  63:C:/Users/gabri/Documentos/UFU/2021-1/GBD/GBD-2021-1/Trabalho 2/GBDTrabalho2\main.cpp ****         }
  64:C:/Users/gabri/Documentos/UFU/2021-1/GBD/GBD-2021-1/Trabalho 2/GBDTrabalho2\main.cpp ****         atualizaCabecalho(1);
 509              		.loc 2 64 26
 510 018a BA010000 		movl	$1, %edx
 510      00
 511 018f 488B4D10 		movq	16(%rbp), %rcx
 512 0193 E8000000 		call	_ZN10MeuArquivo17atualizaCabecalhoEi
 512      00
  65:C:/Users/gabri/Documentos/UFU/2021-1/GBD/GBD-2021-1/Trabalho 2/GBDTrabalho2\main.cpp ****     }
 513              		.loc 2 65 5
 514 0198 90       		nop
 515 0199 4883C440 		addq	$64, %rsp
 516 019d 5D       		popq	%rbp
 517              		.cfi_restore 6
 518              		.cfi_def_cfa 7, 8
 519 019e C3       		ret
 520              		.cfi_endproc
 521              	.LFE8819:
 522              		.seh_endproc
 523 019f 90       		.section .rdata,"dr"
 524              	.LC4:
 525 0126 4465736C 		.ascii "Desloc: \0"
 525      6F633A20 
 525      00
 526 012f 00       		.align 8
 527              	.LC5:
 528 0130 4E616F20 		.ascii "Nao foi possivel escrever a palavra: \0"
 528      666F6920 
 528      706F7373 
 528      6976656C 
 528      20657363 
 529              	.LC6:
 530 0156 41207061 		.ascii "A palavra foi inserida!\0"
 530      6C617672 
 530      6120666F 
 530      6920696E 
 530      73657269 
 531              		.section	.text$_ZN10MeuArquivo14inserePalavra1EPc,"x"
 532              		.linkonce discard
 533              		.align 2
 534              		.globl	_ZN10MeuArquivo14inserePalavra1EPc
 536              		.seh_proc	_ZN10MeuArquivo14inserePalavra1EPc
 537              	_ZN10MeuArquivo14inserePalavra1EPc:
 538              	.LFB8820:
  66:C:/Users/gabri/Documentos/UFU/2021-1/GBD/GBD-2021-1/Trabalho 2/GBDTrabalho2\main.cpp **** 
GAS LISTING C:\Users\gabri\AppData\Local\Temp\cc5DSkcw.s 			page 19


  67:C:/Users/gabri/Documentos/UFU/2021-1/GBD/GBD-2021-1/Trabalho 2/GBDTrabalho2\main.cpp ****     //Funcao para fazer a insero da palavra ao decorrer do dicionario
  68:C:/Users/gabri/Documentos/UFU/2021-1/GBD/GBD-2021-1/Trabalho 2/GBDTrabalho2\main.cpp ****     int inserePalavra1(char *palavra){
 539              		.loc 2 68 9
 540              		.cfi_startproc
 541 0000 55       		pushq	%rbp
 542              		.seh_pushreg	%rbp
 543              		.cfi_def_cfa_offset 16
 544              		.cfi_offset 6, -16
 545 0001 4889E5   		movq	%rsp, %rbp
 546              		.seh_setframe	%rbp, 0
 547              		.cfi_def_cfa_register 6
 548 0004 4883EC40 		subq	$64, %rsp
 549              		.seh_stackalloc	64
 550              		.seh_endprologue
 551 0008 48894D10 		movq	%rcx, 16(%rbp)
 552 000c 48895518 		movq	%rdx, 24(%rbp)
  69:C:/Users/gabri/Documentos/UFU/2021-1/GBD/GBD-2021-1/Trabalho 2/GBDTrabalho2\main.cpp ****         int tamanhoPalavra = strlen(palavra) + 1; // considerando \0
 553              		.loc 2 69 36
 554 0010 488B4518 		movq	24(%rbp), %rax
 555 0014 4889C1   		movq	%rax, %rcx
 556 0017 E8000000 		call	strlen
 556      00
 557              		.loc 2 69 46
 558 001c 83C001   		addl	$1, %eax
 559              		.loc 2 69 13
 560 001f 8945F4   		movl	%eax, -12(%rbp)
  70:C:/Users/gabri/Documentos/UFU/2021-1/GBD/GBD-2021-1/Trabalho 2/GBDTrabalho2\main.cpp ****         int desloc = cabecalho.disponivel;
 561              		.loc 2 70 13
 562 0022 488B4510 		movq	16(%rbp), %rax
 563 0026 8B4004   		movl	4(%rax), %eax
 564 0029 8945FC   		movl	%eax, -4(%rbp)
  71:C:/Users/gabri/Documentos/UFU/2021-1/GBD/GBD-2021-1/Trabalho 2/GBDTrabalho2\main.cpp ****         int anterior = 0;
 565              		.loc 2 71 13
 566 002c C745F800 		movl	$0, -8(%rbp)
 566      000000
  72:C:/Users/gabri/Documentos/UFU/2021-1/GBD/GBD-2021-1/Trabalho 2/GBDTrabalho2\main.cpp **** 
  73:C:/Users/gabri/Documentos/UFU/2021-1/GBD/GBD-2021-1/Trabalho 2/GBDTrabalho2\main.cpp ****         fseek(fd, 0, SEEK_SET); //configura o ponteiro da stram para a posicao 0, ou seja, o inicio
 567              		.loc 2 73 14
 568 0033 488B4510 		movq	16(%rbp), %rax
 569 0037 488B4010 		movq	16(%rax), %rax
 570 003b 41B80000 		movl	$0, %r8d
 570      0000
 571 0041 BA000000 		movl	$0, %edx
 571      00
 572 0046 4889C1   		movq	%rax, %rcx
 573 0049 E8000000 		call	fseek
 573      00
 574              	.L17:
  74:C:/Users/gabri/Documentos/UFU/2021-1/GBD/GBD-2021-1/Trabalho 2/GBDTrabalho2\main.cpp **** 
  75:C:/Users/gabri/Documentos/UFU/2021-1/GBD/GBD-2021-1/Trabalho 2/GBDTrabalho2\main.cpp ****         while(desloc != -1){
 575              		.loc 2 75 22
 576 004e 837DFCFF 		cmpl	$-1, -4(%rbp)
 577 0052 0F844601 		je	.L14
 577      0000
 578              	.LBB6:
  76:C:/Users/gabri/Documentos/UFU/2021-1/GBD/GBD-2021-1/Trabalho 2/GBDTrabalho2\main.cpp ****             cout << "Desloc: " << desloc << endl;
 579              		.loc 2 76 21
GAS LISTING C:\Users\gabri\AppData\Local\Temp\cc5DSkcw.s 			page 20


 580 0058 488D1526 		leaq	.LC4(%rip), %rdx
 580      010000
 581 005f 488B0D00 		movq	.refptr._ZSt4cout(%rip), %rcx
 581      000000
 582 0066 E8000000 		call	_ZStlsISt11char_traitsIcEERSt13basic_ostreamIcT_ES5_PKc
 582      00
 583 006b 4889C1   		movq	%rax, %rcx
 584              		.loc 2 76 35
 585 006e 8B45FC   		movl	-4(%rbp), %eax
 586 0071 89C2     		movl	%eax, %edx
 587 0073 E8000000 		call	_ZNSolsEi
 587      00
 588              		.loc 2 76 45
 589 0078 488B1500 		movq	.refptr._ZSt4endlIcSt11char_traitsIcEERSt13basic_ostreamIT_T0_ES6_(%rip), %rdx
 589      000000
 590 007f 4889C1   		movq	%rax, %rcx
 591 0082 E8000000 		call	_ZNSolsEPFRSoS_E
 591      00
  77:C:/Users/gabri/Documentos/UFU/2021-1/GBD/GBD-2021-1/Trabalho 2/GBDTrabalho2\main.cpp ****             fseek(fd, desloc - ftell(fd), SEEK_CUR);
 592              		.loc 2 77 37
 593 0087 488B4510 		movq	16(%rbp), %rax
 594 008b 488B4010 		movq	16(%rax), %rax
 595 008f 4889C1   		movq	%rax, %rcx
 596 0092 E8000000 		call	ftell
 596      00
 597 0097 89C2     		movl	%eax, %edx
 598              		.loc 2 77 18
 599 0099 8B45FC   		movl	-4(%rbp), %eax
 600 009c 29D0     		subl	%edx, %eax
 601 009e 89C2     		movl	%eax, %edx
 602 00a0 488B4510 		movq	16(%rbp), %rax
 603 00a4 488B4010 		movq	16(%rax), %rax
 604 00a8 41B80100 		movl	$1, %r8d
 604      0000
 605 00ae 4889C1   		movq	%rax, %rcx
 606 00b1 E8000000 		call	fseek
 606      00
  78:C:/Users/gabri/Documentos/UFU/2021-1/GBD/GBD-2021-1/Trabalho 2/GBDTrabalho2\main.cpp **** 
  79:C:/Users/gabri/Documentos/UFU/2021-1/GBD/GBD-2021-1/Trabalho 2/GBDTrabalho2\main.cpp ****             removeRegistro remRegistro;
  80:C:/Users/gabri/Documentos/UFU/2021-1/GBD/GBD-2021-1/Trabalho 2/GBDTrabalho2\main.cpp ****             fread(&remRegistro, sizeof(removeRegistro), 1, fd); //Faz-se a leitura do conteudo do r
 607              		.loc 2 80 18
 608 00b6 488B4510 		movq	16(%rbp), %rax
 609 00ba 488B5010 		movq	16(%rax), %rdx
 610 00be 488D45EC 		leaq	-20(%rbp), %rax
 611 00c2 4989D1   		movq	%rdx, %r9
 612 00c5 41B80100 		movl	$1, %r8d
 612      0000
 613 00cb BA080000 		movl	$8, %edx
 613      00
 614 00d0 4889C1   		movq	%rax, %rcx
 615 00d3 E8000000 		call	fread
 615      00
  81:C:/Users/gabri/Documentos/UFU/2021-1/GBD/GBD-2021-1/Trabalho 2/GBDTrabalho2\main.cpp **** 
  82:C:/Users/gabri/Documentos/UFU/2021-1/GBD/GBD-2021-1/Trabalho 2/GBDTrabalho2\main.cpp ****             if(remRegistro.tamanho >= tamanhoPalavra){
 616              		.loc 2 82 28
 617 00d8 8B45F0   		movl	-16(%rbp), %eax
 618              		.loc 2 82 13
GAS LISTING C:\Users\gabri\AppData\Local\Temp\cc5DSkcw.s 			page 21


 619 00db 3945F4   		cmpl	%eax, -12(%rbp)
 620 00de 0F8FA900 		jg	.L15
 620      0000
  83:C:/Users/gabri/Documentos/UFU/2021-1/GBD/GBD-2021-1/Trabalho 2/GBDTrabalho2\main.cpp ****                 //volta ponteiro do arquivo para o inicio do registro, desconsiderando o int do tam
  84:C:/Users/gabri/Documentos/UFU/2021-1/GBD/GBD-2021-1/Trabalho 2/GBDTrabalho2\main.cpp ****                 fseek(fd, -(sizeof(removeRegistro) - sizeof(int)), SEEK_CUR);
 621              		.loc 2 84 22
 622 00e4 488B4510 		movq	16(%rbp), %rax
 623 00e8 488B4010 		movq	16(%rax), %rax
 624 00ec 41B80100 		movl	$1, %r8d
 624      0000
 625 00f2 BAFCFFFF 		movl	$-4, %edx
 625      FF
 626 00f7 4889C1   		movq	%rax, %rcx
 627 00fa E8000000 		call	fseek
 627      00
  85:C:/Users/gabri/Documentos/UFU/2021-1/GBD/GBD-2021-1/Trabalho 2/GBDTrabalho2\main.cpp ****                 if(fwrite(palavra, sizeof(char), tamanhoPalavra, fd) != tamanhoPalavra) { //Se espa
 628              		.loc 2 85 26
 629 00ff 488B4510 		movq	16(%rbp), %rax
 630 0103 488B4810 		movq	16(%rax), %rcx
 631 0107 8B45F4   		movl	-12(%rbp), %eax
 632 010a 4863D0   		movslq	%eax, %rdx
 633 010d 488B4518 		movq	24(%rbp), %rax
 634 0111 4989C9   		movq	%rcx, %r9
 635 0114 4989D0   		movq	%rdx, %r8
 636 0117 BA010000 		movl	$1, %edx
 636      00
 637 011c 4889C1   		movq	%rax, %rcx
 638 011f E8000000 		call	fwrite
 638      00
 639 0124 4889C2   		movq	%rax, %rdx
 640              		.loc 2 85 70
 641 0127 8B45F4   		movl	-12(%rbp), %eax
 642 012a 4898     		cltq
 643 012c 4839C2   		cmpq	%rax, %rdx
 644 012f 0F95C0   		setne	%al
 645              		.loc 2 85 17
 646 0132 84C0     		testb	%al, %al
 647 0134 7431     		je	.L16
  86:C:/Users/gabri/Documentos/UFU/2021-1/GBD/GBD-2021-1/Trabalho 2/GBDTrabalho2\main.cpp ****                     cout << "Nao foi possivel escrever a palavra: " << palavra << endl;
 648              		.loc 2 86 72
 649 0136 488D1530 		leaq	.LC5(%rip), %rdx
 649      010000
 650 013d 488B0D00 		movq	.refptr._ZSt4cout(%rip), %rcx
 650      000000
 651 0144 E8000000 		call	_ZStlsISt11char_traitsIcEERSt13basic_ostreamIcT_ES5_PKc
 651      00
 652 0149 4889C1   		movq	%rax, %rcx
 653 014c 488B4518 		movq	24(%rbp), %rax
 654 0150 4889C2   		movq	%rax, %rdx
 655 0153 E8000000 		call	_ZStlsISt11char_traitsIcEERSt13basic_ostreamIcT_ES5_PKc
 655      00
 656              		.loc 2 86 83
 657 0158 488B1500 		movq	.refptr._ZSt4endlIcSt11char_traitsIcEERSt13basic_ostreamIT_T0_ES6_(%rip), %rdx
 657      000000
 658 015f 4889C1   		movq	%rax, %rcx
 659 0162 E8000000 		call	_ZNSolsEPFRSoS_E
 659      00
GAS LISTING C:\Users\gabri\AppData\Local\Temp\cc5DSkcw.s 			page 22


 660              	.L16:
  87:C:/Users/gabri/Documentos/UFU/2021-1/GBD/GBD-2021-1/Trabalho 2/GBDTrabalho2\main.cpp ****                 }
  88:C:/Users/gabri/Documentos/UFU/2021-1/GBD/GBD-2021-1/Trabalho 2/GBDTrabalho2\main.cpp ****                 fflush(fd);
 661              		.loc 2 88 23
 662 0167 488B4510 		movq	16(%rbp), %rax
 663 016b 488B4010 		movq	16(%rax), %rax
 664 016f 4889C1   		movq	%rax, %rcx
 665 0172 E8000000 		call	fflush
 665      00
  89:C:/Users/gabri/Documentos/UFU/2021-1/GBD/GBD-2021-1/Trabalho 2/GBDTrabalho2\main.cpp ****                 proximoOffset(anterior, remRegistro.prox);
 666              		.loc 2 89 30
 667 0177 8B55EC   		movl	-20(%rbp), %edx
 668 017a 8B45F8   		movl	-8(%rbp), %eax
 669 017d 4189D0   		movl	%edx, %r8d
 670 0180 89C2     		movl	%eax, %edx
 671 0182 488B4D10 		movq	16(%rbp), %rcx
 672 0186 E8000000 		call	_ZN10MeuArquivo13proximoOffsetEii
 672      00
 673 018b EB11     		jmp	.L14
 674              	.L15:
  90:C:/Users/gabri/Documentos/UFU/2021-1/GBD/GBD-2021-1/Trabalho 2/GBDTrabalho2\main.cpp ****                 break;
  91:C:/Users/gabri/Documentos/UFU/2021-1/GBD/GBD-2021-1/Trabalho 2/GBDTrabalho2\main.cpp ****             }
  92:C:/Users/gabri/Documentos/UFU/2021-1/GBD/GBD-2021-1/Trabalho 2/GBDTrabalho2\main.cpp ****             anterior = desloc;
 675              		.loc 2 92 22
 676 018d 8B45FC   		movl	-4(%rbp), %eax
 677 0190 8945F8   		movl	%eax, -8(%rbp)
  93:C:/Users/gabri/Documentos/UFU/2021-1/GBD/GBD-2021-1/Trabalho 2/GBDTrabalho2\main.cpp ****             desloc = remRegistro.prox;
 678              		.loc 2 93 20
 679 0193 8B45EC   		movl	-20(%rbp), %eax
 680 0196 8945FC   		movl	%eax, -4(%rbp)
 681              	.LBE6:
  75:C:/Users/gabri/Documentos/UFU/2021-1/GBD/GBD-2021-1/Trabalho 2/GBDTrabalho2\main.cpp ****             cout << "Desloc: " << desloc << endl;
 682              		.loc 2 75 9
 683 0199 E9B0FEFF 		jmp	.L17
 683      FF
 684              	.L14:
  94:C:/Users/gabri/Documentos/UFU/2021-1/GBD/GBD-2021-1/Trabalho 2/GBDTrabalho2\main.cpp ****         }
  95:C:/Users/gabri/Documentos/UFU/2021-1/GBD/GBD-2021-1/Trabalho 2/GBDTrabalho2\main.cpp ****         if(desloc != -1){
 685              		.loc 2 95 9
 686 019e 837DFCFF 		cmpl	$-1, -4(%rbp)
 687 01a2 7429     		je	.L18
  96:C:/Users/gabri/Documentos/UFU/2021-1/GBD/GBD-2021-1/Trabalho 2/GBDTrabalho2\main.cpp ****             cout << "A palavra foi inserida!" << endl;
 688              		.loc 2 96 21
 689 01a4 488D1556 		leaq	.LC6(%rip), %rdx
 689      010000
 690 01ab 488B0D00 		movq	.refptr._ZSt4cout(%rip), %rcx
 690      000000
 691 01b2 E8000000 		call	_ZStlsISt11char_traitsIcEERSt13basic_ostreamIcT_ES5_PKc
 691      00
 692              		.loc 2 96 50
 693 01b7 488B1500 		movq	.refptr._ZSt4endlIcSt11char_traitsIcEERSt13basic_ostreamIT_T0_ES6_(%rip), %rdx
 693      000000
 694 01be 4889C1   		movq	%rax, %rcx
 695 01c1 E8000000 		call	_ZNSolsEPFRSoS_E
 695      00
  97:C:/Users/gabri/Documentos/UFU/2021-1/GBD/GBD-2021-1/Trabalho 2/GBDTrabalho2\main.cpp ****             return 1;
 696              		.loc 2 97 20
GAS LISTING C:\Users\gabri\AppData\Local\Temp\cc5DSkcw.s 			page 23


 697 01c6 B8010000 		movl	$1, %eax
 697      00
 698 01cb EB05     		jmp	.L19
 699              	.L18:
  98:C:/Users/gabri/Documentos/UFU/2021-1/GBD/GBD-2021-1/Trabalho 2/GBDTrabalho2\main.cpp ****         }
  99:C:/Users/gabri/Documentos/UFU/2021-1/GBD/GBD-2021-1/Trabalho 2/GBDTrabalho2\main.cpp ****         return 0;   //Palavra nao inserida
 700              		.loc 2 99 16
 701 01cd B8000000 		movl	$0, %eax
 701      00
 702              	.L19:
 100:C:/Users/gabri/Documentos/UFU/2021-1/GBD/GBD-2021-1/Trabalho 2/GBDTrabalho2\main.cpp ****     }
 703              		.loc 2 100 5
 704 01d2 4883C440 		addq	$64, %rsp
 705 01d6 5D       		popq	%rbp
 706              		.cfi_restore 6
 707              		.cfi_def_cfa 7, 8
 708 01d7 C3       		ret
 709              		.cfi_endproc
 710              	.LFE8820:
 711              		.seh_endproc
 712 01d8 90909090 		.section .rdata,"dr"
 712      90909090 
 713 016e 0000     		.align 8
 714              	.LC7:
 715 0170 50726F62 		.ascii "Problema ao configurar o no anterior.\12\0"
 715      6C656D61 
 715      20616F20 
 715      636F6E66 
 715      69677572 
 716              		.section	.text$_ZN10MeuArquivo13proximoOffsetEii,"x"
 717              		.linkonce discard
 718              		.align 2
 719              		.globl	_ZN10MeuArquivo13proximoOffsetEii
 721              		.seh_proc	_ZN10MeuArquivo13proximoOffsetEii
 722              	_ZN10MeuArquivo13proximoOffsetEii:
 723              	.LFB8821:
 101:C:/Users/gabri/Documentos/UFU/2021-1/GBD/GBD-2021-1/Trabalho 2/GBDTrabalho2\main.cpp **** 
 102:C:/Users/gabri/Documentos/UFU/2021-1/GBD/GBD-2021-1/Trabalho 2/GBDTrabalho2\main.cpp ****     void proximoOffset(int desloc, int proxDesloc) {
 724              		.loc 2 102 10
 725              		.cfi_startproc
 726 0000 55       		pushq	%rbp
 727              		.seh_pushreg	%rbp
 728              		.cfi_def_cfa_offset 16
 729              		.cfi_offset 6, -16
 730 0001 4889E5   		movq	%rsp, %rbp
 731              		.seh_setframe	%rbp, 0
 732              		.cfi_def_cfa_register 6
 733 0004 4883EC30 		subq	$48, %rsp
 734              		.seh_stackalloc	48
 735              		.seh_endprologue
 736 0008 48894D10 		movq	%rcx, 16(%rbp)
 737 000c 895518   		movl	%edx, 24(%rbp)
 738 000f 44894520 		movl	%r8d, 32(%rbp)
 739              	.LBB7:
 103:C:/Users/gabri/Documentos/UFU/2021-1/GBD/GBD-2021-1/Trabalho 2/GBDTrabalho2\main.cpp ****         if(desloc != 0) {
 740              		.loc 2 103 9
 741 0013 837D1800 		cmpl	$0, 24(%rbp)
GAS LISTING C:\Users\gabri\AppData\Local\Temp\cc5DSkcw.s 			page 24


 742 0017 0F84A700 		je	.L21
 742      0000
 743              	.LBB8:
 104:C:/Users/gabri/Documentos/UFU/2021-1/GBD/GBD-2021-1/Trabalho 2/GBDTrabalho2\main.cpp ****             removeRegistro tempStruct;
 105:C:/Users/gabri/Documentos/UFU/2021-1/GBD/GBD-2021-1/Trabalho 2/GBDTrabalho2\main.cpp **** 
 106:C:/Users/gabri/Documentos/UFU/2021-1/GBD/GBD-2021-1/Trabalho 2/GBDTrabalho2\main.cpp ****             fseek(fd, desloc, SEEK_SET);
 744              		.loc 2 106 18
 745 001d 488B4510 		movq	16(%rbp), %rax
 746 0021 488B4010 		movq	16(%rax), %rax
 747 0025 8B5518   		movl	24(%rbp), %edx
 748 0028 41B80000 		movl	$0, %r8d
 748      0000
 749 002e 4889C1   		movq	%rax, %rcx
 750 0031 E8000000 		call	fseek
 750      00
 107:C:/Users/gabri/Documentos/UFU/2021-1/GBD/GBD-2021-1/Trabalho 2/GBDTrabalho2\main.cpp ****             fread(&tempStruct, sizeof(removeRegistro), 1, fd);
 751              		.loc 2 107 18
 752 0036 488B4510 		movq	16(%rbp), %rax
 753 003a 488B5010 		movq	16(%rax), %rdx
 754 003e 488D45F8 		leaq	-8(%rbp), %rax
 755 0042 4989D1   		movq	%rdx, %r9
 756 0045 41B80100 		movl	$1, %r8d
 756      0000
 757 004b BA080000 		movl	$8, %edx
 757      00
 758 0050 4889C1   		movq	%rax, %rcx
 759 0053 E8000000 		call	fread
 759      00
 108:C:/Users/gabri/Documentos/UFU/2021-1/GBD/GBD-2021-1/Trabalho 2/GBDTrabalho2\main.cpp **** 
 109:C:/Users/gabri/Documentos/UFU/2021-1/GBD/GBD-2021-1/Trabalho 2/GBDTrabalho2\main.cpp ****             tempStruct.prox = proxDesloc;
 760              		.loc 2 109 29
 761 0058 8B4520   		movl	32(%rbp), %eax
 762 005b 8945F8   		movl	%eax, -8(%rbp)
 110:C:/Users/gabri/Documentos/UFU/2021-1/GBD/GBD-2021-1/Trabalho 2/GBDTrabalho2\main.cpp **** 
 111:C:/Users/gabri/Documentos/UFU/2021-1/GBD/GBD-2021-1/Trabalho 2/GBDTrabalho2\main.cpp ****             fseek(fd, -sizeof(removeRegistro), SEEK_CUR);
 763              		.loc 2 111 18
 764 005e 488B4510 		movq	16(%rbp), %rax
 765 0062 488B4010 		movq	16(%rax), %rax
 766 0066 41B80100 		movl	$1, %r8d
 766      0000
 767 006c BAF8FFFF 		movl	$-8, %edx
 767      FF
 768 0071 4889C1   		movq	%rax, %rcx
 769 0074 E8000000 		call	fseek
 769      00
 112:C:/Users/gabri/Documentos/UFU/2021-1/GBD/GBD-2021-1/Trabalho 2/GBDTrabalho2\main.cpp ****             if(fwrite(&tempStruct, sizeof(removeRegistro), 1, fd) != 1) {
 770              		.loc 2 112 22
 771 0079 488B4510 		movq	16(%rbp), %rax
 772 007d 488B5010 		movq	16(%rax), %rdx
 773 0081 488D45F8 		leaq	-8(%rbp), %rax
 774 0085 4989D1   		movq	%rdx, %r9
 775 0088 41B80100 		movl	$1, %r8d
 775      0000
 776 008e BA080000 		movl	$8, %edx
 776      00
 777 0093 4889C1   		movq	%rax, %rcx
 778 0096 E8000000 		call	fwrite
GAS LISTING C:\Users\gabri\AppData\Local\Temp\cc5DSkcw.s 			page 25


 778      00
 779              		.loc 2 112 67
 780 009b 4883F801 		cmpq	$1, %rax
 781 009f 0F95C0   		setne	%al
 782              		.loc 2 112 13
 783 00a2 84C0     		testb	%al, %al
 784 00a4 740C     		je	.L22
 113:C:/Users/gabri/Documentos/UFU/2021-1/GBD/GBD-2021-1/Trabalho 2/GBDTrabalho2\main.cpp ****                 printf("Problema ao configurar o no anterior.\n");
 785              		.loc 2 113 23
 786 00a6 488D0D70 		leaq	.LC7(%rip), %rcx
 786      010000
 787 00ad E8000000 		call	_Z6printfPKcz
 787      00
 788              	.L22:
 114:C:/Users/gabri/Documentos/UFU/2021-1/GBD/GBD-2021-1/Trabalho 2/GBDTrabalho2\main.cpp ****             }
 115:C:/Users/gabri/Documentos/UFU/2021-1/GBD/GBD-2021-1/Trabalho 2/GBDTrabalho2\main.cpp ****             fflush(fd);
 789              		.loc 2 115 19
 790 00b2 488B4510 		movq	16(%rbp), %rax
 791 00b6 488B4010 		movq	16(%rax), %rax
 792 00ba 4889C1   		movq	%rax, %rcx
 793 00bd E8000000 		call	fflush
 793      00
 794              	.LBE8:
 795              	.LBE7:
 116:C:/Users/gabri/Documentos/UFU/2021-1/GBD/GBD-2021-1/Trabalho 2/GBDTrabalho2\main.cpp ****         }else{
 117:C:/Users/gabri/Documentos/UFU/2021-1/GBD/GBD-2021-1/Trabalho 2/GBDTrabalho2\main.cpp ****             cabecalho.disponivel = proxDesloc;
 118:C:/Users/gabri/Documentos/UFU/2021-1/GBD/GBD-2021-1/Trabalho 2/GBDTrabalho2\main.cpp ****         }
 119:C:/Users/gabri/Documentos/UFU/2021-1/GBD/GBD-2021-1/Trabalho 2/GBDTrabalho2\main.cpp ****     }
 796              		.loc 2 119 5
 797 00c2 EB0A     		jmp	.L24
 798              	.L21:
 799              	.LBB9:
 117:C:/Users/gabri/Documentos/UFU/2021-1/GBD/GBD-2021-1/Trabalho 2/GBDTrabalho2\main.cpp ****         }
 800              		.loc 2 117 34
 801 00c4 488B4510 		movq	16(%rbp), %rax
 802 00c8 8B5520   		movl	32(%rbp), %edx
 803 00cb 895004   		movl	%edx, 4(%rax)
 804              	.L24:
 805              	.LBE9:
 806              		.loc 2 119 5
 807 00ce 90       		nop
 808 00cf 4883C430 		addq	$48, %rsp
 809 00d3 5D       		popq	%rbp
 810              		.cfi_restore 6
 811              		.cfi_def_cfa 7, 8
 812 00d4 C3       		ret
 813              		.cfi_endproc
 814              	.LFE8821:
 815              		.seh_endproc
 816 00d5 90909090 		.section	.text$_ZN10MeuArquivo17atualizaCabecalhoEi,"x"
 816      90909090 
 816      909090
 817              		.linkonce discard
 818              		.align 2
 819              		.globl	_ZN10MeuArquivo17atualizaCabecalhoEi
 821              		.seh_proc	_ZN10MeuArquivo17atualizaCabecalhoEi
 822              	_ZN10MeuArquivo17atualizaCabecalhoEi:
GAS LISTING C:\Users\gabri\AppData\Local\Temp\cc5DSkcw.s 			page 26


 823              	.LFB8822:
 120:C:/Users/gabri/Documentos/UFU/2021-1/GBD/GBD-2021-1/Trabalho 2/GBDTrabalho2\main.cpp **** 
 121:C:/Users/gabri/Documentos/UFU/2021-1/GBD/GBD-2021-1/Trabalho 2/GBDTrabalho2\main.cpp ****     void atualizaCabecalho(int delta) {
 824              		.loc 2 121 10
 825              		.cfi_startproc
 826 0000 55       		pushq	%rbp
 827              		.seh_pushreg	%rbp
 828              		.cfi_def_cfa_offset 16
 829              		.cfi_offset 6, -16
 830 0001 4889E5   		movq	%rsp, %rbp
 831              		.seh_setframe	%rbp, 0
 832              		.cfi_def_cfa_register 6
 833              		.seh_endprologue
 834 0004 48894D10 		movq	%rcx, 16(%rbp)
 835 0008 895518   		movl	%edx, 24(%rbp)
 122:C:/Users/gabri/Documentos/UFU/2021-1/GBD/GBD-2021-1/Trabalho 2/GBDTrabalho2\main.cpp ****         cabecalho.quantidade += delta;
 836              		.loc 2 122 30
 837 000b 488B4510 		movq	16(%rbp), %rax
 838 000f 8B10     		movl	(%rax), %edx
 839 0011 8B4518   		movl	24(%rbp), %eax
 840 0014 01C2     		addl	%eax, %edx
 841 0016 488B4510 		movq	16(%rbp), %rax
 842 001a 8910     		movl	%edx, (%rax)
 123:C:/Users/gabri/Documentos/UFU/2021-1/GBD/GBD-2021-1/Trabalho 2/GBDTrabalho2\main.cpp ****     }
 843              		.loc 2 123 5
 844 001c 90       		nop
 845 001d 5D       		popq	%rbp
 846              		.cfi_restore 6
 847              		.cfi_def_cfa 7, 8
 848 001e C3       		ret
 849              		.cfi_endproc
 850              	.LFE8822:
 851              		.seh_endproc
 852 001f 90       		.section .rdata,"dr"
 853 0197 00       		.align 8
 854              	.LC8:
 855 0198 4E616F20 		.ascii "Nao foi possivel remover a palavra.\0"
 855      666F6920 
 855      706F7373 
 855      6976656C 
 855      2072656D 
 856              	.LC9:
 857 01bc 4E616F20 		.ascii "Nao foi possivel remover.\0"
 857      666F6920 
 857      706F7373 
 857      6976656C 
 857      2072656D 
 858              		.section	.text$_ZN10MeuArquivo13removePalavraEi,"x"
 859              		.linkonce discard
 860              		.align 2
 861              		.globl	_ZN10MeuArquivo13removePalavraEi
 863              		.seh_proc	_ZN10MeuArquivo13removePalavraEi
 864              	_ZN10MeuArquivo13removePalavraEi:
 865              	.LFB8823:
 124:C:/Users/gabri/Documentos/UFU/2021-1/GBD/GBD-2021-1/Trabalho 2/GBDTrabalho2\main.cpp **** 
 125:C:/Users/gabri/Documentos/UFU/2021-1/GBD/GBD-2021-1/Trabalho 2/GBDTrabalho2\main.cpp ****     // Marca registro como removido, atualiza lista de disponveis, incluindo o cabecalho
 126:C:/Users/gabri/Documentos/UFU/2021-1/GBD/GBD-2021-1/Trabalho 2/GBDTrabalho2\main.cpp ****     void removePalavra(int offset) {
GAS LISTING C:\Users\gabri\AppData\Local\Temp\cc5DSkcw.s 			page 27


 866              		.loc 2 126 10
 867              		.cfi_startproc
 868 0000 55       		pushq	%rbp
 869              		.seh_pushreg	%rbp
 870              		.cfi_def_cfa_offset 16
 871              		.cfi_offset 6, -16
 872 0001 4889E5   		movq	%rsp, %rbp
 873              		.seh_setframe	%rbp, 0
 874              		.cfi_def_cfa_register 6
 875 0004 4883EC30 		subq	$48, %rsp
 876              		.seh_stackalloc	48
 877              		.seh_endprologue
 878 0008 48894D10 		movq	%rcx, 16(%rbp)
 879 000c 895518   		movl	%edx, 24(%rbp)
 127:C:/Users/gabri/Documentos/UFU/2021-1/GBD/GBD-2021-1/Trabalho 2/GBDTrabalho2\main.cpp ****         fseek(fd, 0, SEEK_END);
 880              		.loc 2 127 14
 881 000f 488B4510 		movq	16(%rbp), %rax
 882 0013 488B4010 		movq	16(%rax), %rax
 883 0017 41B80200 		movl	$2, %r8d
 883      0000
 884 001d BA000000 		movl	$0, %edx
 884      00
 885 0022 4889C1   		movq	%rax, %rcx
 886 0025 E8000000 		call	fseek
 886      00
 128:C:/Users/gabri/Documentos/UFU/2021-1/GBD/GBD-2021-1/Trabalho 2/GBDTrabalho2\main.cpp ****         int tamanhoArquivo = ftell(fd);
 887              		.loc 2 128 35
 888 002a 488B4510 		movq	16(%rbp), %rax
 889 002e 488B4010 		movq	16(%rax), %rax
 890 0032 4889C1   		movq	%rax, %rcx
 891 0035 E8000000 		call	ftell
 891      00
 892 003a 8945FC   		movl	%eax, -4(%rbp)
 893              	.LBB10:
 129:C:/Users/gabri/Documentos/UFU/2021-1/GBD/GBD-2021-1/Trabalho 2/GBDTrabalho2\main.cpp ****         if(!cabecalho.quantidade || tamanhoArquivo <= offset){  //Verifica se ha espacos ocupados n
 894              		.loc 2 129 23
 895 003d 488B4510 		movq	16(%rbp), %rax
 896 0041 8B00     		movl	(%rax), %eax
 897              		.loc 2 129 9
 898 0043 85C0     		testl	%eax, %eax
 899 0045 7408     		je	.L27
 900              		.loc 2 129 34 discriminator 1
 901 0047 8B45FC   		movl	-4(%rbp), %eax
 902 004a 3B4518   		cmpl	24(%rbp), %eax
 903 004d 7F27     		jg	.L28
 904              	.L27:
 130:C:/Users/gabri/Documentos/UFU/2021-1/GBD/GBD-2021-1/Trabalho 2/GBDTrabalho2\main.cpp ****             cout << "Nao foi possivel remover a palavra." << endl;
 905              		.loc 2 130 21
 906 004f 488D1598 		leaq	.LC8(%rip), %rdx
 906      010000
 907 0056 488B0D00 		movq	.refptr._ZSt4cout(%rip), %rcx
 907      000000
 908 005d E8000000 		call	_ZStlsISt11char_traitsIcEERSt13basic_ostreamIcT_ES5_PKc
 908      00
 909              		.loc 2 130 62
 910 0062 488B1500 		movq	.refptr._ZSt4endlIcSt11char_traitsIcEERSt13basic_ostreamIT_T0_ES6_(%rip), %rdx
 910      000000
GAS LISTING C:\Users\gabri\AppData\Local\Temp\cc5DSkcw.s 			page 28


 911 0069 4889C1   		movq	%rax, %rcx
 912 006c E8000000 		call	_ZNSolsEPFRSoS_E
 912      00
 131:C:/Users/gabri/Documentos/UFU/2021-1/GBD/GBD-2021-1/Trabalho 2/GBDTrabalho2\main.cpp ****             return; //Para a execucao da funcao
 913              		.loc 2 131 13
 914 0071 E9F00000 		jmp	.L26
 914      00
 915              	.L28:
 916              	.LBB11:
 132:C:/Users/gabri/Documentos/UFU/2021-1/GBD/GBD-2021-1/Trabalho 2/GBDTrabalho2\main.cpp ****         }else{
 133:C:/Users/gabri/Documentos/UFU/2021-1/GBD/GBD-2021-1/Trabalho 2/GBDTrabalho2\main.cpp ****             removeRegistro remRegistro;
 134:C:/Users/gabri/Documentos/UFU/2021-1/GBD/GBD-2021-1/Trabalho 2/GBDTrabalho2\main.cpp ****             fseek(fd, offset, SEEK_SET);
 917              		.loc 2 134 18
 918 0076 488B4510 		movq	16(%rbp), %rax
 919 007a 488B4010 		movq	16(%rax), %rax
 920 007e 8B5518   		movl	24(%rbp), %edx
 921 0081 41B80000 		movl	$0, %r8d
 921      0000
 922 0087 4889C1   		movq	%rax, %rcx
 923 008a E8000000 		call	fseek
 923      00
 135:C:/Users/gabri/Documentos/UFU/2021-1/GBD/GBD-2021-1/Trabalho 2/GBDTrabalho2\main.cpp ****             fread(&remRegistro.tamanho, sizeof(int), 1, fd);
 924              		.loc 2 135 18
 925 008f 488B4510 		movq	16(%rbp), %rax
 926 0093 488B5010 		movq	16(%rax), %rdx
 927 0097 488D45F4 		leaq	-12(%rbp), %rax
 928 009b 4883C004 		addq	$4, %rax
 929 009f 4989D1   		movq	%rdx, %r9
 930 00a2 41B80100 		movl	$1, %r8d
 930      0000
 931 00a8 BA040000 		movl	$4, %edx
 931      00
 932 00ad 4889C1   		movq	%rax, %rcx
 933 00b0 E8000000 		call	fread
 933      00
 136:C:/Users/gabri/Documentos/UFU/2021-1/GBD/GBD-2021-1/Trabalho 2/GBDTrabalho2\main.cpp ****             remRegistro.prox = cabecalho.disponivel;
 934              		.loc 2 136 42
 935 00b5 488B4510 		movq	16(%rbp), %rax
 936 00b9 8B4004   		movl	4(%rax), %eax
 937              		.loc 2 136 30
 938 00bc 8945F4   		movl	%eax, -12(%rbp)
 137:C:/Users/gabri/Documentos/UFU/2021-1/GBD/GBD-2021-1/Trabalho 2/GBDTrabalho2\main.cpp ****             fseek(fd, offset - ftell(fd), SEEK_CUR);
 939              		.loc 2 137 37
 940 00bf 488B4510 		movq	16(%rbp), %rax
 941 00c3 488B4010 		movq	16(%rax), %rax
 942 00c7 4889C1   		movq	%rax, %rcx
 943 00ca E8000000 		call	ftell
 943      00
 944 00cf 89C2     		movl	%eax, %edx
 945              		.loc 2 137 18
 946 00d1 8B4518   		movl	24(%rbp), %eax
 947 00d4 29D0     		subl	%edx, %eax
 948 00d6 89C2     		movl	%eax, %edx
 949 00d8 488B4510 		movq	16(%rbp), %rax
 950 00dc 488B4010 		movq	16(%rax), %rax
 951 00e0 41B80100 		movl	$1, %r8d
 951      0000
GAS LISTING C:\Users\gabri\AppData\Local\Temp\cc5DSkcw.s 			page 29


 952 00e6 4889C1   		movq	%rax, %rcx
 953 00e9 E8000000 		call	fseek
 953      00
 138:C:/Users/gabri/Documentos/UFU/2021-1/GBD/GBD-2021-1/Trabalho 2/GBDTrabalho2\main.cpp **** 
 139:C:/Users/gabri/Documentos/UFU/2021-1/GBD/GBD-2021-1/Trabalho 2/GBDTrabalho2\main.cpp ****             if(fwrite(&remRegistro, sizeof(removeRegistro), 1, fd) != 1) {
 954              		.loc 2 139 22
 955 00ee 488B4510 		movq	16(%rbp), %rax
 956 00f2 488B5010 		movq	16(%rax), %rdx
 957 00f6 488D45F4 		leaq	-12(%rbp), %rax
 958 00fa 4989D1   		movq	%rdx, %r9
 959 00fd 41B80100 		movl	$1, %r8d
 959      0000
 960 0103 BA080000 		movl	$8, %edx
 960      00
 961 0108 4889C1   		movq	%rax, %rcx
 962 010b E8000000 		call	fwrite
 962      00
 963              		.loc 2 139 68
 964 0110 4883F801 		cmpq	$1, %rax
 965 0114 0F95C0   		setne	%al
 966              		.loc 2 139 13
 967 0117 84C0     		testb	%al, %al
 968 0119 7422     		je	.L30
 140:C:/Users/gabri/Documentos/UFU/2021-1/GBD/GBD-2021-1/Trabalho 2/GBDTrabalho2\main.cpp ****                 cout << "Nao foi possivel remover." << endl;
 969              		.loc 2 140 25
 970 011b 488D15BC 		leaq	.LC9(%rip), %rdx
 970      010000
 971 0122 488B0D00 		movq	.refptr._ZSt4cout(%rip), %rcx
 971      000000
 972 0129 E8000000 		call	_ZStlsISt11char_traitsIcEERSt13basic_ostreamIcT_ES5_PKc
 972      00
 973              		.loc 2 140 56
 974 012e 488B1500 		movq	.refptr._ZSt4endlIcSt11char_traitsIcEERSt13basic_ostreamIT_T0_ES6_(%rip), %rdx
 974      000000
 975 0135 4889C1   		movq	%rax, %rcx
 976 0138 E8000000 		call	_ZNSolsEPFRSoS_E
 976      00
 977              	.L30:
 141:C:/Users/gabri/Documentos/UFU/2021-1/GBD/GBD-2021-1/Trabalho 2/GBDTrabalho2\main.cpp ****             }
 142:C:/Users/gabri/Documentos/UFU/2021-1/GBD/GBD-2021-1/Trabalho 2/GBDTrabalho2\main.cpp ****             fflush(fd);
 978              		.loc 2 142 19
 979 013d 488B4510 		movq	16(%rbp), %rax
 980 0141 488B4010 		movq	16(%rax), %rax
 981 0145 4889C1   		movq	%rax, %rcx
 982 0148 E8000000 		call	fflush
 982      00
 143:C:/Users/gabri/Documentos/UFU/2021-1/GBD/GBD-2021-1/Trabalho 2/GBDTrabalho2\main.cpp ****             cabecalho.disponivel = offset;
 983              		.loc 2 143 34
 984 014d 488B4510 		movq	16(%rbp), %rax
 985 0151 8B5518   		movl	24(%rbp), %edx
 986 0154 895004   		movl	%edx, 4(%rax)
 144:C:/Users/gabri/Documentos/UFU/2021-1/GBD/GBD-2021-1/Trabalho 2/GBDTrabalho2\main.cpp ****             atualizaCabecalho(-1);
 987              		.loc 2 144 30
 988 0157 BAFFFFFF 		movl	$-1, %edx
 988      FF
 989 015c 488B4D10 		movq	16(%rbp), %rcx
 990 0160 E8000000 		call	_ZN10MeuArquivo17atualizaCabecalhoEi
GAS LISTING C:\Users\gabri\AppData\Local\Temp\cc5DSkcw.s 			page 30


 990      00
 991 0165 90       		nop
 992              	.L26:
 993              	.LBE11:
 994              	.LBE10:
 145:C:/Users/gabri/Documentos/UFU/2021-1/GBD/GBD-2021-1/Trabalho 2/GBDTrabalho2\main.cpp ****         }
 146:C:/Users/gabri/Documentos/UFU/2021-1/GBD/GBD-2021-1/Trabalho 2/GBDTrabalho2\main.cpp **** 
 147:C:/Users/gabri/Documentos/UFU/2021-1/GBD/GBD-2021-1/Trabalho 2/GBDTrabalho2\main.cpp ****     }
 995              		.loc 2 147 5
 996 0166 4883C430 		addq	$48, %rsp
 997 016a 5D       		popq	%rbp
 998              		.cfi_restore 6
 999              		.cfi_def_cfa 7, 8
 1000 016b C3       		ret
 1001              		.cfi_endproc
 1002              	.LFE8823:
 1003              		.seh_endproc
 1004 016c 90909090 		.section .rdata,"dr"
 1005              	.LC10:
 1006 01d6 41207061 		.ascii "A palavra \0"
 1006      6C617672 
 1006      612000
 1007              	.LC11:
 1008 01e1 20666F69 		.ascii " foi encontrada\0"
 1008      20656E63 
 1008      6F6E7472 
 1008      61646100 
 1009              		.section	.text$_ZN10MeuArquivo12buscaPalavraEPc,"x"
 1010              		.linkonce discard
 1011              		.align 2
 1012              		.globl	_ZN10MeuArquivo12buscaPalavraEPc
 1014              		.seh_proc	_ZN10MeuArquivo12buscaPalavraEPc
 1015              	_ZN10MeuArquivo12buscaPalavraEPc:
 1016              	.LFB8824:
 148:C:/Users/gabri/Documentos/UFU/2021-1/GBD/GBD-2021-1/Trabalho 2/GBDTrabalho2\main.cpp **** 
 149:C:/Users/gabri/Documentos/UFU/2021-1/GBD/GBD-2021-1/Trabalho 2/GBDTrabalho2\main.cpp ****     // BuscaPalavra: retorno  o offset para o registro
 150:C:/Users/gabri/Documentos/UFU/2021-1/GBD/GBD-2021-1/Trabalho 2/GBDTrabalho2\main.cpp ****     // Nao deve considerar registro removido
 151:C:/Users/gabri/Documentos/UFU/2021-1/GBD/GBD-2021-1/Trabalho 2/GBDTrabalho2\main.cpp ****     int buscaPalavra(char *palavra) {
 1017              		.loc 2 151 9
 1018              		.cfi_startproc
 1019 0000 55       		pushq	%rbp
 1020              		.seh_pushreg	%rbp
 1021              		.cfi_def_cfa_offset 16
 1022              		.cfi_offset 6, -16
 1023 0001 4889E5   		movq	%rsp, %rbp
 1024              		.seh_setframe	%rbp, 0
 1025              		.cfi_def_cfa_register 6
 1026 0004 4881EC90 		subq	$144, %rsp
 1026      000000
 1027              		.seh_stackalloc	144
 1028              		.seh_endprologue
 1029 000b 48894D10 		movq	%rcx, 16(%rbp)
 1030 000f 48895518 		movq	%rdx, 24(%rbp)
 152:C:/Users/gabri/Documentos/UFU/2021-1/GBD/GBD-2021-1/Trabalho 2/GBDTrabalho2\main.cpp ****         this->substituiBarraNporBarraZero(palavra); // funcao auxiliar substitui terminador por \0
 1031              		.loc 2 152 42
 1032 0013 488B4518 		movq	24(%rbp), %rax
 1033 0017 4889C2   		movq	%rax, %rdx
GAS LISTING C:\Users\gabri\AppData\Local\Temp\cc5DSkcw.s 			page 31


 1034 001a 488B4D10 		movq	16(%rbp), %rcx
 1035 001e E8000000 		call	_ZN10MeuArquivo27substituiBarraNporBarraZeroEPc
 1035      00
 153:C:/Users/gabri/Documentos/UFU/2021-1/GBD/GBD-2021-1/Trabalho 2/GBDTrabalho2\main.cpp **** 
 154:C:/Users/gabri/Documentos/UFU/2021-1/GBD/GBD-2021-1/Trabalho 2/GBDTrabalho2\main.cpp ****         char str[75];
 155:C:/Users/gabri/Documentos/UFU/2021-1/GBD/GBD-2021-1/Trabalho 2/GBDTrabalho2\main.cpp ****         int tamanhoPalavra;
 156:C:/Users/gabri/Documentos/UFU/2021-1/GBD/GBD-2021-1/Trabalho 2/GBDTrabalho2\main.cpp ****         int posicao = sizeof(cabecalho);
 1036              		.loc 2 156 13
 1037 0023 C745FC08 		movl	$8, -4(%rbp)
 1037      000000
 157:C:/Users/gabri/Documentos/UFU/2021-1/GBD/GBD-2021-1/Trabalho 2/GBDTrabalho2\main.cpp **** 
 158:C:/Users/gabri/Documentos/UFU/2021-1/GBD/GBD-2021-1/Trabalho 2/GBDTrabalho2\main.cpp ****         fseek(fd, 0, SEEK_END);
 1038              		.loc 2 158 14
 1039 002a 488B4510 		movq	16(%rbp), %rax
 1040 002e 488B4010 		movq	16(%rax), %rax
 1041 0032 41B80200 		movl	$2, %r8d
 1041      0000
 1042 0038 BA000000 		movl	$0, %edx
 1042      00
 1043 003d 4889C1   		movq	%rax, %rcx
 1044 0040 E8000000 		call	fseek
 1044      00
 159:C:/Users/gabri/Documentos/UFU/2021-1/GBD/GBD-2021-1/Trabalho 2/GBDTrabalho2\main.cpp ****         int finalArquivo = ftell(fd);
 1045              		.loc 2 159 33
 1046 0045 488B4510 		movq	16(%rbp), %rax
 1047 0049 488B4010 		movq	16(%rax), %rax
 1048 004d 4889C1   		movq	%rax, %rcx
 1049 0050 E8000000 		call	ftell
 1049      00
 1050 0055 8945F8   		movl	%eax, -8(%rbp)
 160:C:/Users/gabri/Documentos/UFU/2021-1/GBD/GBD-2021-1/Trabalho 2/GBDTrabalho2\main.cpp **** 
 161:C:/Users/gabri/Documentos/UFU/2021-1/GBD/GBD-2021-1/Trabalho 2/GBDTrabalho2\main.cpp ****         fseek(fd, posicao, SEEK_SET);
 1051              		.loc 2 161 14
 1052 0058 488B4510 		movq	16(%rbp), %rax
 1053 005c 488B4010 		movq	16(%rax), %rax
 1054 0060 8B55FC   		movl	-4(%rbp), %edx
 1055 0063 41B80000 		movl	$0, %r8d
 1055      0000
 1056 0069 4889C1   		movq	%rax, %rcx
 1057 006c E8000000 		call	fseek
 1057      00
 1058              	.L37:
 162:C:/Users/gabri/Documentos/UFU/2021-1/GBD/GBD-2021-1/Trabalho 2/GBDTrabalho2\main.cpp **** 
 163:C:/Users/gabri/Documentos/UFU/2021-1/GBD/GBD-2021-1/Trabalho 2/GBDTrabalho2\main.cpp ****         while(posicao < finalArquivo) {
 1059              		.loc 2 163 23
 1060 0071 8B45FC   		movl	-4(%rbp), %eax
 1061 0074 3B45F8   		cmpl	-8(%rbp), %eax
 1062 0077 0F8DD600 		jge	.L32
 1062      0000
 164:C:/Users/gabri/Documentos/UFU/2021-1/GBD/GBD-2021-1/Trabalho 2/GBDTrabalho2\main.cpp ****             fread(&tamanhoPalavra, sizeof(int), 1, fd);
 1063              		.loc 2 164 18
 1064 007d 488B4510 		movq	16(%rbp), %rax
 1065 0081 488B5010 		movq	16(%rax), %rdx
 1066 0085 488D459C 		leaq	-100(%rbp), %rax
 1067 0089 4989D1   		movq	%rdx, %r9
 1068 008c 41B80100 		movl	$1, %r8d
 1068      0000
GAS LISTING C:\Users\gabri\AppData\Local\Temp\cc5DSkcw.s 			page 32


 1069 0092 BA040000 		movl	$4, %edx
 1069      00
 1070 0097 4889C1   		movq	%rax, %rcx
 1071 009a E8000000 		call	fread
 1071      00
 165:C:/Users/gabri/Documentos/UFU/2021-1/GBD/GBD-2021-1/Trabalho 2/GBDTrabalho2\main.cpp ****             fread(str, sizeof(char), tamanhoPalavra, fd);
 1072              		.loc 2 165 18
 1073 009f 488B4510 		movq	16(%rbp), %rax
 1074 00a3 488B4810 		movq	16(%rax), %rcx
 1075 00a7 8B459C   		movl	-100(%rbp), %eax
 1076 00aa 4863D0   		movslq	%eax, %rdx
 1077 00ad 488D45A0 		leaq	-96(%rbp), %rax
 1078 00b1 4989C9   		movq	%rcx, %r9
 1079 00b4 4989D0   		movq	%rdx, %r8
 1080 00b7 BA010000 		movl	$1, %edx
 1080      00
 1081 00bc 4889C1   		movq	%rax, %rcx
 1082 00bf E8000000 		call	fread
 1082      00
 166:C:/Users/gabri/Documentos/UFU/2021-1/GBD/GBD-2021-1/Trabalho 2/GBDTrabalho2\main.cpp ****             this -> substituiBarraNporBarraZero(str);
 1083              		.loc 2 166 48
 1084 00c4 488D45A0 		leaq	-96(%rbp), %rax
 1085 00c8 4889C2   		movq	%rax, %rdx
 1086 00cb 488B4D10 		movq	16(%rbp), %rcx
 1087 00cf E8000000 		call	_ZN10MeuArquivo27substituiBarraNporBarraZeroEPc
 1087      00
 167:C:/Users/gabri/Documentos/UFU/2021-1/GBD/GBD-2021-1/Trabalho 2/GBDTrabalho2\main.cpp **** 
 168:C:/Users/gabri/Documentos/UFU/2021-1/GBD/GBD-2021-1/Trabalho 2/GBDTrabalho2\main.cpp ****             if(str[0] == '*') {
 1088              		.loc 2 168 21
 1089 00d4 0FB645A0 		movzbl	-96(%rbp), %eax
 1090              		.loc 2 168 13
 1091 00d8 3C2A     		cmpb	$42, %al
 1092 00da 7471     		je	.L39
 169:C:/Users/gabri/Documentos/UFU/2021-1/GBD/GBD-2021-1/Trabalho 2/GBDTrabalho2\main.cpp ****                 continue;       //Ignora a string encontrada, por ser considerada vazia para a busc
 170:C:/Users/gabri/Documentos/UFU/2021-1/GBD/GBD-2021-1/Trabalho 2/GBDTrabalho2\main.cpp ****             }else{
 171:C:/Users/gabri/Documentos/UFU/2021-1/GBD/GBD-2021-1/Trabalho 2/GBDTrabalho2\main.cpp ****                 if(!strcmp(str, palavra)) {     //Verifica se string string atual eh igual a string
 1093              		.loc 2 171 27
 1094 00dc 488B5518 		movq	24(%rbp), %rdx
 1095 00e0 488D45A0 		leaq	-96(%rbp), %rax
 1096 00e4 4889C1   		movq	%rax, %rcx
 1097 00e7 E8000000 		call	strcmp
 1097      00
 1098              		.loc 2 171 17
 1099 00ec 85C0     		testl	%eax, %eax
 1100 00ee 7545     		jne	.L35
 172:C:/Users/gabri/Documentos/UFU/2021-1/GBD/GBD-2021-1/Trabalho 2/GBDTrabalho2\main.cpp ****                     cout << "A palavra " << palavra << " foi encontrada" << endl;
 1101              		.loc 2 172 56
 1102 00f0 488D15D6 		leaq	.LC10(%rip), %rdx
 1102      010000
 1103 00f7 488B0D00 		movq	.refptr._ZSt4cout(%rip), %rcx
 1103      000000
 1104 00fe E8000000 		call	_ZStlsISt11char_traitsIcEERSt13basic_ostreamIcT_ES5_PKc
 1104      00
 1105 0103 4889C1   		movq	%rax, %rcx
 1106 0106 488B4518 		movq	24(%rbp), %rax
 1107 010a 4889C2   		movq	%rax, %rdx
 1108 010d E8000000 		call	_ZStlsISt11char_traitsIcEERSt13basic_ostreamIcT_ES5_PKc
GAS LISTING C:\Users\gabri\AppData\Local\Temp\cc5DSkcw.s 			page 33


 1108      00
 1109 0112 488D15E1 		leaq	.LC11(%rip), %rdx
 1109      010000
 1110 0119 4889C1   		movq	%rax, %rcx
 1111 011c E8000000 		call	_ZStlsISt11char_traitsIcEERSt13basic_ostreamIcT_ES5_PKc
 1111      00
 1112              		.loc 2 172 77
 1113 0121 488B1500 		movq	.refptr._ZSt4endlIcSt11char_traitsIcEERSt13basic_ostreamIT_T0_ES6_(%rip), %rdx
 1113      000000
 1114 0128 4889C1   		movq	%rax, %rcx
 1115 012b E8000000 		call	_ZNSolsEPFRSoS_E
 1115      00
 173:C:/Users/gabri/Documentos/UFU/2021-1/GBD/GBD-2021-1/Trabalho 2/GBDTrabalho2\main.cpp ****                     return posicao;
 1116              		.loc 2 173 28
 1117 0130 8B45FC   		movl	-4(%rbp), %eax
 1118 0133 EB23     		jmp	.L38
 1119              	.L35:
 174:C:/Users/gabri/Documentos/UFU/2021-1/GBD/GBD-2021-1/Trabalho 2/GBDTrabalho2\main.cpp ****                 }
 175:C:/Users/gabri/Documentos/UFU/2021-1/GBD/GBD-2021-1/Trabalho 2/GBDTrabalho2\main.cpp ****             }
 176:C:/Users/gabri/Documentos/UFU/2021-1/GBD/GBD-2021-1/Trabalho 2/GBDTrabalho2\main.cpp ****             posicao = ftell(fd);
 1120              		.loc 2 176 28
 1121 0135 488B4510 		movq	16(%rbp), %rax
 1122 0139 488B4010 		movq	16(%rax), %rax
 1123 013d 4889C1   		movq	%rax, %rcx
 1124 0140 E8000000 		call	ftell
 1124      00
 1125 0145 8945FC   		movl	%eax, -4(%rbp)
 1126 0148 E924FFFF 		jmp	.L37
 1126      FF
 1127              	.L39:
 169:C:/Users/gabri/Documentos/UFU/2021-1/GBD/GBD-2021-1/Trabalho 2/GBDTrabalho2\main.cpp ****             }else{
 1128              		.loc 2 169 17
 1129 014d 90       		nop
 163:C:/Users/gabri/Documentos/UFU/2021-1/GBD/GBD-2021-1/Trabalho 2/GBDTrabalho2\main.cpp ****             fread(&tamanhoPalavra, sizeof(int), 1, fd);
 1130              		.loc 2 163 9
 1131 014e E91EFFFF 		jmp	.L37
 1131      FF
 1132              	.L32:
 177:C:/Users/gabri/Documentos/UFU/2021-1/GBD/GBD-2021-1/Trabalho 2/GBDTrabalho2\main.cpp ****         }
 178:C:/Users/gabri/Documentos/UFU/2021-1/GBD/GBD-2021-1/Trabalho 2/GBDTrabalho2\main.cpp ****         // retornar -1 caso nao encontrar
 179:C:/Users/gabri/Documentos/UFU/2021-1/GBD/GBD-2021-1/Trabalho 2/GBDTrabalho2\main.cpp ****         return -1;
 1133              		.loc 2 179 17
 1134 0153 B8FFFFFF 		movl	$-1, %eax
 1134      FF
 1135              	.L38:
 180:C:/Users/gabri/Documentos/UFU/2021-1/GBD/GBD-2021-1/Trabalho 2/GBDTrabalho2\main.cpp ****     }
 1136              		.loc 2 180 5 discriminator 1
 1137 0158 4881C490 		addq	$144, %rsp
 1137      000000
 1138 015f 5D       		popq	%rbp
 1139              		.cfi_restore 6
 1140              		.cfi_def_cfa 7, 8
 1141 0160 C3       		ret
 1142              		.cfi_endproc
 1143              	.LFE8824:
 1144              		.seh_endproc
 1145 0161 90909090 		.section	.text$_ZN10MeuArquivo27substituiBarraNporBarraZeroEPc,"x"
GAS LISTING C:\Users\gabri\AppData\Local\Temp\cc5DSkcw.s 			page 34


 1145      90909090 
 1145      90909090 
 1145      909090
 1146              		.linkonce discard
 1147              		.align 2
 1148              		.globl	_ZN10MeuArquivo27substituiBarraNporBarraZeroEPc
 1150              		.seh_proc	_ZN10MeuArquivo27substituiBarraNporBarraZeroEPc
 1151              	_ZN10MeuArquivo27substituiBarraNporBarraZeroEPc:
 1152              	.LFB8825:
 181:C:/Users/gabri/Documentos/UFU/2021-1/GBD/GBD-2021-1/Trabalho 2/GBDTrabalho2\main.cpp **** 
 182:C:/Users/gabri/Documentos/UFU/2021-1/GBD/GBD-2021-1/Trabalho 2/GBDTrabalho2\main.cpp **** private:
 183:C:/Users/gabri/Documentos/UFU/2021-1/GBD/GBD-2021-1/Trabalho 2/GBDTrabalho2\main.cpp ****     // descritor do arquivo  privado, apenas mtodos da classe podem acessa-lo
 184:C:/Users/gabri/Documentos/UFU/2021-1/GBD/GBD-2021-1/Trabalho 2/GBDTrabalho2\main.cpp ****     FILE *fd;
 185:C:/Users/gabri/Documentos/UFU/2021-1/GBD/GBD-2021-1/Trabalho 2/GBDTrabalho2\main.cpp **** 
 186:C:/Users/gabri/Documentos/UFU/2021-1/GBD/GBD-2021-1/Trabalho 2/GBDTrabalho2\main.cpp ****     // funcao auxiliar substitui terminador por \0
 187:C:/Users/gabri/Documentos/UFU/2021-1/GBD/GBD-2021-1/Trabalho 2/GBDTrabalho2\main.cpp ****     void substituiBarraNporBarraZero(char *str) {
 1153              		.loc 2 187 10
 1154              		.cfi_startproc
 1155 0000 55       		pushq	%rbp
 1156              		.seh_pushreg	%rbp
 1157              		.cfi_def_cfa_offset 16
 1158              		.cfi_offset 6, -16
 1159 0001 4889E5   		movq	%rsp, %rbp
 1160              		.seh_setframe	%rbp, 0
 1161              		.cfi_def_cfa_register 6
 1162 0004 4883EC30 		subq	$48, %rsp
 1163              		.seh_stackalloc	48
 1164              		.seh_endprologue
 1165 0008 48894D10 		movq	%rcx, 16(%rbp)
 1166 000c 48895518 		movq	%rdx, 24(%rbp)
 188:C:/Users/gabri/Documentos/UFU/2021-1/GBD/GBD-2021-1/Trabalho 2/GBDTrabalho2\main.cpp ****         int tam = strlen(str); for (int i = 0; i < tam; i++) if (str[i] == '\n') str[i] = '\0';
 1167              		.loc 2 188 25
 1168 0010 488B4518 		movq	24(%rbp), %rax
 1169 0014 4889C1   		movq	%rax, %rcx
 1170 0017 E8000000 		call	strlen
 1170      00
 1171              		.loc 2 188 13
 1172 001c 8945F8   		movl	%eax, -8(%rbp)
 1173              	.LBB12:
 1174              		.loc 2 188 41
 1175 001f C745FC00 		movl	$0, -4(%rbp)
 1175      000000
 1176              	.L43:
 1177              		.loc 2 188 50 discriminator 6
 1178 0026 8B45FC   		movl	-4(%rbp), %eax
 1179 0029 3B45F8   		cmpl	-8(%rbp), %eax
 1180 002c 7D28     		jge	.L44
 1181              		.loc 2 188 71 discriminator 2
 1182 002e 8B45FC   		movl	-4(%rbp), %eax
 1183 0031 4898     		cltq
 1184 0033 488B5518 		movq	24(%rbp), %rdx
 1185 0037 4801D0   		addq	%rdx, %rax
 1186 003a 0FB600   		movzbl	(%rax), %eax
 1187              		.loc 2 188 62 discriminator 2
 1188 003d 3C0A     		cmpb	$10, %al
 1189 003f 750F     		jne	.L42
 1190              		.loc 2 188 87 discriminator 3
GAS LISTING C:\Users\gabri\AppData\Local\Temp\cc5DSkcw.s 			page 35


 1191 0041 8B45FC   		movl	-4(%rbp), %eax
 1192 0044 4898     		cltq
 1193 0046 488B5518 		movq	24(%rbp), %rdx
 1194 004a 4801D0   		addq	%rdx, %rax
 1195              		.loc 2 188 89 discriminator 3
 1196 004d C60000   		movb	$0, (%rax)
 1197              	.L42:
 1198              		.loc 2 188 32 discriminator 5
 1199 0050 8345FC01 		addl	$1, -4(%rbp)
 1200 0054 EBD0     		jmp	.L43
 1201              	.L44:
 1202              	.LBE12:
 189:C:/Users/gabri/Documentos/UFU/2021-1/GBD/GBD-2021-1/Trabalho 2/GBDTrabalho2\main.cpp ****     }
 1203              		.loc 2 189 5
 1204 0056 90       		nop
 1205 0057 4883C430 		addq	$48, %rsp
 1206 005b 5D       		popq	%rbp
 1207              		.cfi_restore 6
 1208              		.cfi_def_cfa 7, 8
 1209 005c C3       		ret
 1210              		.cfi_endproc
 1211              	.LFE8825:
 1212              		.seh_endproc
 1214 005d 909090   		.section .rdata,"dr"
 1215              	.LC12:
 1216 01f1 727400   		.ascii "rt\0"
 1217              	.LC13:
 1218 01f4 64696369 		.ascii "dicionario.txt\0"
 1218      6F6E6172 
 1218      696F2E74 
 1218      787400
 1219              	.LC14:
 1220 0203 4572726F 		.ascii "Erro ao abrir arquivo.\12\12\0"
 1220      20616F20 
 1220      61627269 
 1220      72206172 
 1220      71756976 
 1221              	.LC15:
 1222 021c 41727175 		.ascii "Arquivo criado.\12\12\0"
 1222      69766F20 
 1222      63726961 
 1222      646F2E0A 
 1222      0A00
 1223 022e 0000     		.align 8
 1224              	.LC16:
 1225 0230 0A0A     		.ascii "\12\12"
 1226 0232 312D496E 		.ascii "1-Insere\12"
 1226      73657265 
 1226      0A
 1227 023b 322D5265 		.ascii "2-Remove\12"
 1227      6D6F7665 
 1227      0A
 1228 0244 332D4275 		.ascii "3-Busca\12"
 1228      7363610A 
 1229 024c 342D5361 		.ascii "4-Sair\12Opcao: \0"
 1229      69720A4F 
 1229      7063616F 
GAS LISTING C:\Users\gabri\AppData\Local\Temp\cc5DSkcw.s 			page 36


 1229      3A2000
 1230              	.LC17:
 1231 025b 50616C61 		.ascii "Palavra: \0"
 1231      7672613A 
 1231      2000
 1232              	.LC18:
 1233 0265 257300   		.ascii "%s\0"
 1234              	.LC19:
 1235 0268 52656D6F 		.ascii "Removido.\12\12\0"
 1235      7669646F 
 1235      2E0A0A00 
 1236              	.LC20:
 1237 0274 456E636F 		.ascii "Encontrou %s na posicao %d\12\12\0"
 1237      6E74726F 
 1237      75202573 
 1237      206E6120 
 1237      706F7369 
 1238              	.LC21:
 1239 0291 4E616F20 		.ascii "Nao encontrou %s\12\12\0"
 1239      656E636F 
 1239      6E74726F 
 1239      75202573 
 1239      0A0A00
 1240              	.LC22:
 1241 02a4 0A0A4174 		.ascii "\12\12Ate mais!\12\12\0"
 1241      65206D61 
 1241      6973210A 
 1241      0A00
 1242 02b2 00000000 		.text
 1242      00000000 
 1242      00000000 
 1242      0000
 1243              		.globl	main
 1245              		.seh_proc	main
 1246              	main:
 1247              	.LFB8826:
 190:C:/Users/gabri/Documentos/UFU/2021-1/GBD/GBD-2021-1/Trabalho 2/GBDTrabalho2\main.cpp **** };
 191:C:/Users/gabri/Documentos/UFU/2021-1/GBD/GBD-2021-1/Trabalho 2/GBDTrabalho2\main.cpp **** 
 192:C:/Users/gabri/Documentos/UFU/2021-1/GBD/GBD-2021-1/Trabalho 2/GBDTrabalho2\main.cpp **** int main(int argc, char** argv) {
 1248              		.loc 2 192 33
 1249              		.cfi_startproc
 1250 0000 55       		pushq	%rbp
 1251              		.seh_pushreg	%rbp
 1252              		.cfi_def_cfa_offset 16
 1253              		.cfi_offset 6, -16
 1254 0001 56       		pushq	%rsi
 1255              		.seh_pushreg	%rsi
 1256              		.cfi_def_cfa_offset 24
 1257              		.cfi_offset 4, -24
 1258 0002 53       		pushq	%rbx
 1259              		.seh_pushreg	%rbx
 1260              		.cfi_def_cfa_offset 32
 1261              		.cfi_offset 3, -32
 1262 0003 4889E5   		movq	%rsp, %rbp
 1263              		.seh_setframe	%rbp, 0
 1264              		.cfi_def_cfa_register 6
 1265 0006 4883EC50 		subq	$80, %rsp
GAS LISTING C:\Users\gabri\AppData\Local\Temp\cc5DSkcw.s 			page 37


 1266              		.seh_stackalloc	80
 1267              		.seh_endprologue
 1268 000a 894D20   		movl	%ecx, 32(%rbp)
 1269 000d 48895528 		movq	%rdx, 40(%rbp)
 1270              		.loc 2 192 33
 1271 0011 E8000000 		call	__main
 1271      00
 1272              	.LVL2:
 193:C:/Users/gabri/Documentos/UFU/2021-1/GBD/GBD-2021-1/Trabalho 2/GBDTrabalho2\main.cpp ****     // abrindo arquivo dicionario.txt
 194:C:/Users/gabri/Documentos/UFU/2021-1/GBD/GBD-2021-1/Trabalho 2/GBDTrabalho2\main.cpp ****     FILE *f = fopen("dicionario.txt","rt");
 1273              		.loc 2 194 20
 1274 0016 488D15F1 		leaq	.LC12(%rip), %rdx
 1274      010000
 1275 001d 488D0DF4 		leaq	.LC13(%rip), %rcx
 1275      010000
 1276              	.LEHB0:
 1277 0024 E8000000 		call	fopen
 1277      00
 1278 0029 488945F0 		movq	%rax, -16(%rbp)
 195:C:/Users/gabri/Documentos/UFU/2021-1/GBD/GBD-2021-1/Trabalho 2/GBDTrabalho2\main.cpp **** 
 196:C:/Users/gabri/Documentos/UFU/2021-1/GBD/GBD-2021-1/Trabalho 2/GBDTrabalho2\main.cpp ****     // se no abriu
 197:C:/Users/gabri/Documentos/UFU/2021-1/GBD/GBD-2021-1/Trabalho 2/GBDTrabalho2\main.cpp ****     if (f == NULL) {
 1279              		.loc 2 197 5
 1280 002d 48837DF0 		cmpq	$0, -16(%rbp)
 1280      00
 1281 0032 7516     		jne	.L46
 198:C:/Users/gabri/Documentos/UFU/2021-1/GBD/GBD-2021-1/Trabalho 2/GBDTrabalho2\main.cpp ****         printf("Erro ao abrir arquivo.\n\n");
 1282              		.loc 2 198 15
 1283 0034 488D0D03 		leaq	.LC14(%rip), %rcx
 1283      020000
 1284 003b E8000000 		call	_Z6printfPKcz
 1284      00
 199:C:/Users/gabri/Documentos/UFU/2021-1/GBD/GBD-2021-1/Trabalho 2/GBDTrabalho2\main.cpp ****         return 0;
 1285              		.loc 2 199 16
 1286 0040 B8000000 		movl	$0, %eax
 1286      00
 1287 0045 E9DE0100 		jmp	.L61
 1287      00
 1288              	.L46:
 200:C:/Users/gabri/Documentos/UFU/2021-1/GBD/GBD-2021-1/Trabalho 2/GBDTrabalho2\main.cpp ****     }
 201:C:/Users/gabri/Documentos/UFU/2021-1/GBD/GBD-2021-1/Trabalho 2/GBDTrabalho2\main.cpp **** 
 202:C:/Users/gabri/Documentos/UFU/2021-1/GBD/GBD-2021-1/Trabalho 2/GBDTrabalho2\main.cpp ****     char *palavra = new char[50];
 1289              		.loc 2 202 32
 1290 004a B9320000 		movl	$50, %ecx
 1290      00
 1291 004f E8000000 		call	_Znay
 1291      00
 1292 0054 488945E8 		movq	%rax, -24(%rbp)
 203:C:/Users/gabri/Documentos/UFU/2021-1/GBD/GBD-2021-1/Trabalho 2/GBDTrabalho2\main.cpp **** 
 204:C:/Users/gabri/Documentos/UFU/2021-1/GBD/GBD-2021-1/Trabalho 2/GBDTrabalho2\main.cpp ****     // criando arquivo de dados
 205:C:/Users/gabri/Documentos/UFU/2021-1/GBD/GBD-2021-1/Trabalho 2/GBDTrabalho2\main.cpp ****     MeuArquivo *arquivo = new MeuArquivo();
 1293              		.loc 2 205 42
 1294 0058 B9180000 		movl	$24, %ecx
 1294      00
 1295 005d E8000000 		call	_Znwy
 1295      00
 1296              	.LEHE0:
GAS LISTING C:\Users\gabri\AppData\Local\Temp\cc5DSkcw.s 			page 38


 1297 0062 4889C3   		movq	%rax, %rbx
 1298 0065 4889D9   		movq	%rbx, %rcx
 1299              	.LEHB1:
 1300 0068 E8000000 		call	_ZN10MeuArquivoC1Ev
 1300      00
 1301              	.LEHE1:
 1302 006d 48895DE0 		movq	%rbx, -32(%rbp)
 1303              	.L49:
 206:C:/Users/gabri/Documentos/UFU/2021-1/GBD/GBD-2021-1/Trabalho 2/GBDTrabalho2\main.cpp ****     while (!feof(f)) {
 1304              		.loc 2 206 17
 1305 0071 488B45F0 		movq	-16(%rbp), %rax
 1306 0075 4889C1   		movq	%rax, %rcx
 1307 0078 E8000000 		call	feof
 1307      00
 1308              		.loc 2 206 12
 1309 007d 85C0     		testl	%eax, %eax
 1310 007f 0F94C0   		sete	%al
 1311 0082 84C0     		testb	%al, %al
 1312 0084 742A     		je	.L48
 207:C:/Users/gabri/Documentos/UFU/2021-1/GBD/GBD-2021-1/Trabalho 2/GBDTrabalho2\main.cpp ****         fgets(palavra,50,f);
 1313              		.loc 2 207 14
 1314 0086 488B55F0 		movq	-16(%rbp), %rdx
 1315 008a 488B45E8 		movq	-24(%rbp), %rax
 1316 008e 4989D0   		movq	%rdx, %r8
 1317 0091 BA320000 		movl	$50, %edx
 1317      00
 1318 0096 4889C1   		movq	%rax, %rcx
 1319              	.LEHB2:
 1320 0099 E8000000 		call	fgets
 1320      00
 208:C:/Users/gabri/Documentos/UFU/2021-1/GBD/GBD-2021-1/Trabalho 2/GBDTrabalho2\main.cpp ****         arquivo->inserePalavra(palavra);
 1321              		.loc 2 208 31
 1322 009e 488B55E8 		movq	-24(%rbp), %rdx
 1323 00a2 488B45E0 		movq	-32(%rbp), %rax
 1324 00a6 4889C1   		movq	%rax, %rcx
 1325 00a9 E8000000 		call	_ZN10MeuArquivo13inserePalavraEPc
 1325      00
 206:C:/Users/gabri/Documentos/UFU/2021-1/GBD/GBD-2021-1/Trabalho 2/GBDTrabalho2\main.cpp ****     while (!feof(f)) {
 1326              		.loc 2 206 5
 1327 00ae EBC1     		jmp	.L49
 1328              	.L48:
 209:C:/Users/gabri/Documentos/UFU/2021-1/GBD/GBD-2021-1/Trabalho 2/GBDTrabalho2\main.cpp ****     }
 210:C:/Users/gabri/Documentos/UFU/2021-1/GBD/GBD-2021-1/Trabalho 2/GBDTrabalho2\main.cpp **** 
 211:C:/Users/gabri/Documentos/UFU/2021-1/GBD/GBD-2021-1/Trabalho 2/GBDTrabalho2\main.cpp ****     // fechar arquivo dicionario.txt
 212:C:/Users/gabri/Documentos/UFU/2021-1/GBD/GBD-2021-1/Trabalho 2/GBDTrabalho2\main.cpp ****     fclose(f);
 1329              		.loc 2 212 11
 1330 00b0 488B45F0 		movq	-16(%rbp), %rax
 1331 00b4 4889C1   		movq	%rax, %rcx
 1332 00b7 E8000000 		call	fclose
 1332      00
 213:C:/Users/gabri/Documentos/UFU/2021-1/GBD/GBD-2021-1/Trabalho 2/GBDTrabalho2\main.cpp **** 
 214:C:/Users/gabri/Documentos/UFU/2021-1/GBD/GBD-2021-1/Trabalho 2/GBDTrabalho2\main.cpp ****     printf("Arquivo criado.\n\n");
 1333              		.loc 2 214 11
 1334 00bc 488D0D1C 		leaq	.LC15(%rip), %rcx
 1334      020000
 1335 00c3 E8000000 		call	_Z6printfPKcz
 1335      00
GAS LISTING C:\Users\gabri\AppData\Local\Temp\cc5DSkcw.s 			page 39


 1336              	.L58:
 1337              	.LBB13:
 215:C:/Users/gabri/Documentos/UFU/2021-1/GBD/GBD-2021-1/Trabalho 2/GBDTrabalho2\main.cpp **** 
 216:C:/Users/gabri/Documentos/UFU/2021-1/GBD/GBD-2021-1/Trabalho 2/GBDTrabalho2\main.cpp ****     char opcao;
 217:C:/Users/gabri/Documentos/UFU/2021-1/GBD/GBD-2021-1/Trabalho 2/GBDTrabalho2\main.cpp ****     do {
 218:C:/Users/gabri/Documentos/UFU/2021-1/GBD/GBD-2021-1/Trabalho 2/GBDTrabalho2\main.cpp ****         printf("\n\n1-Insere\n2-Remove\n3-Busca\n4-Sair\nOpcao: ");
 1338              		.loc 2 218 15
 1339 00c8 488D0D30 		leaq	.LC16(%rip), %rcx
 1339      020000
 1340 00cf E8000000 		call	_Z6printfPKcz
 1340      00
 219:C:/Users/gabri/Documentos/UFU/2021-1/GBD/GBD-2021-1/Trabalho 2/GBDTrabalho2\main.cpp ****         opcao = getchar();
 1341              		.loc 2 219 24
 1342 00d4 E8000000 		call	getchar
 1342      00
 1343              		.loc 2 219 15
 1344 00d9 8845FF   		movb	%al, -1(%rbp)
 1345              	.LBB14:
 220:C:/Users/gabri/Documentos/UFU/2021-1/GBD/GBD-2021-1/Trabalho 2/GBDTrabalho2\main.cpp ****         if (opcao == '1') {
 1346              		.loc 2 220 9
 1347 00dc 807DFF31 		cmpb	$49, -1(%rbp)
 1348 00e0 7534     		jne	.L50
 221:C:/Users/gabri/Documentos/UFU/2021-1/GBD/GBD-2021-1/Trabalho 2/GBDTrabalho2\main.cpp ****             printf("Palavra: ");
 1349              		.loc 2 221 19
 1350 00e2 488D0D5B 		leaq	.LC17(%rip), %rcx
 1350      020000
 1351 00e9 E8000000 		call	_Z6printfPKcz
 1351      00
 222:C:/Users/gabri/Documentos/UFU/2021-1/GBD/GBD-2021-1/Trabalho 2/GBDTrabalho2\main.cpp ****             scanf("%s",palavra);
 1352              		.loc 2 222 18
 1353 00ee 488B45E8 		movq	-24(%rbp), %rax
 1354 00f2 4889C2   		movq	%rax, %rdx
 1355 00f5 488D0D65 		leaq	.LC18(%rip), %rcx
 1355      020000
 1356 00fc E8000000 		call	_Z5scanfPKcz
 1356      00
 223:C:/Users/gabri/Documentos/UFU/2021-1/GBD/GBD-2021-1/Trabalho 2/GBDTrabalho2\main.cpp ****             arquivo->inserePalavra(palavra);
 1357              		.loc 2 223 35
 1358 0101 488B55E8 		movq	-24(%rbp), %rdx
 1359 0105 488B45E0 		movq	-32(%rbp), %rax
 1360 0109 4889C1   		movq	%rax, %rcx
 1361 010c E8000000 		call	_ZN10MeuArquivo13inserePalavraEPc
 1361      00
 1362 0111 E9CB0000 		jmp	.L51
 1362      00
 1363              	.L50:
 1364              	.LBB15:
 1365              	.LBB16:
 224:C:/Users/gabri/Documentos/UFU/2021-1/GBD/GBD-2021-1/Trabalho 2/GBDTrabalho2\main.cpp ****         }
 225:C:/Users/gabri/Documentos/UFU/2021-1/GBD/GBD-2021-1/Trabalho 2/GBDTrabalho2\main.cpp ****         else if (opcao == '2') {
 1366              		.loc 2 225 14
 1367 0116 807DFF32 		cmpb	$50, -1(%rbp)
 1368 011a 7559     		jne	.L52
 1369              	.LBB17:
 226:C:/Users/gabri/Documentos/UFU/2021-1/GBD/GBD-2021-1/Trabalho 2/GBDTrabalho2\main.cpp ****             printf("Palavra: ");
 1370              		.loc 2 226 19
 1371 011c 488D0D5B 		leaq	.LC17(%rip), %rcx
GAS LISTING C:\Users\gabri\AppData\Local\Temp\cc5DSkcw.s 			page 40


 1371      020000
 1372 0123 E8000000 		call	_Z6printfPKcz
 1372      00
 227:C:/Users/gabri/Documentos/UFU/2021-1/GBD/GBD-2021-1/Trabalho 2/GBDTrabalho2\main.cpp ****             scanf("%s",palavra);
 1373              		.loc 2 227 18
 1374 0128 488B45E8 		movq	-24(%rbp), %rax
 1375 012c 4889C2   		movq	%rax, %rdx
 1376 012f 488D0D65 		leaq	.LC18(%rip), %rcx
 1376      020000
 1377 0136 E8000000 		call	_Z5scanfPKcz
 1377      00
 228:C:/Users/gabri/Documentos/UFU/2021-1/GBD/GBD-2021-1/Trabalho 2/GBDTrabalho2\main.cpp ****             int offset = arquivo->buscaPalavra(palavra);
 1378              		.loc 2 228 47
 1379 013b 488B55E8 		movq	-24(%rbp), %rdx
 1380 013f 488B45E0 		movq	-32(%rbp), %rax
 1381 0143 4889C1   		movq	%rax, %rcx
 1382 0146 E8000000 		call	_ZN10MeuArquivo12buscaPalavraEPc
 1382      00
 1383 014b 8945DC   		movl	%eax, -36(%rbp)
 229:C:/Users/gabri/Documentos/UFU/2021-1/GBD/GBD-2021-1/Trabalho 2/GBDTrabalho2\main.cpp ****             if (offset >= 0) {
 1384              		.loc 2 229 13
 1385 014e 837DDC00 		cmpl	$0, -36(%rbp)
 1386 0152 0F888900 		js	.L51
 1386      0000
 230:C:/Users/gabri/Documentos/UFU/2021-1/GBD/GBD-2021-1/Trabalho 2/GBDTrabalho2\main.cpp ****                 arquivo->removePalavra(offset);
 1387              		.loc 2 230 39
 1388 0158 8B55DC   		movl	-36(%rbp), %edx
 1389 015b 488B45E0 		movq	-32(%rbp), %rax
 1390 015f 4889C1   		movq	%rax, %rcx
 1391 0162 E8000000 		call	_ZN10MeuArquivo13removePalavraEi
 1391      00
 231:C:/Users/gabri/Documentos/UFU/2021-1/GBD/GBD-2021-1/Trabalho 2/GBDTrabalho2\main.cpp ****                 printf("Removido.\n\n");
 1392              		.loc 2 231 23
 1393 0167 488D0D68 		leaq	.LC19(%rip), %rcx
 1393      020000
 1394 016e E8000000 		call	_Z6printfPKcz
 1394      00
 1395 0173 EB6C     		jmp	.L51
 1396              	.L52:
 1397              	.LBE17:
 1398              	.LBB18:
 1399              	.LBB19:
 232:C:/Users/gabri/Documentos/UFU/2021-1/GBD/GBD-2021-1/Trabalho 2/GBDTrabalho2\main.cpp ****             }
 233:C:/Users/gabri/Documentos/UFU/2021-1/GBD/GBD-2021-1/Trabalho 2/GBDTrabalho2\main.cpp ****         }
 234:C:/Users/gabri/Documentos/UFU/2021-1/GBD/GBD-2021-1/Trabalho 2/GBDTrabalho2\main.cpp ****         else if (opcao == '3') {
 1400              		.loc 2 234 14
 1401 0175 807DFF33 		cmpb	$51, -1(%rbp)
 1402 0179 7566     		jne	.L51
 1403              	.LBB20:
 235:C:/Users/gabri/Documentos/UFU/2021-1/GBD/GBD-2021-1/Trabalho 2/GBDTrabalho2\main.cpp ****             printf("Palavra: ");
 1404              		.loc 2 235 19
 1405 017b 488D0D5B 		leaq	.LC17(%rip), %rcx
 1405      020000
 1406 0182 E8000000 		call	_Z6printfPKcz
 1406      00
 236:C:/Users/gabri/Documentos/UFU/2021-1/GBD/GBD-2021-1/Trabalho 2/GBDTrabalho2\main.cpp ****             scanf("%s",palavra);
 1407              		.loc 2 236 18
GAS LISTING C:\Users\gabri\AppData\Local\Temp\cc5DSkcw.s 			page 41


 1408 0187 488B45E8 		movq	-24(%rbp), %rax
 1409 018b 4889C2   		movq	%rax, %rdx
 1410 018e 488D0D65 		leaq	.LC18(%rip), %rcx
 1410      020000
 1411 0195 E8000000 		call	_Z5scanfPKcz
 1411      00
 237:C:/Users/gabri/Documentos/UFU/2021-1/GBD/GBD-2021-1/Trabalho 2/GBDTrabalho2\main.cpp ****             int offset = arquivo->buscaPalavra(palavra);
 1412              		.loc 2 237 47
 1413 019a 488B55E8 		movq	-24(%rbp), %rdx
 1414 019e 488B45E0 		movq	-32(%rbp), %rax
 1415 01a2 4889C1   		movq	%rax, %rcx
 1416 01a5 E8000000 		call	_ZN10MeuArquivo12buscaPalavraEPc
 1416      00
 1417 01aa 8945D8   		movl	%eax, -40(%rbp)
 238:C:/Users/gabri/Documentos/UFU/2021-1/GBD/GBD-2021-1/Trabalho 2/GBDTrabalho2\main.cpp ****             if (offset >= 0)
 1418              		.loc 2 238 13
 1419 01ad 837DD800 		cmpl	$0, -40(%rbp)
 1420 01b1 781B     		js	.L54
 239:C:/Users/gabri/Documentos/UFU/2021-1/GBD/GBD-2021-1/Trabalho 2/GBDTrabalho2\main.cpp ****                 printf("Encontrou %s na posicao %d\n\n",palavra,offset);
 1421              		.loc 2 239 23
 1422 01b3 8B55D8   		movl	-40(%rbp), %edx
 1423 01b6 488B45E8 		movq	-24(%rbp), %rax
 1424 01ba 4189D0   		movl	%edx, %r8d
 1425 01bd 4889C2   		movq	%rax, %rdx
 1426 01c0 488D0D74 		leaq	.LC20(%rip), %rcx
 1426      020000
 1427 01c7 E8000000 		call	_Z6printfPKcz
 1427      00
 1428 01cc EB13     		jmp	.L51
 1429              	.L54:
 240:C:/Users/gabri/Documentos/UFU/2021-1/GBD/GBD-2021-1/Trabalho 2/GBDTrabalho2\main.cpp ****             else
 241:C:/Users/gabri/Documentos/UFU/2021-1/GBD/GBD-2021-1/Trabalho 2/GBDTrabalho2\main.cpp ****                 printf("Nao encontrou %s\n\n",palavra);
 1430              		.loc 2 241 23
 1431 01ce 488B45E8 		movq	-24(%rbp), %rax
 1432 01d2 4889C2   		movq	%rax, %rdx
 1433 01d5 488D0D91 		leaq	.LC21(%rip), %rcx
 1433      020000
 1434 01dc E8000000 		call	_Z6printfPKcz
 1434      00
 1435              	.L51:
 1436              	.LBE20:
 1437              	.LBE19:
 1438              	.LBE18:
 1439              	.LBE16:
 1440              	.LBE15:
 1441              	.LBE14:
 242:C:/Users/gabri/Documentos/UFU/2021-1/GBD/GBD-2021-1/Trabalho 2/GBDTrabalho2\main.cpp ****         }
 243:C:/Users/gabri/Documentos/UFU/2021-1/GBD/GBD-2021-1/Trabalho 2/GBDTrabalho2\main.cpp ****         if (opcao != '4') opcao = getchar();
 1442              		.loc 2 243 9
 1443 01e1 807DFF34 		cmpb	$52, -1(%rbp)
 1444 01e5 7408     		je	.L56
 1445              		.loc 2 243 42 discriminator 1
 1446 01e7 E8000000 		call	getchar
 1446      00
 1447              		.loc 2 243 33 discriminator 1
 1448 01ec 8845FF   		movb	%al, -1(%rbp)
 1449              	.L56:
GAS LISTING C:\Users\gabri\AppData\Local\Temp\cc5DSkcw.s 			page 42


 1450              	.LBE13:
 244:C:/Users/gabri/Documentos/UFU/2021-1/GBD/GBD-2021-1/Trabalho 2/GBDTrabalho2\main.cpp ****     } while (opcao != '4');
 1451              		.loc 2 244 20
 1452 01ef 807DFF34 		cmpb	$52, -1(%rbp)
 1453 01f3 7405     		je	.L57
 217:C:/Users/gabri/Documentos/UFU/2021-1/GBD/GBD-2021-1/Trabalho 2/GBDTrabalho2\main.cpp ****         printf("\n\n1-Insere\n2-Remove\n3-Busca\n4-Sair\nOpcao: ");
 1454              		.loc 2 217 5
 1455 01f5 E9CEFEFF 		jmp	.L58
 1455      FF
 1456              	.L57:
 245:C:/Users/gabri/Documentos/UFU/2021-1/GBD/GBD-2021-1/Trabalho 2/GBDTrabalho2\main.cpp **** 
 246:C:/Users/gabri/Documentos/UFU/2021-1/GBD/GBD-2021-1/Trabalho 2/GBDTrabalho2\main.cpp ****     printf("\n\nAte mais!\n\n");
 1457              		.loc 2 246 11
 1458 01fa 488D0DA4 		leaq	.LC22(%rip), %rcx
 1458      020000
 1459 0201 E8000000 		call	_Z6printfPKcz
 1459      00
 247:C:/Users/gabri/Documentos/UFU/2021-1/GBD/GBD-2021-1/Trabalho 2/GBDTrabalho2\main.cpp **** 
 248:C:/Users/gabri/Documentos/UFU/2021-1/GBD/GBD-2021-1/Trabalho 2/GBDTrabalho2\main.cpp ****     return (EXIT_SUCCESS);
 1460              		.loc 2 248 25
 1461 0206 B8000000 		movl	$0, %eax
 1461      00
 1462 020b EB1B     		jmp	.L61
 1463              	.L60:
 1464 020d 4889C6   		movq	%rax, %rsi
 205:C:/Users/gabri/Documentos/UFU/2021-1/GBD/GBD-2021-1/Trabalho 2/GBDTrabalho2\main.cpp ****     while (!feof(f)) {
 1465              		.loc 2 205 42
 1466 0210 BA180000 		movl	$24, %edx
 1466      00
 1467 0215 4889D9   		movq	%rbx, %rcx
 1468 0218 E8000000 		call	_ZdlPvy
 1468      00
 1469 021d 4889F0   		movq	%rsi, %rax
 1470 0220 4889C1   		movq	%rax, %rcx
 1471 0223 E8000000 		call	_Unwind_Resume
 1471      00
 1472              	.LEHE2:
 1473              	.L61:
 249:C:/Users/gabri/Documentos/UFU/2021-1/GBD/GBD-2021-1/Trabalho 2/GBDTrabalho2\main.cpp **** }
 1474              		.loc 2 249 1
 1475 0228 4883C450 		addq	$80, %rsp
 1476 022c 5B       		popq	%rbx
 1477              		.cfi_restore 3
 1478 022d 5E       		popq	%rsi
 1479              		.cfi_restore 4
 1480 022e 5D       		popq	%rbp
 1481              		.cfi_restore 6
 1482              		.cfi_def_cfa 7, 24
 1483 022f C3       		ret
 1484              		.cfi_endproc
 1485              	.LFE8826:
 1487              		.seh_handler	__gxx_personality_seh0, @unwind, @except
 1488              		.seh_handlerdata
 1489              	.LLSDA8826:
 1490 0014 FF       		.byte	0xff
 1491 0015 FF       		.byte	0xff
 1492 0016 01       		.byte	0x1
GAS LISTING C:\Users\gabri\AppData\Local\Temp\cc5DSkcw.s 			page 43


 1493 0017 0F       		.uleb128 .LLSDACSE8826-.LLSDACSB8826
 1494              	.LLSDACSB8826:
 1495 0018 24       		.uleb128 .LEHB0-.LFB8826
 1496 0019 3E       		.uleb128 .LEHE0-.LEHB0
 1497 001a 00       		.uleb128 0
 1498 001b 00       		.uleb128 0
 1499 001c 68       		.uleb128 .LEHB1-.LFB8826
 1500 001d 05       		.uleb128 .LEHE1-.LEHB1
 1501 001e 8D04     		.uleb128 .L60-.LFB8826
 1502 0020 00       		.uleb128 0
 1503 0021 9901     		.uleb128 .LEHB2-.LFB8826
 1504 0023 8F03     		.uleb128 .LEHE2-.LEHB2
 1505 0025 00       		.uleb128 0
 1506 0026 00       		.uleb128 0
 1507              	.LLSDACSE8826:
 1508              		.text
 1509              		.seh_endproc
 1510              		.section	.text$_ZSt3maxIiERKT_S2_S2_,"x"
 1511              		.linkonce discard
 1512              		.globl	_ZSt3maxIiERKT_S2_S2_
 1514              		.seh_proc	_ZSt3maxIiERKT_S2_S2_
 1515              	_ZSt3maxIiERKT_S2_S2_:
 1516              	.LFB9343:
 1517              		.file 3 "C:/Program Files/CodeBlocks/MinGW/lib/gcc/x86_64-w64-mingw32/8.1.0/include/c++/bits/stl_a
   1:C:/Program Files/CodeBlocks/MinGW/lib/gcc/x86_64-w64-mingw32/8.1.0/include/c++/bits\stl_algobase.h **** // Core algorithmic facilities -*- C++ -*-
   2:C:/Program Files/CodeBlocks/MinGW/lib/gcc/x86_64-w64-mingw32/8.1.0/include/c++/bits\stl_algobase.h **** 
   3:C:/Program Files/CodeBlocks/MinGW/lib/gcc/x86_64-w64-mingw32/8.1.0/include/c++/bits\stl_algobase.h **** // Copyright (C) 2001-2018 Free Software Foundation, Inc.
   4:C:/Program Files/CodeBlocks/MinGW/lib/gcc/x86_64-w64-mingw32/8.1.0/include/c++/bits\stl_algobase.h **** //
   5:C:/Program Files/CodeBlocks/MinGW/lib/gcc/x86_64-w64-mingw32/8.1.0/include/c++/bits\stl_algobase.h **** // This file is part of the GNU ISO C++ Library.  This library is free
   6:C:/Program Files/CodeBlocks/MinGW/lib/gcc/x86_64-w64-mingw32/8.1.0/include/c++/bits\stl_algobase.h **** // software; you can redistribute it and/or modify it under the
   7:C:/Program Files/CodeBlocks/MinGW/lib/gcc/x86_64-w64-mingw32/8.1.0/include/c++/bits\stl_algobase.h **** // terms of the GNU General Public License as published by the
   8:C:/Program Files/CodeBlocks/MinGW/lib/gcc/x86_64-w64-mingw32/8.1.0/include/c++/bits\stl_algobase.h **** // Free Software Foundation; either version 3, or (at your option)
   9:C:/Program Files/CodeBlocks/MinGW/lib/gcc/x86_64-w64-mingw32/8.1.0/include/c++/bits\stl_algobase.h **** // any later version.
  10:C:/Program Files/CodeBlocks/MinGW/lib/gcc/x86_64-w64-mingw32/8.1.0/include/c++/bits\stl_algobase.h **** 
  11:C:/Program Files/CodeBlocks/MinGW/lib/gcc/x86_64-w64-mingw32/8.1.0/include/c++/bits\stl_algobase.h **** // This library is distributed in the hope that it will be useful,
  12:C:/Program Files/CodeBlocks/MinGW/lib/gcc/x86_64-w64-mingw32/8.1.0/include/c++/bits\stl_algobase.h **** // but WITHOUT ANY WARRANTY; without even the implied warranty of
  13:C:/Program Files/CodeBlocks/MinGW/lib/gcc/x86_64-w64-mingw32/8.1.0/include/c++/bits\stl_algobase.h **** // MERCHANTABILITY or FITNESS FOR A PARTICULAR PURPOSE.  See the
  14:C:/Program Files/CodeBlocks/MinGW/lib/gcc/x86_64-w64-mingw32/8.1.0/include/c++/bits\stl_algobase.h **** // GNU General Public License for more details.
  15:C:/Program Files/CodeBlocks/MinGW/lib/gcc/x86_64-w64-mingw32/8.1.0/include/c++/bits\stl_algobase.h **** 
  16:C:/Program Files/CodeBlocks/MinGW/lib/gcc/x86_64-w64-mingw32/8.1.0/include/c++/bits\stl_algobase.h **** // Under Section 7 of GPL version 3, you are granted additional
  17:C:/Program Files/CodeBlocks/MinGW/lib/gcc/x86_64-w64-mingw32/8.1.0/include/c++/bits\stl_algobase.h **** // permissions described in the GCC Runtime Library Exception, version
  18:C:/Program Files/CodeBlocks/MinGW/lib/gcc/x86_64-w64-mingw32/8.1.0/include/c++/bits\stl_algobase.h **** // 3.1, as published by the Free Software Foundation.
  19:C:/Program Files/CodeBlocks/MinGW/lib/gcc/x86_64-w64-mingw32/8.1.0/include/c++/bits\stl_algobase.h **** 
  20:C:/Program Files/CodeBlocks/MinGW/lib/gcc/x86_64-w64-mingw32/8.1.0/include/c++/bits\stl_algobase.h **** // You should have received a copy of the GNU General Public License and
  21:C:/Program Files/CodeBlocks/MinGW/lib/gcc/x86_64-w64-mingw32/8.1.0/include/c++/bits\stl_algobase.h **** // a copy of the GCC Runtime Library Exception along with this program;
  22:C:/Program Files/CodeBlocks/MinGW/lib/gcc/x86_64-w64-mingw32/8.1.0/include/c++/bits\stl_algobase.h **** // see the files COPYING3 and COPYING.RUNTIME respectively.  If not, see
  23:C:/Program Files/CodeBlocks/MinGW/lib/gcc/x86_64-w64-mingw32/8.1.0/include/c++/bits\stl_algobase.h **** // <http://www.gnu.org/licenses/>.
  24:C:/Program Files/CodeBlocks/MinGW/lib/gcc/x86_64-w64-mingw32/8.1.0/include/c++/bits\stl_algobase.h **** 
  25:C:/Program Files/CodeBlocks/MinGW/lib/gcc/x86_64-w64-mingw32/8.1.0/include/c++/bits\stl_algobase.h **** /*
  26:C:/Program Files/CodeBlocks/MinGW/lib/gcc/x86_64-w64-mingw32/8.1.0/include/c++/bits\stl_algobase.h ****  *
  27:C:/Program Files/CodeBlocks/MinGW/lib/gcc/x86_64-w64-mingw32/8.1.0/include/c++/bits\stl_algobase.h ****  * Copyright (c) 1994
  28:C:/Program Files/CodeBlocks/MinGW/lib/gcc/x86_64-w64-mingw32/8.1.0/include/c++/bits\stl_algobase.h ****  * Hewlett-Packard Company
  29:C:/Program Files/CodeBlocks/MinGW/lib/gcc/x86_64-w64-mingw32/8.1.0/include/c++/bits\stl_algobase.h ****  *
  30:C:/Program Files/CodeBlocks/MinGW/lib/gcc/x86_64-w64-mingw32/8.1.0/include/c++/bits\stl_algobase.h ****  * Permission to use, copy, modify, distribute and sell this software
  31:C:/Program Files/CodeBlocks/MinGW/lib/gcc/x86_64-w64-mingw32/8.1.0/include/c++/bits\stl_algobase.h ****  * and its documentation for any purpose is hereby granted without fee,
  32:C:/Program Files/CodeBlocks/MinGW/lib/gcc/x86_64-w64-mingw32/8.1.0/include/c++/bits\stl_algobase.h ****  * provided that the above copyright notice appear in all copies and
  33:C:/Program Files/CodeBlocks/MinGW/lib/gcc/x86_64-w64-mingw32/8.1.0/include/c++/bits\stl_algobase.h ****  * that both that copyright notice and this permission notice appear
GAS LISTING C:\Users\gabri\AppData\Local\Temp\cc5DSkcw.s 			page 44


  34:C:/Program Files/CodeBlocks/MinGW/lib/gcc/x86_64-w64-mingw32/8.1.0/include/c++/bits\stl_algobase.h ****  * in supporting documentation.  Hewlett-Packard Company makes no
  35:C:/Program Files/CodeBlocks/MinGW/lib/gcc/x86_64-w64-mingw32/8.1.0/include/c++/bits\stl_algobase.h ****  * representations about the suitability of this software for any
  36:C:/Program Files/CodeBlocks/MinGW/lib/gcc/x86_64-w64-mingw32/8.1.0/include/c++/bits\stl_algobase.h ****  * purpose.  It is provided "as is" without express or implied warranty.
  37:C:/Program Files/CodeBlocks/MinGW/lib/gcc/x86_64-w64-mingw32/8.1.0/include/c++/bits\stl_algobase.h ****  *
  38:C:/Program Files/CodeBlocks/MinGW/lib/gcc/x86_64-w64-mingw32/8.1.0/include/c++/bits\stl_algobase.h ****  *
  39:C:/Program Files/CodeBlocks/MinGW/lib/gcc/x86_64-w64-mingw32/8.1.0/include/c++/bits\stl_algobase.h ****  * Copyright (c) 1996-1998
  40:C:/Program Files/CodeBlocks/MinGW/lib/gcc/x86_64-w64-mingw32/8.1.0/include/c++/bits\stl_algobase.h ****  * Silicon Graphics Computer Systems, Inc.
  41:C:/Program Files/CodeBlocks/MinGW/lib/gcc/x86_64-w64-mingw32/8.1.0/include/c++/bits\stl_algobase.h ****  *
  42:C:/Program Files/CodeBlocks/MinGW/lib/gcc/x86_64-w64-mingw32/8.1.0/include/c++/bits\stl_algobase.h ****  * Permission to use, copy, modify, distribute and sell this software
  43:C:/Program Files/CodeBlocks/MinGW/lib/gcc/x86_64-w64-mingw32/8.1.0/include/c++/bits\stl_algobase.h ****  * and its documentation for any purpose is hereby granted without fee,
  44:C:/Program Files/CodeBlocks/MinGW/lib/gcc/x86_64-w64-mingw32/8.1.0/include/c++/bits\stl_algobase.h ****  * provided that the above copyright notice appear in all copies and
  45:C:/Program Files/CodeBlocks/MinGW/lib/gcc/x86_64-w64-mingw32/8.1.0/include/c++/bits\stl_algobase.h ****  * that both that copyright notice and this permission notice appear
  46:C:/Program Files/CodeBlocks/MinGW/lib/gcc/x86_64-w64-mingw32/8.1.0/include/c++/bits\stl_algobase.h ****  * in supporting documentation.  Silicon Graphics makes no
  47:C:/Program Files/CodeBlocks/MinGW/lib/gcc/x86_64-w64-mingw32/8.1.0/include/c++/bits\stl_algobase.h ****  * representations about the suitability of this software for any
  48:C:/Program Files/CodeBlocks/MinGW/lib/gcc/x86_64-w64-mingw32/8.1.0/include/c++/bits\stl_algobase.h ****  * purpose.  It is provided "as is" without express or implied warranty.
  49:C:/Program Files/CodeBlocks/MinGW/lib/gcc/x86_64-w64-mingw32/8.1.0/include/c++/bits\stl_algobase.h ****  */
  50:C:/Program Files/CodeBlocks/MinGW/lib/gcc/x86_64-w64-mingw32/8.1.0/include/c++/bits\stl_algobase.h **** 
  51:C:/Program Files/CodeBlocks/MinGW/lib/gcc/x86_64-w64-mingw32/8.1.0/include/c++/bits\stl_algobase.h **** /** @file bits/stl_algobase.h
  52:C:/Program Files/CodeBlocks/MinGW/lib/gcc/x86_64-w64-mingw32/8.1.0/include/c++/bits\stl_algobase.h ****  *  This is an internal header file, included by other library headers.
  53:C:/Program Files/CodeBlocks/MinGW/lib/gcc/x86_64-w64-mingw32/8.1.0/include/c++/bits\stl_algobase.h ****  *  Do not attempt to use it directly. @headername{algorithm}
  54:C:/Program Files/CodeBlocks/MinGW/lib/gcc/x86_64-w64-mingw32/8.1.0/include/c++/bits\stl_algobase.h ****  */
  55:C:/Program Files/CodeBlocks/MinGW/lib/gcc/x86_64-w64-mingw32/8.1.0/include/c++/bits\stl_algobase.h **** 
  56:C:/Program Files/CodeBlocks/MinGW/lib/gcc/x86_64-w64-mingw32/8.1.0/include/c++/bits\stl_algobase.h **** #ifndef _STL_ALGOBASE_H
  57:C:/Program Files/CodeBlocks/MinGW/lib/gcc/x86_64-w64-mingw32/8.1.0/include/c++/bits\stl_algobase.h **** #define _STL_ALGOBASE_H 1
  58:C:/Program Files/CodeBlocks/MinGW/lib/gcc/x86_64-w64-mingw32/8.1.0/include/c++/bits\stl_algobase.h **** 
  59:C:/Program Files/CodeBlocks/MinGW/lib/gcc/x86_64-w64-mingw32/8.1.0/include/c++/bits\stl_algobase.h **** #include <bits/c++config.h>
  60:C:/Program Files/CodeBlocks/MinGW/lib/gcc/x86_64-w64-mingw32/8.1.0/include/c++/bits\stl_algobase.h **** #include <bits/functexcept.h>
  61:C:/Program Files/CodeBlocks/MinGW/lib/gcc/x86_64-w64-mingw32/8.1.0/include/c++/bits\stl_algobase.h **** #include <bits/cpp_type_traits.h>
  62:C:/Program Files/CodeBlocks/MinGW/lib/gcc/x86_64-w64-mingw32/8.1.0/include/c++/bits\stl_algobase.h **** #include <ext/type_traits.h>
  63:C:/Program Files/CodeBlocks/MinGW/lib/gcc/x86_64-w64-mingw32/8.1.0/include/c++/bits\stl_algobase.h **** #include <ext/numeric_traits.h>
  64:C:/Program Files/CodeBlocks/MinGW/lib/gcc/x86_64-w64-mingw32/8.1.0/include/c++/bits\stl_algobase.h **** #include <bits/stl_pair.h>
  65:C:/Program Files/CodeBlocks/MinGW/lib/gcc/x86_64-w64-mingw32/8.1.0/include/c++/bits\stl_algobase.h **** #include <bits/stl_iterator_base_types.h>
  66:C:/Program Files/CodeBlocks/MinGW/lib/gcc/x86_64-w64-mingw32/8.1.0/include/c++/bits\stl_algobase.h **** #include <bits/stl_iterator_base_funcs.h>
  67:C:/Program Files/CodeBlocks/MinGW/lib/gcc/x86_64-w64-mingw32/8.1.0/include/c++/bits\stl_algobase.h **** #include <bits/stl_iterator.h>
  68:C:/Program Files/CodeBlocks/MinGW/lib/gcc/x86_64-w64-mingw32/8.1.0/include/c++/bits\stl_algobase.h **** #include <bits/concept_check.h>
  69:C:/Program Files/CodeBlocks/MinGW/lib/gcc/x86_64-w64-mingw32/8.1.0/include/c++/bits\stl_algobase.h **** #include <debug/debug.h>
  70:C:/Program Files/CodeBlocks/MinGW/lib/gcc/x86_64-w64-mingw32/8.1.0/include/c++/bits\stl_algobase.h **** #include <bits/move.h> // For std::swap
  71:C:/Program Files/CodeBlocks/MinGW/lib/gcc/x86_64-w64-mingw32/8.1.0/include/c++/bits\stl_algobase.h **** #include <bits/predefined_ops.h>
  72:C:/Program Files/CodeBlocks/MinGW/lib/gcc/x86_64-w64-mingw32/8.1.0/include/c++/bits\stl_algobase.h **** 
  73:C:/Program Files/CodeBlocks/MinGW/lib/gcc/x86_64-w64-mingw32/8.1.0/include/c++/bits\stl_algobase.h **** namespace std _GLIBCXX_VISIBILITY(default)
  74:C:/Program Files/CodeBlocks/MinGW/lib/gcc/x86_64-w64-mingw32/8.1.0/include/c++/bits\stl_algobase.h **** {
  75:C:/Program Files/CodeBlocks/MinGW/lib/gcc/x86_64-w64-mingw32/8.1.0/include/c++/bits\stl_algobase.h **** _GLIBCXX_BEGIN_NAMESPACE_VERSION
  76:C:/Program Files/CodeBlocks/MinGW/lib/gcc/x86_64-w64-mingw32/8.1.0/include/c++/bits\stl_algobase.h **** 
  77:C:/Program Files/CodeBlocks/MinGW/lib/gcc/x86_64-w64-mingw32/8.1.0/include/c++/bits\stl_algobase.h **** #if __cplusplus < 201103L
  78:C:/Program Files/CodeBlocks/MinGW/lib/gcc/x86_64-w64-mingw32/8.1.0/include/c++/bits\stl_algobase.h ****   // See http://gcc.gnu.org/ml/libstdc++/2004-08/msg00167.html: in a
  79:C:/Program Files/CodeBlocks/MinGW/lib/gcc/x86_64-w64-mingw32/8.1.0/include/c++/bits\stl_algobase.h ****   // nutshell, we are partially implementing the resolution of DR 187,
  80:C:/Program Files/CodeBlocks/MinGW/lib/gcc/x86_64-w64-mingw32/8.1.0/include/c++/bits\stl_algobase.h ****   // when it's safe, i.e., the value_types are equal.
  81:C:/Program Files/CodeBlocks/MinGW/lib/gcc/x86_64-w64-mingw32/8.1.0/include/c++/bits\stl_algobase.h ****   template<bool _BoolType>
  82:C:/Program Files/CodeBlocks/MinGW/lib/gcc/x86_64-w64-mingw32/8.1.0/include/c++/bits\stl_algobase.h ****     struct __iter_swap
  83:C:/Program Files/CodeBlocks/MinGW/lib/gcc/x86_64-w64-mingw32/8.1.0/include/c++/bits\stl_algobase.h ****     {
  84:C:/Program Files/CodeBlocks/MinGW/lib/gcc/x86_64-w64-mingw32/8.1.0/include/c++/bits\stl_algobase.h ****       template<typename _ForwardIterator1, typename _ForwardIterator2>
  85:C:/Program Files/CodeBlocks/MinGW/lib/gcc/x86_64-w64-mingw32/8.1.0/include/c++/bits\stl_algobase.h **** 	static void
  86:C:/Program Files/CodeBlocks/MinGW/lib/gcc/x86_64-w64-mingw32/8.1.0/include/c++/bits\stl_algobase.h **** 	iter_swap(_ForwardIterator1 __a, _ForwardIterator2 __b)
  87:C:/Program Files/CodeBlocks/MinGW/lib/gcc/x86_64-w64-mingw32/8.1.0/include/c++/bits\stl_algobase.h **** 	{
  88:C:/Program Files/CodeBlocks/MinGW/lib/gcc/x86_64-w64-mingw32/8.1.0/include/c++/bits\stl_algobase.h **** 	  typedef typename iterator_traits<_ForwardIterator1>::value_type
  89:C:/Program Files/CodeBlocks/MinGW/lib/gcc/x86_64-w64-mingw32/8.1.0/include/c++/bits\stl_algobase.h **** 	    _ValueType1;
  90:C:/Program Files/CodeBlocks/MinGW/lib/gcc/x86_64-w64-mingw32/8.1.0/include/c++/bits\stl_algobase.h **** 	  _ValueType1 __tmp = *__a;
GAS LISTING C:\Users\gabri\AppData\Local\Temp\cc5DSkcw.s 			page 45


  91:C:/Program Files/CodeBlocks/MinGW/lib/gcc/x86_64-w64-mingw32/8.1.0/include/c++/bits\stl_algobase.h **** 	  *__a = *__b;
  92:C:/Program Files/CodeBlocks/MinGW/lib/gcc/x86_64-w64-mingw32/8.1.0/include/c++/bits\stl_algobase.h **** 	  *__b = __tmp;
  93:C:/Program Files/CodeBlocks/MinGW/lib/gcc/x86_64-w64-mingw32/8.1.0/include/c++/bits\stl_algobase.h **** 	}
  94:C:/Program Files/CodeBlocks/MinGW/lib/gcc/x86_64-w64-mingw32/8.1.0/include/c++/bits\stl_algobase.h ****     };
  95:C:/Program Files/CodeBlocks/MinGW/lib/gcc/x86_64-w64-mingw32/8.1.0/include/c++/bits\stl_algobase.h **** 
  96:C:/Program Files/CodeBlocks/MinGW/lib/gcc/x86_64-w64-mingw32/8.1.0/include/c++/bits\stl_algobase.h ****   template<>
  97:C:/Program Files/CodeBlocks/MinGW/lib/gcc/x86_64-w64-mingw32/8.1.0/include/c++/bits\stl_algobase.h ****     struct __iter_swap<true>
  98:C:/Program Files/CodeBlocks/MinGW/lib/gcc/x86_64-w64-mingw32/8.1.0/include/c++/bits\stl_algobase.h ****     {
  99:C:/Program Files/CodeBlocks/MinGW/lib/gcc/x86_64-w64-mingw32/8.1.0/include/c++/bits\stl_algobase.h ****       template<typename _ForwardIterator1, typename _ForwardIterator2>
 100:C:/Program Files/CodeBlocks/MinGW/lib/gcc/x86_64-w64-mingw32/8.1.0/include/c++/bits\stl_algobase.h **** 	static void
 101:C:/Program Files/CodeBlocks/MinGW/lib/gcc/x86_64-w64-mingw32/8.1.0/include/c++/bits\stl_algobase.h **** 	iter_swap(_ForwardIterator1 __a, _ForwardIterator2 __b)
 102:C:/Program Files/CodeBlocks/MinGW/lib/gcc/x86_64-w64-mingw32/8.1.0/include/c++/bits\stl_algobase.h **** 	{
 103:C:/Program Files/CodeBlocks/MinGW/lib/gcc/x86_64-w64-mingw32/8.1.0/include/c++/bits\stl_algobase.h **** 	  swap(*__a, *__b);
 104:C:/Program Files/CodeBlocks/MinGW/lib/gcc/x86_64-w64-mingw32/8.1.0/include/c++/bits\stl_algobase.h **** 	}
 105:C:/Program Files/CodeBlocks/MinGW/lib/gcc/x86_64-w64-mingw32/8.1.0/include/c++/bits\stl_algobase.h ****     };
 106:C:/Program Files/CodeBlocks/MinGW/lib/gcc/x86_64-w64-mingw32/8.1.0/include/c++/bits\stl_algobase.h **** #endif
 107:C:/Program Files/CodeBlocks/MinGW/lib/gcc/x86_64-w64-mingw32/8.1.0/include/c++/bits\stl_algobase.h **** 
 108:C:/Program Files/CodeBlocks/MinGW/lib/gcc/x86_64-w64-mingw32/8.1.0/include/c++/bits\stl_algobase.h ****   /**
 109:C:/Program Files/CodeBlocks/MinGW/lib/gcc/x86_64-w64-mingw32/8.1.0/include/c++/bits\stl_algobase.h ****    *  @brief Swaps the contents of two iterators.
 110:C:/Program Files/CodeBlocks/MinGW/lib/gcc/x86_64-w64-mingw32/8.1.0/include/c++/bits\stl_algobase.h ****    *  @ingroup mutating_algorithms
 111:C:/Program Files/CodeBlocks/MinGW/lib/gcc/x86_64-w64-mingw32/8.1.0/include/c++/bits\stl_algobase.h ****    *  @param  __a  An iterator.
 112:C:/Program Files/CodeBlocks/MinGW/lib/gcc/x86_64-w64-mingw32/8.1.0/include/c++/bits\stl_algobase.h ****    *  @param  __b  Another iterator.
 113:C:/Program Files/CodeBlocks/MinGW/lib/gcc/x86_64-w64-mingw32/8.1.0/include/c++/bits\stl_algobase.h ****    *  @return   Nothing.
 114:C:/Program Files/CodeBlocks/MinGW/lib/gcc/x86_64-w64-mingw32/8.1.0/include/c++/bits\stl_algobase.h ****    *
 115:C:/Program Files/CodeBlocks/MinGW/lib/gcc/x86_64-w64-mingw32/8.1.0/include/c++/bits\stl_algobase.h ****    *  This function swaps the values pointed to by two iterators, not the
 116:C:/Program Files/CodeBlocks/MinGW/lib/gcc/x86_64-w64-mingw32/8.1.0/include/c++/bits\stl_algobase.h ****    *  iterators themselves.
 117:C:/Program Files/CodeBlocks/MinGW/lib/gcc/x86_64-w64-mingw32/8.1.0/include/c++/bits\stl_algobase.h ****   */
 118:C:/Program Files/CodeBlocks/MinGW/lib/gcc/x86_64-w64-mingw32/8.1.0/include/c++/bits\stl_algobase.h ****   template<typename _ForwardIterator1, typename _ForwardIterator2>
 119:C:/Program Files/CodeBlocks/MinGW/lib/gcc/x86_64-w64-mingw32/8.1.0/include/c++/bits\stl_algobase.h ****     inline void
 120:C:/Program Files/CodeBlocks/MinGW/lib/gcc/x86_64-w64-mingw32/8.1.0/include/c++/bits\stl_algobase.h ****     iter_swap(_ForwardIterator1 __a, _ForwardIterator2 __b)
 121:C:/Program Files/CodeBlocks/MinGW/lib/gcc/x86_64-w64-mingw32/8.1.0/include/c++/bits\stl_algobase.h ****     {
 122:C:/Program Files/CodeBlocks/MinGW/lib/gcc/x86_64-w64-mingw32/8.1.0/include/c++/bits\stl_algobase.h ****       // concept requirements
 123:C:/Program Files/CodeBlocks/MinGW/lib/gcc/x86_64-w64-mingw32/8.1.0/include/c++/bits\stl_algobase.h ****       __glibcxx_function_requires(_Mutable_ForwardIteratorConcept<
 124:C:/Program Files/CodeBlocks/MinGW/lib/gcc/x86_64-w64-mingw32/8.1.0/include/c++/bits\stl_algobase.h **** 				  _ForwardIterator1>)
 125:C:/Program Files/CodeBlocks/MinGW/lib/gcc/x86_64-w64-mingw32/8.1.0/include/c++/bits\stl_algobase.h ****       __glibcxx_function_requires(_Mutable_ForwardIteratorConcept<
 126:C:/Program Files/CodeBlocks/MinGW/lib/gcc/x86_64-w64-mingw32/8.1.0/include/c++/bits\stl_algobase.h **** 				  _ForwardIterator2>)
 127:C:/Program Files/CodeBlocks/MinGW/lib/gcc/x86_64-w64-mingw32/8.1.0/include/c++/bits\stl_algobase.h **** 
 128:C:/Program Files/CodeBlocks/MinGW/lib/gcc/x86_64-w64-mingw32/8.1.0/include/c++/bits\stl_algobase.h **** #if __cplusplus < 201103L
 129:C:/Program Files/CodeBlocks/MinGW/lib/gcc/x86_64-w64-mingw32/8.1.0/include/c++/bits\stl_algobase.h ****       typedef typename iterator_traits<_ForwardIterator1>::value_type
 130:C:/Program Files/CodeBlocks/MinGW/lib/gcc/x86_64-w64-mingw32/8.1.0/include/c++/bits\stl_algobase.h **** 	_ValueType1;
 131:C:/Program Files/CodeBlocks/MinGW/lib/gcc/x86_64-w64-mingw32/8.1.0/include/c++/bits\stl_algobase.h ****       typedef typename iterator_traits<_ForwardIterator2>::value_type
 132:C:/Program Files/CodeBlocks/MinGW/lib/gcc/x86_64-w64-mingw32/8.1.0/include/c++/bits\stl_algobase.h **** 	_ValueType2;
 133:C:/Program Files/CodeBlocks/MinGW/lib/gcc/x86_64-w64-mingw32/8.1.0/include/c++/bits\stl_algobase.h **** 
 134:C:/Program Files/CodeBlocks/MinGW/lib/gcc/x86_64-w64-mingw32/8.1.0/include/c++/bits\stl_algobase.h ****       __glibcxx_function_requires(_ConvertibleConcept<_ValueType1,
 135:C:/Program Files/CodeBlocks/MinGW/lib/gcc/x86_64-w64-mingw32/8.1.0/include/c++/bits\stl_algobase.h **** 				  _ValueType2>)
 136:C:/Program Files/CodeBlocks/MinGW/lib/gcc/x86_64-w64-mingw32/8.1.0/include/c++/bits\stl_algobase.h ****       __glibcxx_function_requires(_ConvertibleConcept<_ValueType2,
 137:C:/Program Files/CodeBlocks/MinGW/lib/gcc/x86_64-w64-mingw32/8.1.0/include/c++/bits\stl_algobase.h **** 				  _ValueType1>)
 138:C:/Program Files/CodeBlocks/MinGW/lib/gcc/x86_64-w64-mingw32/8.1.0/include/c++/bits\stl_algobase.h **** 
 139:C:/Program Files/CodeBlocks/MinGW/lib/gcc/x86_64-w64-mingw32/8.1.0/include/c++/bits\stl_algobase.h ****       typedef typename iterator_traits<_ForwardIterator1>::reference
 140:C:/Program Files/CodeBlocks/MinGW/lib/gcc/x86_64-w64-mingw32/8.1.0/include/c++/bits\stl_algobase.h **** 	_ReferenceType1;
 141:C:/Program Files/CodeBlocks/MinGW/lib/gcc/x86_64-w64-mingw32/8.1.0/include/c++/bits\stl_algobase.h ****       typedef typename iterator_traits<_ForwardIterator2>::reference
 142:C:/Program Files/CodeBlocks/MinGW/lib/gcc/x86_64-w64-mingw32/8.1.0/include/c++/bits\stl_algobase.h **** 	_ReferenceType2;
 143:C:/Program Files/CodeBlocks/MinGW/lib/gcc/x86_64-w64-mingw32/8.1.0/include/c++/bits\stl_algobase.h ****       std::__iter_swap<__are_same<_ValueType1, _ValueType2>::__value
 144:C:/Program Files/CodeBlocks/MinGW/lib/gcc/x86_64-w64-mingw32/8.1.0/include/c++/bits\stl_algobase.h **** 	&& __are_same<_ValueType1&, _ReferenceType1>::__value
 145:C:/Program Files/CodeBlocks/MinGW/lib/gcc/x86_64-w64-mingw32/8.1.0/include/c++/bits\stl_algobase.h **** 	&& __are_same<_ValueType2&, _ReferenceType2>::__value>::
 146:C:/Program Files/CodeBlocks/MinGW/lib/gcc/x86_64-w64-mingw32/8.1.0/include/c++/bits\stl_algobase.h **** 	iter_swap(__a, __b);
 147:C:/Program Files/CodeBlocks/MinGW/lib/gcc/x86_64-w64-mingw32/8.1.0/include/c++/bits\stl_algobase.h **** #else
GAS LISTING C:\Users\gabri\AppData\Local\Temp\cc5DSkcw.s 			page 46


 148:C:/Program Files/CodeBlocks/MinGW/lib/gcc/x86_64-w64-mingw32/8.1.0/include/c++/bits\stl_algobase.h ****       swap(*__a, *__b);
 149:C:/Program Files/CodeBlocks/MinGW/lib/gcc/x86_64-w64-mingw32/8.1.0/include/c++/bits\stl_algobase.h **** #endif
 150:C:/Program Files/CodeBlocks/MinGW/lib/gcc/x86_64-w64-mingw32/8.1.0/include/c++/bits\stl_algobase.h ****     }
 151:C:/Program Files/CodeBlocks/MinGW/lib/gcc/x86_64-w64-mingw32/8.1.0/include/c++/bits\stl_algobase.h **** 
 152:C:/Program Files/CodeBlocks/MinGW/lib/gcc/x86_64-w64-mingw32/8.1.0/include/c++/bits\stl_algobase.h ****   /**
 153:C:/Program Files/CodeBlocks/MinGW/lib/gcc/x86_64-w64-mingw32/8.1.0/include/c++/bits\stl_algobase.h ****    *  @brief Swap the elements of two sequences.
 154:C:/Program Files/CodeBlocks/MinGW/lib/gcc/x86_64-w64-mingw32/8.1.0/include/c++/bits\stl_algobase.h ****    *  @ingroup mutating_algorithms
 155:C:/Program Files/CodeBlocks/MinGW/lib/gcc/x86_64-w64-mingw32/8.1.0/include/c++/bits\stl_algobase.h ****    *  @param  __first1  A forward iterator.
 156:C:/Program Files/CodeBlocks/MinGW/lib/gcc/x86_64-w64-mingw32/8.1.0/include/c++/bits\stl_algobase.h ****    *  @param  __last1   A forward iterator.
 157:C:/Program Files/CodeBlocks/MinGW/lib/gcc/x86_64-w64-mingw32/8.1.0/include/c++/bits\stl_algobase.h ****    *  @param  __first2  A forward iterator.
 158:C:/Program Files/CodeBlocks/MinGW/lib/gcc/x86_64-w64-mingw32/8.1.0/include/c++/bits\stl_algobase.h ****    *  @return   An iterator equal to @p first2+(last1-first1).
 159:C:/Program Files/CodeBlocks/MinGW/lib/gcc/x86_64-w64-mingw32/8.1.0/include/c++/bits\stl_algobase.h ****    *
 160:C:/Program Files/CodeBlocks/MinGW/lib/gcc/x86_64-w64-mingw32/8.1.0/include/c++/bits\stl_algobase.h ****    *  Swaps each element in the range @p [first1,last1) with the
 161:C:/Program Files/CodeBlocks/MinGW/lib/gcc/x86_64-w64-mingw32/8.1.0/include/c++/bits\stl_algobase.h ****    *  corresponding element in the range @p [first2,(last1-first1)).
 162:C:/Program Files/CodeBlocks/MinGW/lib/gcc/x86_64-w64-mingw32/8.1.0/include/c++/bits\stl_algobase.h ****    *  The ranges must not overlap.
 163:C:/Program Files/CodeBlocks/MinGW/lib/gcc/x86_64-w64-mingw32/8.1.0/include/c++/bits\stl_algobase.h ****   */
 164:C:/Program Files/CodeBlocks/MinGW/lib/gcc/x86_64-w64-mingw32/8.1.0/include/c++/bits\stl_algobase.h ****   template<typename _ForwardIterator1, typename _ForwardIterator2>
 165:C:/Program Files/CodeBlocks/MinGW/lib/gcc/x86_64-w64-mingw32/8.1.0/include/c++/bits\stl_algobase.h ****     _ForwardIterator2
 166:C:/Program Files/CodeBlocks/MinGW/lib/gcc/x86_64-w64-mingw32/8.1.0/include/c++/bits\stl_algobase.h ****     swap_ranges(_ForwardIterator1 __first1, _ForwardIterator1 __last1,
 167:C:/Program Files/CodeBlocks/MinGW/lib/gcc/x86_64-w64-mingw32/8.1.0/include/c++/bits\stl_algobase.h **** 		_ForwardIterator2 __first2)
 168:C:/Program Files/CodeBlocks/MinGW/lib/gcc/x86_64-w64-mingw32/8.1.0/include/c++/bits\stl_algobase.h ****     {
 169:C:/Program Files/CodeBlocks/MinGW/lib/gcc/x86_64-w64-mingw32/8.1.0/include/c++/bits\stl_algobase.h ****       // concept requirements
 170:C:/Program Files/CodeBlocks/MinGW/lib/gcc/x86_64-w64-mingw32/8.1.0/include/c++/bits\stl_algobase.h ****       __glibcxx_function_requires(_Mutable_ForwardIteratorConcept<
 171:C:/Program Files/CodeBlocks/MinGW/lib/gcc/x86_64-w64-mingw32/8.1.0/include/c++/bits\stl_algobase.h **** 				  _ForwardIterator1>)
 172:C:/Program Files/CodeBlocks/MinGW/lib/gcc/x86_64-w64-mingw32/8.1.0/include/c++/bits\stl_algobase.h ****       __glibcxx_function_requires(_Mutable_ForwardIteratorConcept<
 173:C:/Program Files/CodeBlocks/MinGW/lib/gcc/x86_64-w64-mingw32/8.1.0/include/c++/bits\stl_algobase.h **** 				  _ForwardIterator2>)
 174:C:/Program Files/CodeBlocks/MinGW/lib/gcc/x86_64-w64-mingw32/8.1.0/include/c++/bits\stl_algobase.h ****       __glibcxx_requires_valid_range(__first1, __last1);
 175:C:/Program Files/CodeBlocks/MinGW/lib/gcc/x86_64-w64-mingw32/8.1.0/include/c++/bits\stl_algobase.h **** 
 176:C:/Program Files/CodeBlocks/MinGW/lib/gcc/x86_64-w64-mingw32/8.1.0/include/c++/bits\stl_algobase.h ****       for (; __first1 != __last1; ++__first1, (void)++__first2)
 177:C:/Program Files/CodeBlocks/MinGW/lib/gcc/x86_64-w64-mingw32/8.1.0/include/c++/bits\stl_algobase.h **** 	std::iter_swap(__first1, __first2);
 178:C:/Program Files/CodeBlocks/MinGW/lib/gcc/x86_64-w64-mingw32/8.1.0/include/c++/bits\stl_algobase.h ****       return __first2;
 179:C:/Program Files/CodeBlocks/MinGW/lib/gcc/x86_64-w64-mingw32/8.1.0/include/c++/bits\stl_algobase.h ****     }
 180:C:/Program Files/CodeBlocks/MinGW/lib/gcc/x86_64-w64-mingw32/8.1.0/include/c++/bits\stl_algobase.h **** 
 181:C:/Program Files/CodeBlocks/MinGW/lib/gcc/x86_64-w64-mingw32/8.1.0/include/c++/bits\stl_algobase.h ****   /**
 182:C:/Program Files/CodeBlocks/MinGW/lib/gcc/x86_64-w64-mingw32/8.1.0/include/c++/bits\stl_algobase.h ****    *  @brief This does what you think it does.
 183:C:/Program Files/CodeBlocks/MinGW/lib/gcc/x86_64-w64-mingw32/8.1.0/include/c++/bits\stl_algobase.h ****    *  @ingroup sorting_algorithms
 184:C:/Program Files/CodeBlocks/MinGW/lib/gcc/x86_64-w64-mingw32/8.1.0/include/c++/bits\stl_algobase.h ****    *  @param  __a  A thing of arbitrary type.
 185:C:/Program Files/CodeBlocks/MinGW/lib/gcc/x86_64-w64-mingw32/8.1.0/include/c++/bits\stl_algobase.h ****    *  @param  __b  Another thing of arbitrary type.
 186:C:/Program Files/CodeBlocks/MinGW/lib/gcc/x86_64-w64-mingw32/8.1.0/include/c++/bits\stl_algobase.h ****    *  @return   The lesser of the parameters.
 187:C:/Program Files/CodeBlocks/MinGW/lib/gcc/x86_64-w64-mingw32/8.1.0/include/c++/bits\stl_algobase.h ****    *
 188:C:/Program Files/CodeBlocks/MinGW/lib/gcc/x86_64-w64-mingw32/8.1.0/include/c++/bits\stl_algobase.h ****    *  This is the simple classic generic implementation.  It will work on
 189:C:/Program Files/CodeBlocks/MinGW/lib/gcc/x86_64-w64-mingw32/8.1.0/include/c++/bits\stl_algobase.h ****    *  temporary expressions, since they are only evaluated once, unlike a
 190:C:/Program Files/CodeBlocks/MinGW/lib/gcc/x86_64-w64-mingw32/8.1.0/include/c++/bits\stl_algobase.h ****    *  preprocessor macro.
 191:C:/Program Files/CodeBlocks/MinGW/lib/gcc/x86_64-w64-mingw32/8.1.0/include/c++/bits\stl_algobase.h ****   */
 192:C:/Program Files/CodeBlocks/MinGW/lib/gcc/x86_64-w64-mingw32/8.1.0/include/c++/bits\stl_algobase.h ****   template<typename _Tp>
 193:C:/Program Files/CodeBlocks/MinGW/lib/gcc/x86_64-w64-mingw32/8.1.0/include/c++/bits\stl_algobase.h ****     _GLIBCXX14_CONSTEXPR
 194:C:/Program Files/CodeBlocks/MinGW/lib/gcc/x86_64-w64-mingw32/8.1.0/include/c++/bits\stl_algobase.h ****     inline const _Tp&
 195:C:/Program Files/CodeBlocks/MinGW/lib/gcc/x86_64-w64-mingw32/8.1.0/include/c++/bits\stl_algobase.h ****     min(const _Tp& __a, const _Tp& __b)
 196:C:/Program Files/CodeBlocks/MinGW/lib/gcc/x86_64-w64-mingw32/8.1.0/include/c++/bits\stl_algobase.h ****     {
 197:C:/Program Files/CodeBlocks/MinGW/lib/gcc/x86_64-w64-mingw32/8.1.0/include/c++/bits\stl_algobase.h ****       // concept requirements
 198:C:/Program Files/CodeBlocks/MinGW/lib/gcc/x86_64-w64-mingw32/8.1.0/include/c++/bits\stl_algobase.h ****       __glibcxx_function_requires(_LessThanComparableConcept<_Tp>)
 199:C:/Program Files/CodeBlocks/MinGW/lib/gcc/x86_64-w64-mingw32/8.1.0/include/c++/bits\stl_algobase.h ****       //return __b < __a ? __b : __a;
 200:C:/Program Files/CodeBlocks/MinGW/lib/gcc/x86_64-w64-mingw32/8.1.0/include/c++/bits\stl_algobase.h ****       if (__b < __a)
 201:C:/Program Files/CodeBlocks/MinGW/lib/gcc/x86_64-w64-mingw32/8.1.0/include/c++/bits\stl_algobase.h **** 	return __b;
 202:C:/Program Files/CodeBlocks/MinGW/lib/gcc/x86_64-w64-mingw32/8.1.0/include/c++/bits\stl_algobase.h ****       return __a;
 203:C:/Program Files/CodeBlocks/MinGW/lib/gcc/x86_64-w64-mingw32/8.1.0/include/c++/bits\stl_algobase.h ****     }
 204:C:/Program Files/CodeBlocks/MinGW/lib/gcc/x86_64-w64-mingw32/8.1.0/include/c++/bits\stl_algobase.h **** 
GAS LISTING C:\Users\gabri\AppData\Local\Temp\cc5DSkcw.s 			page 47


 205:C:/Program Files/CodeBlocks/MinGW/lib/gcc/x86_64-w64-mingw32/8.1.0/include/c++/bits\stl_algobase.h ****   /**
 206:C:/Program Files/CodeBlocks/MinGW/lib/gcc/x86_64-w64-mingw32/8.1.0/include/c++/bits\stl_algobase.h ****    *  @brief This does what you think it does.
 207:C:/Program Files/CodeBlocks/MinGW/lib/gcc/x86_64-w64-mingw32/8.1.0/include/c++/bits\stl_algobase.h ****    *  @ingroup sorting_algorithms
 208:C:/Program Files/CodeBlocks/MinGW/lib/gcc/x86_64-w64-mingw32/8.1.0/include/c++/bits\stl_algobase.h ****    *  @param  __a  A thing of arbitrary type.
 209:C:/Program Files/CodeBlocks/MinGW/lib/gcc/x86_64-w64-mingw32/8.1.0/include/c++/bits\stl_algobase.h ****    *  @param  __b  Another thing of arbitrary type.
 210:C:/Program Files/CodeBlocks/MinGW/lib/gcc/x86_64-w64-mingw32/8.1.0/include/c++/bits\stl_algobase.h ****    *  @return   The greater of the parameters.
 211:C:/Program Files/CodeBlocks/MinGW/lib/gcc/x86_64-w64-mingw32/8.1.0/include/c++/bits\stl_algobase.h ****    *
 212:C:/Program Files/CodeBlocks/MinGW/lib/gcc/x86_64-w64-mingw32/8.1.0/include/c++/bits\stl_algobase.h ****    *  This is the simple classic generic implementation.  It will work on
 213:C:/Program Files/CodeBlocks/MinGW/lib/gcc/x86_64-w64-mingw32/8.1.0/include/c++/bits\stl_algobase.h ****    *  temporary expressions, since they are only evaluated once, unlike a
 214:C:/Program Files/CodeBlocks/MinGW/lib/gcc/x86_64-w64-mingw32/8.1.0/include/c++/bits\stl_algobase.h ****    *  preprocessor macro.
 215:C:/Program Files/CodeBlocks/MinGW/lib/gcc/x86_64-w64-mingw32/8.1.0/include/c++/bits\stl_algobase.h ****   */
 216:C:/Program Files/CodeBlocks/MinGW/lib/gcc/x86_64-w64-mingw32/8.1.0/include/c++/bits\stl_algobase.h ****   template<typename _Tp>
 217:C:/Program Files/CodeBlocks/MinGW/lib/gcc/x86_64-w64-mingw32/8.1.0/include/c++/bits\stl_algobase.h ****     _GLIBCXX14_CONSTEXPR
 218:C:/Program Files/CodeBlocks/MinGW/lib/gcc/x86_64-w64-mingw32/8.1.0/include/c++/bits\stl_algobase.h ****     inline const _Tp&
 219:C:/Program Files/CodeBlocks/MinGW/lib/gcc/x86_64-w64-mingw32/8.1.0/include/c++/bits\stl_algobase.h ****     max(const _Tp& __a, const _Tp& __b)
 1518              		.loc 3 219 5
 1519              		.cfi_startproc
 1520 0000 55       		pushq	%rbp
 1521              		.seh_pushreg	%rbp
 1522              		.cfi_def_cfa_offset 16
 1523              		.cfi_offset 6, -16
 1524 0001 4889E5   		movq	%rsp, %rbp
 1525              		.seh_setframe	%rbp, 0
 1526              		.cfi_def_cfa_register 6
 1527              		.seh_endprologue
 1528 0004 48894D10 		movq	%rcx, 16(%rbp)
 1529 0008 48895518 		movq	%rdx, 24(%rbp)
 220:C:/Program Files/CodeBlocks/MinGW/lib/gcc/x86_64-w64-mingw32/8.1.0/include/c++/bits\stl_algobase.h ****     {
 221:C:/Program Files/CodeBlocks/MinGW/lib/gcc/x86_64-w64-mingw32/8.1.0/include/c++/bits\stl_algobase.h ****       // concept requirements
 222:C:/Program Files/CodeBlocks/MinGW/lib/gcc/x86_64-w64-mingw32/8.1.0/include/c++/bits\stl_algobase.h ****       __glibcxx_function_requires(_LessThanComparableConcept<_Tp>)
 223:C:/Program Files/CodeBlocks/MinGW/lib/gcc/x86_64-w64-mingw32/8.1.0/include/c++/bits\stl_algobase.h ****       //return  __a < __b ? __b : __a;
 224:C:/Program Files/CodeBlocks/MinGW/lib/gcc/x86_64-w64-mingw32/8.1.0/include/c++/bits\stl_algobase.h ****       if (__a < __b)
 1530              		.loc 3 224 15
 1531 000c 488B4510 		movq	16(%rbp), %rax
 1532 0010 8B10     		movl	(%rax), %edx
 1533 0012 488B4518 		movq	24(%rbp), %rax
 1534 0016 8B00     		movl	(%rax), %eax
 1535              		.loc 3 224 7
 1536 0018 39C2     		cmpl	%eax, %edx
 1537 001a 7D06     		jge	.L63
 225:C:/Program Files/CodeBlocks/MinGW/lib/gcc/x86_64-w64-mingw32/8.1.0/include/c++/bits\stl_algobase.h **** 	return __b;
 1538              		.loc 3 225 9
 1539 001c 488B4518 		movq	24(%rbp), %rax
 1540 0020 EB04     		jmp	.L64
 1541              	.L63:
 226:C:/Program Files/CodeBlocks/MinGW/lib/gcc/x86_64-w64-mingw32/8.1.0/include/c++/bits\stl_algobase.h ****       return __a;
 1542              		.loc 3 226 14
 1543 0022 488B4510 		movq	16(%rbp), %rax
 1544              	.L64:
 227:C:/Program Files/CodeBlocks/MinGW/lib/gcc/x86_64-w64-mingw32/8.1.0/include/c++/bits\stl_algobase.h ****     }
 1545              		.loc 3 227 5
 1546 0026 5D       		popq	%rbp
 1547              		.cfi_restore 6
 1548              		.cfi_def_cfa 7, 8
 1549 0027 C3       		ret
 1550              		.cfi_endproc
 1551              	.LFE9343:
GAS LISTING C:\Users\gabri\AppData\Local\Temp\cc5DSkcw.s 			page 48


 1552              		.seh_endproc
 1553 0028 90909090 		.text
 1553      90909090 
 1555              		.seh_proc	__tcf_0
 1556              	__tcf_0:
 1557              	.LFB10139:
 1558              		.file 4 "C:/Program Files/CodeBlocks/MinGW/lib/gcc/x86_64-w64-mingw32/8.1.0/include/c++/iostream"
   1:C:/Program Files/CodeBlocks/MinGW/lib/gcc/x86_64-w64-mingw32/8.1.0/include/c++\iostream **** // Standard iostream objects -*- C++ -*-
   2:C:/Program Files/CodeBlocks/MinGW/lib/gcc/x86_64-w64-mingw32/8.1.0/include/c++\iostream **** 
   3:C:/Program Files/CodeBlocks/MinGW/lib/gcc/x86_64-w64-mingw32/8.1.0/include/c++\iostream **** // Copyright (C) 1997-2018 Free Software Foundation, Inc.
   4:C:/Program Files/CodeBlocks/MinGW/lib/gcc/x86_64-w64-mingw32/8.1.0/include/c++\iostream **** //
   5:C:/Program Files/CodeBlocks/MinGW/lib/gcc/x86_64-w64-mingw32/8.1.0/include/c++\iostream **** // This file is part of the GNU ISO C++ Library.  This library is free
   6:C:/Program Files/CodeBlocks/MinGW/lib/gcc/x86_64-w64-mingw32/8.1.0/include/c++\iostream **** // software; you can redistribute it and/or modify it under the
   7:C:/Program Files/CodeBlocks/MinGW/lib/gcc/x86_64-w64-mingw32/8.1.0/include/c++\iostream **** // terms of the GNU General Public License as published by the
   8:C:/Program Files/CodeBlocks/MinGW/lib/gcc/x86_64-w64-mingw32/8.1.0/include/c++\iostream **** // Free Software Foundation; either version 3, or (at your option)
   9:C:/Program Files/CodeBlocks/MinGW/lib/gcc/x86_64-w64-mingw32/8.1.0/include/c++\iostream **** // any later version.
  10:C:/Program Files/CodeBlocks/MinGW/lib/gcc/x86_64-w64-mingw32/8.1.0/include/c++\iostream **** 
  11:C:/Program Files/CodeBlocks/MinGW/lib/gcc/x86_64-w64-mingw32/8.1.0/include/c++\iostream **** // This library is distributed in the hope that it will be useful,
  12:C:/Program Files/CodeBlocks/MinGW/lib/gcc/x86_64-w64-mingw32/8.1.0/include/c++\iostream **** // but WITHOUT ANY WARRANTY; without even the implied warranty of
  13:C:/Program Files/CodeBlocks/MinGW/lib/gcc/x86_64-w64-mingw32/8.1.0/include/c++\iostream **** // MERCHANTABILITY or FITNESS FOR A PARTICULAR PURPOSE.  See the
  14:C:/Program Files/CodeBlocks/MinGW/lib/gcc/x86_64-w64-mingw32/8.1.0/include/c++\iostream **** // GNU General Public License for more details.
  15:C:/Program Files/CodeBlocks/MinGW/lib/gcc/x86_64-w64-mingw32/8.1.0/include/c++\iostream **** 
  16:C:/Program Files/CodeBlocks/MinGW/lib/gcc/x86_64-w64-mingw32/8.1.0/include/c++\iostream **** // Under Section 7 of GPL version 3, you are granted additional
  17:C:/Program Files/CodeBlocks/MinGW/lib/gcc/x86_64-w64-mingw32/8.1.0/include/c++\iostream **** // permissions described in the GCC Runtime Library Exception, version
  18:C:/Program Files/CodeBlocks/MinGW/lib/gcc/x86_64-w64-mingw32/8.1.0/include/c++\iostream **** // 3.1, as published by the Free Software Foundation.
  19:C:/Program Files/CodeBlocks/MinGW/lib/gcc/x86_64-w64-mingw32/8.1.0/include/c++\iostream **** 
  20:C:/Program Files/CodeBlocks/MinGW/lib/gcc/x86_64-w64-mingw32/8.1.0/include/c++\iostream **** // You should have received a copy of the GNU General Public License and
  21:C:/Program Files/CodeBlocks/MinGW/lib/gcc/x86_64-w64-mingw32/8.1.0/include/c++\iostream **** // a copy of the GCC Runtime Library Exception along with this program;
  22:C:/Program Files/CodeBlocks/MinGW/lib/gcc/x86_64-w64-mingw32/8.1.0/include/c++\iostream **** // see the files COPYING3 and COPYING.RUNTIME respectively.  If not, see
  23:C:/Program Files/CodeBlocks/MinGW/lib/gcc/x86_64-w64-mingw32/8.1.0/include/c++\iostream **** // <http://www.gnu.org/licenses/>.
  24:C:/Program Files/CodeBlocks/MinGW/lib/gcc/x86_64-w64-mingw32/8.1.0/include/c++\iostream **** 
  25:C:/Program Files/CodeBlocks/MinGW/lib/gcc/x86_64-w64-mingw32/8.1.0/include/c++\iostream **** /** @file include/iostream
  26:C:/Program Files/CodeBlocks/MinGW/lib/gcc/x86_64-w64-mingw32/8.1.0/include/c++\iostream ****  *  This is a Standard C++ Library header.
  27:C:/Program Files/CodeBlocks/MinGW/lib/gcc/x86_64-w64-mingw32/8.1.0/include/c++\iostream ****  */
  28:C:/Program Files/CodeBlocks/MinGW/lib/gcc/x86_64-w64-mingw32/8.1.0/include/c++\iostream **** 
  29:C:/Program Files/CodeBlocks/MinGW/lib/gcc/x86_64-w64-mingw32/8.1.0/include/c++\iostream **** //
  30:C:/Program Files/CodeBlocks/MinGW/lib/gcc/x86_64-w64-mingw32/8.1.0/include/c++\iostream **** // ISO C++ 14882: 27.3  Standard iostream objects
  31:C:/Program Files/CodeBlocks/MinGW/lib/gcc/x86_64-w64-mingw32/8.1.0/include/c++\iostream **** //
  32:C:/Program Files/CodeBlocks/MinGW/lib/gcc/x86_64-w64-mingw32/8.1.0/include/c++\iostream **** 
  33:C:/Program Files/CodeBlocks/MinGW/lib/gcc/x86_64-w64-mingw32/8.1.0/include/c++\iostream **** #ifndef _GLIBCXX_IOSTREAM
  34:C:/Program Files/CodeBlocks/MinGW/lib/gcc/x86_64-w64-mingw32/8.1.0/include/c++\iostream **** #define _GLIBCXX_IOSTREAM 1
  35:C:/Program Files/CodeBlocks/MinGW/lib/gcc/x86_64-w64-mingw32/8.1.0/include/c++\iostream **** 
  36:C:/Program Files/CodeBlocks/MinGW/lib/gcc/x86_64-w64-mingw32/8.1.0/include/c++\iostream **** #pragma GCC system_header
  37:C:/Program Files/CodeBlocks/MinGW/lib/gcc/x86_64-w64-mingw32/8.1.0/include/c++\iostream **** 
  38:C:/Program Files/CodeBlocks/MinGW/lib/gcc/x86_64-w64-mingw32/8.1.0/include/c++\iostream **** #include <bits/c++config.h>
  39:C:/Program Files/CodeBlocks/MinGW/lib/gcc/x86_64-w64-mingw32/8.1.0/include/c++\iostream **** #include <ostream>
  40:C:/Program Files/CodeBlocks/MinGW/lib/gcc/x86_64-w64-mingw32/8.1.0/include/c++\iostream **** #include <istream>
  41:C:/Program Files/CodeBlocks/MinGW/lib/gcc/x86_64-w64-mingw32/8.1.0/include/c++\iostream **** 
  42:C:/Program Files/CodeBlocks/MinGW/lib/gcc/x86_64-w64-mingw32/8.1.0/include/c++\iostream **** namespace std _GLIBCXX_VISIBILITY(default)
  43:C:/Program Files/CodeBlocks/MinGW/lib/gcc/x86_64-w64-mingw32/8.1.0/include/c++\iostream **** {
  44:C:/Program Files/CodeBlocks/MinGW/lib/gcc/x86_64-w64-mingw32/8.1.0/include/c++\iostream **** _GLIBCXX_BEGIN_NAMESPACE_VERSION
  45:C:/Program Files/CodeBlocks/MinGW/lib/gcc/x86_64-w64-mingw32/8.1.0/include/c++\iostream **** 
  46:C:/Program Files/CodeBlocks/MinGW/lib/gcc/x86_64-w64-mingw32/8.1.0/include/c++\iostream ****   /**
  47:C:/Program Files/CodeBlocks/MinGW/lib/gcc/x86_64-w64-mingw32/8.1.0/include/c++\iostream ****    *  @name Standard Stream Objects
  48:C:/Program Files/CodeBlocks/MinGW/lib/gcc/x86_64-w64-mingw32/8.1.0/include/c++\iostream ****    *
  49:C:/Program Files/CodeBlocks/MinGW/lib/gcc/x86_64-w64-mingw32/8.1.0/include/c++\iostream ****    *  The &lt;iostream&gt; header declares the eight <em>standard stream
  50:C:/Program Files/CodeBlocks/MinGW/lib/gcc/x86_64-w64-mingw32/8.1.0/include/c++\iostream ****    *  objects</em>.  For other declarations, see
GAS LISTING C:\Users\gabri\AppData\Local\Temp\cc5DSkcw.s 			page 49


  51:C:/Program Files/CodeBlocks/MinGW/lib/gcc/x86_64-w64-mingw32/8.1.0/include/c++\iostream ****    *  http://gcc.gnu.org/onlinedocs/libstdc++/manual/io.html
  52:C:/Program Files/CodeBlocks/MinGW/lib/gcc/x86_64-w64-mingw32/8.1.0/include/c++\iostream ****    *  and the @link iosfwd I/O forward declarations @endlink
  53:C:/Program Files/CodeBlocks/MinGW/lib/gcc/x86_64-w64-mingw32/8.1.0/include/c++\iostream ****    *
  54:C:/Program Files/CodeBlocks/MinGW/lib/gcc/x86_64-w64-mingw32/8.1.0/include/c++\iostream ****    *  They are required by default to cooperate with the global C
  55:C:/Program Files/CodeBlocks/MinGW/lib/gcc/x86_64-w64-mingw32/8.1.0/include/c++\iostream ****    *  library's @c FILE streams, and to be available during program
  56:C:/Program Files/CodeBlocks/MinGW/lib/gcc/x86_64-w64-mingw32/8.1.0/include/c++\iostream ****    *  startup and termination. For more information, see the section of the
  57:C:/Program Files/CodeBlocks/MinGW/lib/gcc/x86_64-w64-mingw32/8.1.0/include/c++\iostream ****    *  manual linked to above.
  58:C:/Program Files/CodeBlocks/MinGW/lib/gcc/x86_64-w64-mingw32/8.1.0/include/c++\iostream ****   */
  59:C:/Program Files/CodeBlocks/MinGW/lib/gcc/x86_64-w64-mingw32/8.1.0/include/c++\iostream ****   //@{
  60:C:/Program Files/CodeBlocks/MinGW/lib/gcc/x86_64-w64-mingw32/8.1.0/include/c++\iostream ****   extern istream cin;		/// Linked to standard input
  61:C:/Program Files/CodeBlocks/MinGW/lib/gcc/x86_64-w64-mingw32/8.1.0/include/c++\iostream ****   extern ostream cout;		/// Linked to standard output
  62:C:/Program Files/CodeBlocks/MinGW/lib/gcc/x86_64-w64-mingw32/8.1.0/include/c++\iostream ****   extern ostream cerr;		/// Linked to standard error (unbuffered)
  63:C:/Program Files/CodeBlocks/MinGW/lib/gcc/x86_64-w64-mingw32/8.1.0/include/c++\iostream ****   extern ostream clog;		/// Linked to standard error (buffered)
  64:C:/Program Files/CodeBlocks/MinGW/lib/gcc/x86_64-w64-mingw32/8.1.0/include/c++\iostream **** 
  65:C:/Program Files/CodeBlocks/MinGW/lib/gcc/x86_64-w64-mingw32/8.1.0/include/c++\iostream **** #ifdef _GLIBCXX_USE_WCHAR_T
  66:C:/Program Files/CodeBlocks/MinGW/lib/gcc/x86_64-w64-mingw32/8.1.0/include/c++\iostream ****   extern wistream wcin;		/// Linked to standard input
  67:C:/Program Files/CodeBlocks/MinGW/lib/gcc/x86_64-w64-mingw32/8.1.0/include/c++\iostream ****   extern wostream wcout;	/// Linked to standard output
  68:C:/Program Files/CodeBlocks/MinGW/lib/gcc/x86_64-w64-mingw32/8.1.0/include/c++\iostream ****   extern wostream wcerr;	/// Linked to standard error (unbuffered)
  69:C:/Program Files/CodeBlocks/MinGW/lib/gcc/x86_64-w64-mingw32/8.1.0/include/c++\iostream ****   extern wostream wclog;	/// Linked to standard error (buffered)
  70:C:/Program Files/CodeBlocks/MinGW/lib/gcc/x86_64-w64-mingw32/8.1.0/include/c++\iostream **** #endif
  71:C:/Program Files/CodeBlocks/MinGW/lib/gcc/x86_64-w64-mingw32/8.1.0/include/c++\iostream ****   //@}
  72:C:/Program Files/CodeBlocks/MinGW/lib/gcc/x86_64-w64-mingw32/8.1.0/include/c++\iostream **** 
  73:C:/Program Files/CodeBlocks/MinGW/lib/gcc/x86_64-w64-mingw32/8.1.0/include/c++\iostream ****   // For construction of filebuffers for cout, cin, cerr, clog et. al.
  74:C:/Program Files/CodeBlocks/MinGW/lib/gcc/x86_64-w64-mingw32/8.1.0/include/c++\iostream ****   static ios_base::Init __ioinit;
 1559              		.loc 4 74 25
 1560              		.cfi_startproc
 1561 0230 55       		pushq	%rbp
 1562              		.seh_pushreg	%rbp
 1563              		.cfi_def_cfa_offset 16
 1564              		.cfi_offset 6, -16
 1565 0231 4889E5   		movq	%rsp, %rbp
 1566              		.seh_setframe	%rbp, 0
 1567              		.cfi_def_cfa_register 6
 1568 0234 4883EC20 		subq	$32, %rsp
 1569              		.seh_stackalloc	32
 1570              		.seh_endprologue
 1571              		.loc 4 74 25
 1572 0238 488D0D00 		leaq	_ZStL8__ioinit(%rip), %rcx
 1572      000000
 1573 023f E8000000 		call	_ZNSt8ios_base4InitD1Ev
 1573      00
 1574 0244 90       		nop
 1575 0245 4883C420 		addq	$32, %rsp
 1576 0249 5D       		popq	%rbp
 1577              		.cfi_restore 6
 1578              		.cfi_def_cfa 7, 8
 1579 024a C3       		ret
 1580              		.cfi_endproc
 1581              	.LFE10139:
 1582              		.seh_endproc
 1584              		.seh_proc	_Z41__static_initialization_and_destruction_0ii
 1585              	_Z41__static_initialization_and_destruction_0ii:
 1586              	.LFB10138:
 1587              		.loc 2 249 1
 1588              		.cfi_startproc
 1589 024b 55       		pushq	%rbp
 1590              		.seh_pushreg	%rbp
GAS LISTING C:\Users\gabri\AppData\Local\Temp\cc5DSkcw.s 			page 50


 1591              		.cfi_def_cfa_offset 16
 1592              		.cfi_offset 6, -16
 1593 024c 4889E5   		movq	%rsp, %rbp
 1594              		.seh_setframe	%rbp, 0
 1595              		.cfi_def_cfa_register 6
 1596 024f 4883EC20 		subq	$32, %rsp
 1597              		.seh_stackalloc	32
 1598              		.seh_endprologue
 1599 0253 894D10   		movl	%ecx, 16(%rbp)
 1600 0256 895518   		movl	%edx, 24(%rbp)
 1601              		.loc 2 249 1
 1602 0259 837D1001 		cmpl	$1, 16(%rbp)
 1603 025d 7521     		jne	.L68
 1604              		.loc 2 249 1 is_stmt 0 discriminator 1
 1605 025f 817D18FF 		cmpl	$65535, 24(%rbp)
 1605      FF0000
 1606 0266 7518     		jne	.L68
 1607              		.loc 4 74 25 is_stmt 1
 1608 0268 488D0D00 		leaq	_ZStL8__ioinit(%rip), %rcx
 1608      000000
 1609 026f E8000000 		call	_ZNSt8ios_base4InitC1Ev
 1609      00
 1610 0274 488D0DB5 		leaq	__tcf_0(%rip), %rcx
 1610      FFFFFF
 1611 027b E8000000 		call	atexit
 1611      00
 1612              	.L68:
 1613              		.loc 2 249 1
 1614 0280 90       		nop
 1615 0281 4883C420 		addq	$32, %rsp
 1616 0285 5D       		popq	%rbp
 1617              		.cfi_restore 6
 1618              		.cfi_def_cfa 7, 8
 1619 0286 C3       		ret
 1620              		.cfi_endproc
 1621              	.LFE10138:
 1622              		.seh_endproc
 1624              		.seh_proc	_GLOBAL__sub_I_main
 1625              	_GLOBAL__sub_I_main:
 1626              	.LFB10162:
 1627              		.loc 2 249 1
 1628              		.cfi_startproc
 1629 0287 55       		pushq	%rbp
 1630              		.seh_pushreg	%rbp
 1631              		.cfi_def_cfa_offset 16
 1632              		.cfi_offset 6, -16
 1633 0288 4889E5   		movq	%rsp, %rbp
 1634              		.seh_setframe	%rbp, 0
 1635              		.cfi_def_cfa_register 6
 1636 028b 4883EC20 		subq	$32, %rsp
 1637              		.seh_stackalloc	32
 1638              		.seh_endprologue
 1639              		.loc 2 249 1
 1640 028f BAFFFF00 		movl	$65535, %edx
 1640      00
 1641 0294 B9010000 		movl	$1, %ecx
 1641      00
GAS LISTING C:\Users\gabri\AppData\Local\Temp\cc5DSkcw.s 			page 51


 1642 0299 E8ADFFFF 		call	_Z41__static_initialization_and_destruction_0ii
 1642      FF
 1643 029e 90       		nop
 1644 029f 4883C420 		addq	$32, %rsp
 1645 02a3 5D       		popq	%rbp
 1646              		.cfi_restore 6
 1647              		.cfi_def_cfa 7, 8
 1648 02a4 C3       		ret
 1649              		.cfi_endproc
 1650              	.LFE10162:
 1651              		.seh_endproc
 1652              		.section	.ctors,"w"
 1653              		.align 8
 1654 0000 87020000 		.quad	_GLOBAL__sub_I_main
 1654      00000000 
 1655              		.text
 1656              	.Letext0:
 1657              		.file 5 "C:/Program Files/CodeBlocks/MinGW/lib/gcc/x86_64-w64-mingw32/8.1.0/include/c++/cstdlib"
 1658              		.file 6 "C:/Program Files/CodeBlocks/MinGW/lib/gcc/x86_64-w64-mingw32/8.1.0/include/c++/bits/std_a
 1659              		.file 7 "C:/Program Files/CodeBlocks/MinGW/lib/gcc/x86_64-w64-mingw32/8.1.0/include/c++/clocale"
 1660              		.file 8 "C:/Program Files/CodeBlocks/MinGW/lib/gcc/x86_64-w64-mingw32/8.1.0/include/c++/cmath"
 1661              		.file 9 "C:/Program Files/CodeBlocks/MinGW/lib/gcc/x86_64-w64-mingw32/8.1.0/include/c++/csetjmp"
 1662              		.file 10 "C:/Program Files/CodeBlocks/MinGW/lib/gcc/x86_64-w64-mingw32/8.1.0/include/c++/csignal"
 1663              		.file 11 "C:/Program Files/CodeBlocks/MinGW/lib/gcc/x86_64-w64-mingw32/8.1.0/include/c++/cstdarg"
 1664              		.file 12 "C:/Program Files/CodeBlocks/MinGW/lib/gcc/x86_64-w64-mingw32/8.1.0/include/c++/cstddef"
 1665              		.file 13 "C:/Program Files/CodeBlocks/MinGW/lib/gcc/x86_64-w64-mingw32/8.1.0/include/c++/cstdio"
 1666              		.file 14 "C:/Program Files/CodeBlocks/MinGW/lib/gcc/x86_64-w64-mingw32/8.1.0/include/c++/cstring"
 1667              		.file 15 "C:/Program Files/CodeBlocks/MinGW/lib/gcc/x86_64-w64-mingw32/8.1.0/include/c++/ctime"
 1668              		.file 16 "C:/Program Files/CodeBlocks/MinGW/lib/gcc/x86_64-w64-mingw32/8.1.0/include/c++/cwchar"
 1669              		.file 17 "C:/Program Files/CodeBlocks/MinGW/lib/gcc/x86_64-w64-mingw32/8.1.0/include/c++/new"
 1670              		.file 18 "C:/Program Files/CodeBlocks/MinGW/lib/gcc/x86_64-w64-mingw32/8.1.0/include/c++/bits/exce
 1671              		.file 19 "C:/Program Files/CodeBlocks/MinGW/lib/gcc/x86_64-w64-mingw32/8.1.0/include/c++/type_trai
 1672              		.file 20 "C:/Program Files/CodeBlocks/MinGW/lib/gcc/x86_64-w64-mingw32/8.1.0/include/c++/bits/stl_
 1673              		.file 21 "C:/Program Files/CodeBlocks/MinGW/lib/gcc/x86_64-w64-mingw32/8.1.0/include/c++/debug/deb
 1674              		.file 22 "C:/Program Files/CodeBlocks/MinGW/lib/gcc/x86_64-w64-mingw32/8.1.0/include/c++/bits/char
 1675              		.file 23 "C:/Program Files/CodeBlocks/MinGW/lib/gcc/x86_64-w64-mingw32/8.1.0/include/c++/x86_64-w6
 1676              		.file 24 "C:/Program Files/CodeBlocks/MinGW/lib/gcc/x86_64-w64-mingw32/8.1.0/include/c++/cstdint"
 1677              		.file 25 "C:/Program Files/CodeBlocks/MinGW/lib/gcc/x86_64-w64-mingw32/8.1.0/include/c++/bits/basi
 1678              		.file 26 "C:/Program Files/CodeBlocks/MinGW/lib/gcc/x86_64-w64-mingw32/8.1.0/include/c++/complex"
 1679              		.file 27 "C:/Program Files/CodeBlocks/MinGW/lib/gcc/x86_64-w64-mingw32/8.1.0/include/c++/chrono"
 1680              		.file 28 "C:/Program Files/CodeBlocks/MinGW/lib/gcc/x86_64-w64-mingw32/8.1.0/include/c++/system_er
 1681              		.file 29 "C:/Program Files/CodeBlocks/MinGW/lib/gcc/x86_64-w64-mingw32/8.1.0/include/c++/bits/ios_
 1682              		.file 30 "C:/Program Files/CodeBlocks/MinGW/lib/gcc/x86_64-w64-mingw32/8.1.0/include/c++/cwctype"
 1683              		.file 31 "C:/Program Files/CodeBlocks/MinGW/lib/gcc/x86_64-w64-mingw32/8.1.0/include/c++/fenv.h"
 1684              		.file 32 "C:/Program Files/CodeBlocks/MinGW/lib/gcc/x86_64-w64-mingw32/8.1.0/include/c++/cfenv"
 1685              		.file 33 "C:/Program Files/CodeBlocks/MinGW/lib/gcc/x86_64-w64-mingw32/8.1.0/include/c++/cinttypes
 1686              		.file 34 "C:/Program Files/CodeBlocks/MinGW/lib/gcc/x86_64-w64-mingw32/8.1.0/include/c++/cuchar"
 1687              		.file 35 "C:/Program Files/CodeBlocks/MinGW/lib/gcc/x86_64-w64-mingw32/8.1.0/include/c++/bits/uses
 1688              		.file 36 "C:/Program Files/CodeBlocks/MinGW/lib/gcc/x86_64-w64-mingw32/8.1.0/include/c++/tuple"
 1689              		.file 37 "C:/Program Files/CodeBlocks/MinGW/lib/gcc/x86_64-w64-mingw32/8.1.0/include/c++/functiona
 1690              		.file 38 "C:/Program Files/CodeBlocks/MinGW/lib/gcc/x86_64-w64-mingw32/8.1.0/include/c++/iosfwd"
 1691              		.file 39 "C:/Program Files/CodeBlocks/MinGW/lib/gcc/x86_64-w64-mingw32/8.1.0/include/c++/bits/unif
 1692              		.file 40 "C:/Program Files/CodeBlocks/MinGW/lib/gcc/x86_64-w64-mingw32/8.1.0/include/c++/bits/rege
 1693              		.file 41 "C:/Program Files/CodeBlocks/MinGW/lib/gcc/x86_64-w64-mingw32/8.1.0/include/c++/bits/shar
 1694              		.file 42 "C:/Program Files/CodeBlocks/MinGW/lib/gcc/x86_64-w64-mingw32/8.1.0/include/c++/ratio"
 1695              		.file 43 "C:/Program Files/CodeBlocks/MinGW/lib/gcc/x86_64-w64-mingw32/8.1.0/include/c++/bits/std_
 1696              		.file 44 "C:/Program Files/CodeBlocks/MinGW/lib/gcc/x86_64-w64-mingw32/8.1.0/include/c++/mutex"
GAS LISTING C:\Users\gabri\AppData\Local\Temp\cc5DSkcw.s 			page 52


 1697              		.file 45 "C:/Program Files/CodeBlocks/MinGW/lib/gcc/x86_64-w64-mingw32/8.1.0/include/c++/bits/rand
 1698              		.file 46 "C:/Program Files/CodeBlocks/MinGW/lib/gcc/x86_64-w64-mingw32/8.1.0/include/c++/bits/rege
 1699              		.file 47 "C:/Program Files/CodeBlocks/MinGW/lib/gcc/x86_64-w64-mingw32/8.1.0/include/c++/bits/atom
 1700              		.file 48 "C:/Program Files/CodeBlocks/MinGW/lib/gcc/x86_64-w64-mingw32/8.1.0/include/c++/bits/rege
 1701              		.file 49 "C:/Program Files/CodeBlocks/MinGW/lib/gcc/x86_64-w64-mingw32/8.1.0/include/c++/bits/pred
 1702              		.file 50 "C:/Program Files/CodeBlocks/MinGW/lib/gcc/x86_64-w64-mingw32/8.1.0/include/c++/ext/new_a
 1703              		.file 51 "C:/Program Files/CodeBlocks/MinGW/lib/gcc/x86_64-w64-mingw32/8.1.0/include/c++/ext/numer
 1704              		.file 52 "C:/Program Files/CodeBlocks/MinGW/lib/gcc/x86_64-w64-mingw32/8.1.0/include/c++/ext/concu
 1705              		.file 53 "C:/Program Files/CodeBlocks/MinGW/x86_64-w64-mingw32/include/vadefs.h"
 1706              		.file 54 "C:/Program Files/CodeBlocks/MinGW/x86_64-w64-mingw32/include/crtdefs.h"
 1707              		.file 55 "C:/Program Files/CodeBlocks/MinGW/x86_64-w64-mingw32/include/locale.h"
 1708              		.file 56 "C:/Program Files/CodeBlocks/MinGW/x86_64-w64-mingw32/include/stdlib.h"
 1709              		.file 57 "C:/Program Files/CodeBlocks/MinGW/x86_64-w64-mingw32/include/malloc.h"
 1710              		.file 58 "C:/Program Files/CodeBlocks/MinGW/lib/gcc/x86_64-w64-mingw32/8.1.0/include/c++/stdlib.h"
 1711              		.file 59 "C:/Program Files/CodeBlocks/MinGW/x86_64-w64-mingw32/include/ctype.h"
 1712              		.file 60 "C:/Program Files/CodeBlocks/MinGW/x86_64-w64-mingw32/include/math.h"
 1713              		.file 61 "C:/Program Files/CodeBlocks/MinGW/x86_64-w64-mingw32/include/setjmp.h"
 1714              		.file 62 "C:/Program Files/CodeBlocks/MinGW/x86_64-w64-mingw32/include/signal.h"
 1715              		.file 63 "C:/Program Files/CodeBlocks/MinGW/x86_64-w64-mingw32/include/stddef.h"
 1716              		.file 64 "C:/Program Files/CodeBlocks/MinGW/x86_64-w64-mingw32/include/string.h"
 1717              		.file 65 "C:/Program Files/CodeBlocks/MinGW/x86_64-w64-mingw32/include/time.h"
 1718              		.file 66 "C:/Program Files/CodeBlocks/MinGW/x86_64-w64-mingw32/include/wchar.h"
 1719              		.file 67 "C:/Program Files/CodeBlocks/MinGW/x86_64-w64-mingw32/include/swprintf.inl"
 1720              		.file 68 "C:/Program Files/CodeBlocks/MinGW/x86_64-w64-mingw32/include/stdint.h"
 1721              		.file 69 "C:/Program Files/CodeBlocks/MinGW/x86_64-w64-mingw32/include/process.h"
 1722              		.file 70 "C:/Program Files/CodeBlocks/MinGW/x86_64-w64-mingw32/include/pthread.h"
 1723              		.file 71 "C:/Program Files/CodeBlocks/MinGW/lib/gcc/x86_64-w64-mingw32/8.1.0/include/c++/x86_64-w6
 1724              		.file 72 "C:/Program Files/CodeBlocks/MinGW/x86_64-w64-mingw32/include/wctype.h"
 1725              		.file 73 "C:/Program Files/CodeBlocks/MinGW/x86_64-w64-mingw32/include/fenv.h"
 1726              		.file 74 "C:/Program Files/CodeBlocks/MinGW/x86_64-w64-mingw32/include/inttypes.h"
 1727              		.file 75 "C:/Program Files/CodeBlocks/MinGW/x86_64-w64-mingw32/include/uchar.h"
 1728              		.file 76 "<built-in>"
 1729              		.file 77 "C:/Program Files/CodeBlocks/MinGW/lib/gcc/x86_64-w64-mingw32/8.1.0/include/c++/future"
 1730 02a5 90909090 		.section	.debug_info,"dr"
 1730      90909090 
 1730      909090
 1731              	.Ldebug_info0:
 1732 0000 06820000 		.long	0x8206
 1733 0004 0400     		.word	0x4
 1734 0006 00000000 		.secrel32	.Ldebug_abbrev0
 1735 000a 08       		.byte	0x8
 1736 000b 6F       		.uleb128 0x6f
 1737 000c 474E5520 		.ascii "GNU C++14 8.1.0 -mtune=core2 -march=nocona -g -fexceptions\0"
 1737      432B2B31 
 1737      3420382E 
 1737      312E3020 
 1737      2D6D7475 
 1738 0047 04       		.byte	0x4
 1739 0048 433A5C55 		.ascii "C:\\Users\\gabri\\Documentos\\UFU\\2021-1\\GBD\\GBD-2021-1\\Trabalho 2\\GBDTrabalho2\\main
 1739      73657273 
 1739      5C676162 
 1739      72695C44 
 1739      6F63756D 
 1740 009d 433A5C55 		.ascii "C:\\Users\\gabri\\Documentos\\UFU\\2021-1\\GBD\\GBD-2021-1\\Trabalho 2\\GBDTrabalho2\0"
 1740      73657273 
 1740      5C676162 
 1740      72695C44 
GAS LISTING C:\Users\gabri\AppData\Local\Temp\cc5DSkcw.s 			page 53


 1740      6F63756D 
 1741 00e9 00000000 		.secrel32	.Ldebug_ranges0+0
 1742 00ed 00000000 		.quad	0
 1742      00000000 
 1743 00f5 00000000 		.secrel32	.Ldebug_line0
 1744 00f9 70       		.uleb128 0x70
 1745 00fa 73746400 		.ascii "std\0"
 1746 00fe 4C       		.byte	0x4c
 1747 00ff 00       		.byte	0
 1748 0100 CC400000 		.long	0x40cc
 1749 0104 34       		.uleb128 0x34
 1750 0105 5F5F6378 		.ascii "__cxx11\0"
 1750      78313100 
 1751 010d 17       		.byte	0x17
 1752 010e 0401     		.word	0x104
 1753 0110 41       		.byte	0x41
 1754 0111 2C       		.uleb128 0x2c
 1755 0112 17       		.byte	0x17
 1756 0113 0401     		.word	0x104
 1757 0115 41       		.byte	0x41
 1758 0116 04010000 		.long	0x104
 1759 011a 02       		.uleb128 0x2
 1760 011b 05       		.byte	0x5
 1761 011c 7F       		.byte	0x7f
 1762 011d 0B       		.byte	0xb
 1763 011e 274C0000 		.long	0x4c27
 1764 0122 02       		.uleb128 0x2
 1765 0123 05       		.byte	0x5
 1766 0124 80       		.byte	0x80
 1767 0125 0B       		.byte	0xb
 1768 0126 624C0000 		.long	0x4c62
 1769 012a 02       		.uleb128 0x2
 1770 012b 05       		.byte	0x5
 1771 012c 86       		.byte	0x86
 1772 012d 0B       		.byte	0xb
 1773 012e 834E0000 		.long	0x4e83
 1774 0132 02       		.uleb128 0x2
 1775 0133 05       		.byte	0x5
 1776 0134 8C       		.byte	0x8c
 1777 0135 0B       		.byte	0xb
 1778 0136 9D4E0000 		.long	0x4e9d
 1779 013a 02       		.uleb128 0x2
 1780 013b 05       		.byte	0x5
 1781 013c 8D       		.byte	0x8d
 1782 013d 0B       		.byte	0xb
 1783 013e BB4E0000 		.long	0x4ebb
 1784 0142 02       		.uleb128 0x2
 1785 0143 05       		.byte	0x5
 1786 0144 8E       		.byte	0x8e
 1787 0145 0B       		.byte	0xb
 1788 0146 D34E0000 		.long	0x4ed3
 1789 014a 02       		.uleb128 0x2
 1790 014b 05       		.byte	0x5
 1791 014c 8F       		.byte	0x8f
 1792 014d 0B       		.byte	0xb
 1793 014e EB4E0000 		.long	0x4eeb
 1794 0152 02       		.uleb128 0x2
GAS LISTING C:\Users\gabri\AppData\Local\Temp\cc5DSkcw.s 			page 54


 1795 0153 05       		.byte	0x5
 1796 0154 91       		.byte	0x91
 1797 0155 0B       		.byte	0xb
 1798 0156 404F0000 		.long	0x4f40
 1799 015a 02       		.uleb128 0x2
 1800 015b 05       		.byte	0x5
 1801 015c 94       		.byte	0x94
 1802 015d 0B       		.byte	0xb
 1803 015e 5C4F0000 		.long	0x4f5c
 1804 0162 02       		.uleb128 0x2
 1805 0163 05       		.byte	0x5
 1806 0164 96       		.byte	0x96
 1807 0165 0B       		.byte	0xb
 1808 0166 764F0000 		.long	0x4f76
 1809 016a 02       		.uleb128 0x2
 1810 016b 05       		.byte	0x5
 1811 016c 99       		.byte	0x99
 1812 016d 0B       		.byte	0xb
 1813 016e 934F0000 		.long	0x4f93
 1814 0172 02       		.uleb128 0x2
 1815 0173 05       		.byte	0x5
 1816 0174 9A       		.byte	0x9a
 1817 0175 0B       		.byte	0xb
 1818 0176 B14F0000 		.long	0x4fb1
 1819 017a 02       		.uleb128 0x2
 1820 017b 05       		.byte	0x5
 1821 017c 9B       		.byte	0x9b
 1822 017d 0B       		.byte	0xb
 1823 017e D74F0000 		.long	0x4fd7
 1824 0182 02       		.uleb128 0x2
 1825 0183 05       		.byte	0x5
 1826 0184 9D       		.byte	0x9d
 1827 0185 0B       		.byte	0xb
 1828 0186 FB4F0000 		.long	0x4ffb
 1829 018a 02       		.uleb128 0x2
 1830 018b 05       		.byte	0x5
 1831 018c A3       		.byte	0xa3
 1832 018d 0B       		.byte	0xb
 1833 018e 1F500000 		.long	0x501f
 1834 0192 02       		.uleb128 0x2
 1835 0193 05       		.byte	0x5
 1836 0194 A5       		.byte	0xa5
 1837 0195 0B       		.byte	0xb
 1838 0196 2D500000 		.long	0x502d
 1839 019a 02       		.uleb128 0x2
 1840 019b 05       		.byte	0x5
 1841 019c A6       		.byte	0xa6
 1842 019d 0B       		.byte	0xb
 1843 019e 42500000 		.long	0x5042
 1844 01a2 02       		.uleb128 0x2
 1845 01a3 05       		.byte	0x5
 1846 01a4 A7       		.byte	0xa7
 1847 01a5 0B       		.byte	0xb
 1848 01a6 61500000 		.long	0x5061
 1849 01aa 02       		.uleb128 0x2
 1850 01ab 05       		.byte	0x5
 1851 01ac A8       		.byte	0xa8
GAS LISTING C:\Users\gabri\AppData\Local\Temp\cc5DSkcw.s 			page 55


 1852 01ad 0B       		.byte	0xb
 1853 01ae 85500000 		.long	0x5085
 1854 01b2 02       		.uleb128 0x2
 1855 01b3 05       		.byte	0x5
 1856 01b4 A9       		.byte	0xa9
 1857 01b5 0B       		.byte	0xb
 1858 01b6 AA500000 		.long	0x50aa
 1859 01ba 02       		.uleb128 0x2
 1860 01bb 05       		.byte	0x5
 1861 01bc AB       		.byte	0xab
 1862 01bd 0B       		.byte	0xb
 1863 01be C4500000 		.long	0x50c4
 1864 01c2 02       		.uleb128 0x2
 1865 01c3 05       		.byte	0x5
 1866 01c4 AC       		.byte	0xac
 1867 01c5 0B       		.byte	0xb
 1868 01c6 EA500000 		.long	0x50ea
 1869 01ca 02       		.uleb128 0x2
 1870 01cb 05       		.byte	0x5
 1871 01cc F0       		.byte	0xf0
 1872 01cd 16       		.byte	0x16
 1873 01ce 604E0000 		.long	0x4e60
 1874 01d2 02       		.uleb128 0x2
 1875 01d3 05       		.byte	0x5
 1876 01d4 F5       		.byte	0xf5
 1877 01d5 16       		.byte	0x16
 1878 01d6 2E410000 		.long	0x412e
 1879 01da 02       		.uleb128 0x2
 1880 01db 05       		.byte	0x5
 1881 01dc F6       		.byte	0xf6
 1882 01dd 16       		.byte	0x16
 1883 01de 09510000 		.long	0x5109
 1884 01e2 02       		.uleb128 0x2
 1885 01e3 05       		.byte	0x5
 1886 01e4 F8       		.byte	0xf8
 1887 01e5 16       		.byte	0x16
 1888 01e6 27510000 		.long	0x5127
 1889 01ea 02       		.uleb128 0x2
 1890 01eb 05       		.byte	0x5
 1891 01ec F9       		.byte	0xf9
 1892 01ed 16       		.byte	0x16
 1893 01ee 8B510000 		.long	0x518b
 1894 01f2 02       		.uleb128 0x2
 1895 01f3 05       		.byte	0x5
 1896 01f4 FA       		.byte	0xfa
 1897 01f5 16       		.byte	0x16
 1898 01f6 40510000 		.long	0x5140
 1899 01fa 02       		.uleb128 0x2
 1900 01fb 05       		.byte	0x5
 1901 01fc FB       		.byte	0xfb
 1902 01fd 16       		.byte	0x16
 1903 01fe 65510000 		.long	0x5165
 1904 0202 02       		.uleb128 0x2
 1905 0203 05       		.byte	0x5
 1906 0204 FC       		.byte	0xfc
 1907 0205 16       		.byte	0x16
 1908 0206 AA510000 		.long	0x51aa
GAS LISTING C:\Users\gabri\AppData\Local\Temp\cc5DSkcw.s 			page 56


 1909 020a 28       		.uleb128 0x28
 1910 020b 61627300 		.ascii "abs\0"
 1911 020f 06       		.byte	0x6
 1912 0210 66       		.byte	0x66
 1913 0211 03       		.byte	0x3
 1914 0212 5F5A5374 		.ascii "_ZSt3absg\0"
 1914      33616273 
 1914      6700
 1915 021c 01520000 		.long	0x5201
 1916 0220 2A020000 		.long	0x22a
 1917 0224 01       		.uleb128 0x1
 1918 0225 01520000 		.long	0x5201
 1919 0229 00       		.byte	0
 1920 022a 28       		.uleb128 0x28
 1921 022b 61627300 		.ascii "abs\0"
 1922 022f 06       		.byte	0x6
 1923 0230 54       		.byte	0x54
 1924 0231 03       		.byte	0x3
 1925 0232 5F5A5374 		.ascii "_ZSt3absn\0"
 1925      33616273 
 1925      6E00
 1926 023c 17520000 		.long	0x5217
 1927 0240 4A020000 		.long	0x24a
 1928 0244 01       		.uleb128 0x1
 1929 0245 17520000 		.long	0x5217
 1930 0249 00       		.byte	0
 1931 024a 28       		.uleb128 0x28
 1932 024b 61627300 		.ascii "abs\0"
 1933 024f 06       		.byte	0x6
 1934 0250 4E       		.byte	0x4e
 1935 0251 03       		.byte	0x3
 1936 0252 5F5A5374 		.ascii "_ZSt3abse\0"
 1936      33616273 
 1936      6500
 1937 025c 844C0000 		.long	0x4c84
 1938 0260 6A020000 		.long	0x26a
 1939 0264 01       		.uleb128 0x1
 1940 0265 844C0000 		.long	0x4c84
 1941 0269 00       		.byte	0
 1942 026a 28       		.uleb128 0x28
 1943 026b 61627300 		.ascii "abs\0"
 1944 026f 06       		.byte	0x6
 1945 0270 4A       		.byte	0x4a
 1946 0271 03       		.byte	0x3
 1947 0272 5F5A5374 		.ascii "_ZSt3absf\0"
 1947      33616273 
 1947      6600
 1948 027c 7B4C0000 		.long	0x4c7b
 1949 0280 8A020000 		.long	0x28a
 1950 0284 01       		.uleb128 0x1
 1951 0285 7B4C0000 		.long	0x4c7b
 1952 0289 00       		.byte	0
 1953 028a 28       		.uleb128 0x28
 1954 028b 61627300 		.ascii "abs\0"
 1955 028f 06       		.byte	0x6
 1956 0290 46       		.byte	0x46
 1957 0291 03       		.byte	0x3
GAS LISTING C:\Users\gabri\AppData\Local\Temp\cc5DSkcw.s 			page 57


 1958 0292 5F5A5374 		.ascii "_ZSt3absd\0"
 1958      33616273 
 1958      6400
 1959 029c 714C0000 		.long	0x4c71
 1960 02a0 AA020000 		.long	0x2aa
 1961 02a4 01       		.uleb128 0x1
 1962 02a5 714C0000 		.long	0x4c71
 1963 02a9 00       		.byte	0
 1964 02aa 28       		.uleb128 0x28
 1965 02ab 61627300 		.ascii "abs\0"
 1966 02af 06       		.byte	0x6
 1967 02b0 3D       		.byte	0x3d
 1968 02b1 03       		.byte	0x3
 1969 02b2 5F5A5374 		.ascii "_ZSt3absx\0"
 1969      33616273 
 1969      7800
 1970 02bc D1450000 		.long	0x45d1
 1971 02c0 CA020000 		.long	0x2ca
 1972 02c4 01       		.uleb128 0x1
 1973 02c5 D1450000 		.long	0x45d1
 1974 02c9 00       		.byte	0
 1975 02ca 28       		.uleb128 0x28
 1976 02cb 61627300 		.ascii "abs\0"
 1977 02cf 06       		.byte	0x6
 1978 02d0 38       		.byte	0x38
 1979 02d1 03       		.byte	0x3
 1980 02d2 5F5A5374 		.ascii "_ZSt3absl\0"
 1980      33616273 
 1980      6C00
 1981 02dc 51460000 		.long	0x4651
 1982 02e0 EA020000 		.long	0x2ea
 1983 02e4 01       		.uleb128 0x1
 1984 02e5 51460000 		.long	0x4651
 1985 02e9 00       		.byte	0
 1986 02ea 28       		.uleb128 0x28
 1987 02eb 64697600 		.ascii "div\0"
 1988 02ef 05       		.byte	0x5
 1989 02f0 B1       		.byte	0xb1
 1990 02f1 03       		.byte	0x3
 1991 02f2 5F5A5374 		.ascii "_ZSt3divll\0"
 1991      33646976 
 1991      6C6C00
 1992 02fd 624C0000 		.long	0x4c62
 1993 0301 10030000 		.long	0x310
 1994 0305 01       		.uleb128 0x1
 1995 0306 51460000 		.long	0x4651
 1996 030a 01       		.uleb128 0x1
 1997 030b 51460000 		.long	0x4651
 1998 030f 00       		.byte	0
 1999 0310 02       		.uleb128 0x2
 2000 0311 07       		.byte	0x7
 2001 0312 35       		.byte	0x35
 2002 0313 0B       		.byte	0xb
 2003 0314 054A0000 		.long	0x4a05
 2004 0318 02       		.uleb128 0x2
 2005 0319 07       		.byte	0x7
 2006 031a 36       		.byte	0x36
GAS LISTING C:\Users\gabri\AppData\Local\Temp\cc5DSkcw.s 			page 58


 2007 031b 0B       		.byte	0xb
 2008 031c C0540000 		.long	0x54c0
 2009 0320 02       		.uleb128 0x2
 2010 0321 07       		.byte	0x7
 2011 0322 37       		.byte	0x37
 2012 0323 0B       		.byte	0xb
 2013 0324 E1540000 		.long	0x54e1
 2014 0328 19       		.uleb128 0x19
 2015 0329 08       		.byte	0x8
 2016 032a 2904     		.word	0x429
 2017 032c 0B       		.byte	0xb
 2018 032d 40550000 		.long	0x5540
 2019 0331 19       		.uleb128 0x19
 2020 0332 08       		.byte	0x8
 2021 0333 2A04     		.word	0x42a
 2022 0335 0B       		.byte	0xb
 2023 0336 2F550000 		.long	0x552f
 2024 033a 02       		.uleb128 0x2
 2025 033b 09       		.byte	0x9
 2026 033c 39       		.byte	0x39
 2027 033d 0B       		.byte	0xb
 2028 033e C6550000 		.long	0x55c6
 2029 0342 02       		.uleb128 0x2
 2030 0343 09       		.byte	0x9
 2031 0344 3A       		.byte	0x3a
 2032 0345 0B       		.byte	0xb
 2033 0346 E9550000 		.long	0x55e9
 2034 034a 02       		.uleb128 0x2
 2035 034b 0A       		.byte	0xa
 2036 034c 34       		.byte	0x34
 2037 034d 0B       		.byte	0xb
 2038 034e 0C560000 		.long	0x560c
 2039 0352 02       		.uleb128 0x2
 2040 0353 0A       		.byte	0xa
 2041 0354 35       		.byte	0x35
 2042 0355 0B       		.byte	0xb
 2043 0356 47560000 		.long	0x5647
 2044 035a 02       		.uleb128 0x2
 2045 035b 0A       		.byte	0xa
 2046 035c 36       		.byte	0x36
 2047 035d 0B       		.byte	0xb
 2048 035e 65560000 		.long	0x5665
 2049 0362 02       		.uleb128 0x2
 2050 0363 0B       		.byte	0xb
 2051 0364 37       		.byte	0x37
 2052 0365 0B       		.byte	0xb
 2053 0366 93450000 		.long	0x4593
 2054 036a 02       		.uleb128 0x2
 2055 036b 0C       		.byte	0xc
 2056 036c 38       		.byte	0x38
 2057 036d 0B       		.byte	0xb
 2058 036e CC560000 		.long	0x56cc
 2059 0372 02       		.uleb128 0x2
 2060 0373 0D       		.byte	0xd
 2061 0374 62       		.byte	0x62
 2062 0375 0B       		.byte	0xb
 2063 0376 9F540000 		.long	0x549f
GAS LISTING C:\Users\gabri\AppData\Local\Temp\cc5DSkcw.s 			page 59


 2064 037a 02       		.uleb128 0x2
 2065 037b 0D       		.byte	0xd
 2066 037c 63       		.byte	0x63
 2067 037d 0B       		.byte	0xb
 2068 037e AC540000 		.long	0x54ac
 2069 0382 02       		.uleb128 0x2
 2070 0383 0D       		.byte	0xd
 2071 0384 65       		.byte	0x65
 2072 0385 0B       		.byte	0xb
 2073 0386 E3560000 		.long	0x56e3
 2074 038a 02       		.uleb128 0x2
 2075 038b 0D       		.byte	0xd
 2076 038c 66       		.byte	0x66
 2077 038d 0B       		.byte	0xb
 2078 038e 01570000 		.long	0x5701
 2079 0392 02       		.uleb128 0x2
 2080 0393 0D       		.byte	0xd
 2081 0394 67       		.byte	0x67
 2082 0395 0B       		.byte	0xb
 2083 0396 1B570000 		.long	0x571b
 2084 039a 02       		.uleb128 0x2
 2085 039b 0D       		.byte	0xd
 2086 039c 68       		.byte	0x68
 2087 039d 0B       		.byte	0xb
 2088 039e 33570000 		.long	0x5733
 2089 03a2 02       		.uleb128 0x2
 2090 03a3 0D       		.byte	0xd
 2091 03a4 69       		.byte	0x69
 2092 03a5 0B       		.byte	0xb
 2093 03a6 4D570000 		.long	0x574d
 2094 03aa 02       		.uleb128 0x2
 2095 03ab 0D       		.byte	0xd
 2096 03ac 6A       		.byte	0x6a
 2097 03ad 0B       		.byte	0xb
 2098 03ae 67570000 		.long	0x5767
 2099 03b2 02       		.uleb128 0x2
 2100 03b3 0D       		.byte	0xd
 2101 03b4 6B       		.byte	0x6b
 2102 03b5 0B       		.byte	0xb
 2103 03b6 80570000 		.long	0x5780
 2104 03ba 02       		.uleb128 0x2
 2105 03bb 0D       		.byte	0xd
 2106 03bc 6C       		.byte	0x6c
 2107 03bd 0B       		.byte	0xb
 2108 03be A6570000 		.long	0x57a6
 2109 03c2 02       		.uleb128 0x2
 2110 03c3 0D       		.byte	0xd
 2111 03c4 6D       		.byte	0x6d
 2112 03c5 0B       		.byte	0xb
 2113 03c6 C9570000 		.long	0x57c9
 2114 03ca 02       		.uleb128 0x2
 2115 03cb 0D       		.byte	0xd
 2116 03cc 6E       		.byte	0x6e
 2117 03cd 0B       		.byte	0xb
 2118 03ce E7570000 		.long	0x57e7
 2119 03d2 02       		.uleb128 0x2
 2120 03d3 0D       		.byte	0xd
GAS LISTING C:\Users\gabri\AppData\Local\Temp\cc5DSkcw.s 			page 60


 2121 03d4 71       		.byte	0x71
 2122 03d5 0B       		.byte	0xb
 2123 03d6 1F580000 		.long	0x581f
 2124 03da 02       		.uleb128 0x2
 2125 03db 0D       		.byte	0xd
 2126 03dc 72       		.byte	0x72
 2127 03dd 0B       		.byte	0xb
 2128 03de 47580000 		.long	0x5847
 2129 03e2 02       		.uleb128 0x2
 2130 03e3 0D       		.byte	0xd
 2131 03e4 73       		.byte	0x73
 2132 03e5 0B       		.byte	0xb
 2133 03e6 6C580000 		.long	0x586c
 2134 03ea 02       		.uleb128 0x2
 2135 03eb 0D       		.byte	0xd
 2136 03ec 74       		.byte	0x74
 2137 03ed 0B       		.byte	0xb
 2138 03ee A2580000 		.long	0x58a2
 2139 03f2 02       		.uleb128 0x2
 2140 03f3 0D       		.byte	0xd
 2141 03f4 75       		.byte	0x75
 2142 03f5 0B       		.byte	0xb
 2143 03f6 C5580000 		.long	0x58c5
 2144 03fa 02       		.uleb128 0x2
 2145 03fb 0D       		.byte	0xd
 2146 03fc 76       		.byte	0x76
 2147 03fd 0B       		.byte	0xb
 2148 03fe EB580000 		.long	0x58eb
 2149 0402 02       		.uleb128 0x2
 2150 0403 0D       		.byte	0xd
 2151 0404 78       		.byte	0x78
 2152 0405 0B       		.byte	0xb
 2153 0406 04590000 		.long	0x5904
 2154 040a 02       		.uleb128 0x2
 2155 040b 0D       		.byte	0xd
 2156 040c 79       		.byte	0x79
 2157 040d 0B       		.byte	0xb
 2158 040e 1C590000 		.long	0x591c
 2159 0412 02       		.uleb128 0x2
 2160 0413 0D       		.byte	0xd
 2161 0414 7E       		.byte	0x7e
 2162 0415 0B       		.byte	0xb
 2163 0416 2D590000 		.long	0x592d
 2164 041a 02       		.uleb128 0x2
 2165 041b 0D       		.byte	0xd
 2166 041c 7F       		.byte	0x7f
 2167 041d 0B       		.byte	0xb
 2168 041e 43590000 		.long	0x5943
 2169 0422 02       		.uleb128 0x2
 2170 0423 0D       		.byte	0xd
 2171 0424 83       		.byte	0x83
 2172 0425 0B       		.byte	0xb
 2173 0426 B7590000 		.long	0x59b7
 2174 042a 02       		.uleb128 0x2
 2175 042b 0D       		.byte	0xd
 2176 042c 84       		.byte	0x84
 2177 042d 0B       		.byte	0xb
GAS LISTING C:\Users\gabri\AppData\Local\Temp\cc5DSkcw.s 			page 61


 2178 042e D1590000 		.long	0x59d1
 2179 0432 02       		.uleb128 0x2
 2180 0433 0D       		.byte	0xd
 2181 0434 85       		.byte	0x85
 2182 0435 0B       		.byte	0xb
 2183 0436 F0590000 		.long	0x59f0
 2184 043a 02       		.uleb128 0x2
 2185 043b 0D       		.byte	0xd
 2186 043c 86       		.byte	0x86
 2187 043d 0B       		.byte	0xb
 2188 043e 065A0000 		.long	0x5a06
 2189 0442 02       		.uleb128 0x2
 2190 0443 0D       		.byte	0xd
 2191 0444 87       		.byte	0x87
 2192 0445 0B       		.byte	0xb
 2193 0446 785A0000 		.long	0x5a78
 2194 044a 02       		.uleb128 0x2
 2195 044b 0D       		.byte	0xd
 2196 044c 88       		.byte	0x88
 2197 044d 0B       		.byte	0xb
 2198 044e 935A0000 		.long	0x5a93
 2199 0452 02       		.uleb128 0x2
 2200 0453 0D       		.byte	0xd
 2201 0454 89       		.byte	0x89
 2202 0455 0B       		.byte	0xb
 2203 0456 BD5A0000 		.long	0x5abd
 2204 045a 02       		.uleb128 0x2
 2205 045b 0D       		.byte	0xd
 2206 045c 8A       		.byte	0x8a
 2207 045d 0B       		.byte	0xb
 2208 045e EF5A0000 		.long	0x5aef
 2209 0462 02       		.uleb128 0x2
 2210 0463 0D       		.byte	0xd
 2211 0464 8B       		.byte	0x8b
 2212 0465 0B       		.byte	0xb
 2213 0466 205B0000 		.long	0x5b20
 2214 046a 02       		.uleb128 0x2
 2215 046b 0D       		.byte	0xd
 2216 046c 8D       		.byte	0x8d
 2217 046d 0B       		.byte	0xb
 2218 046e 315B0000 		.long	0x5b31
 2219 0472 02       		.uleb128 0x2
 2220 0473 0D       		.byte	0xd
 2221 0474 8F       		.byte	0x8f
 2222 0475 0B       		.byte	0xb
 2223 0476 4B5B0000 		.long	0x5b4b
 2224 047a 02       		.uleb128 0x2
 2225 047b 0D       		.byte	0xd
 2226 047c 90       		.byte	0x90
 2227 047d 0B       		.byte	0xb
 2228 047e 6A5B0000 		.long	0x5b6a
 2229 0482 02       		.uleb128 0x2
 2230 0483 0D       		.byte	0xd
 2231 0484 91       		.byte	0x91
 2232 0485 0B       		.byte	0xb
 2233 0486 A95B0000 		.long	0x5ba9
 2234 048a 02       		.uleb128 0x2
GAS LISTING C:\Users\gabri\AppData\Local\Temp\cc5DSkcw.s 			page 62


 2235 048b 0D       		.byte	0xd
 2236 048c 92       		.byte	0x92
 2237 048d 0B       		.byte	0xb
 2238 048e D95B0000 		.long	0x5bd9
 2239 0492 02       		.uleb128 0x2
 2240 0493 0D       		.byte	0xd
 2241 0494 B9       		.byte	0xb9
 2242 0495 16       		.byte	0x16
 2243 0496 125C0000 		.long	0x5c12
 2244 049a 02       		.uleb128 0x2
 2245 049b 0D       		.byte	0xd
 2246 049c BA       		.byte	0xba
 2247 049d 16       		.byte	0x16
 2248 049e 4C5C0000 		.long	0x5c4c
 2249 04a2 02       		.uleb128 0x2
 2250 04a3 0D       		.byte	0xd
 2251 04a4 BB       		.byte	0xbb
 2252 04a5 16       		.byte	0x16
 2253 04a6 895C0000 		.long	0x5c89
 2254 04aa 02       		.uleb128 0x2
 2255 04ab 0D       		.byte	0xd
 2256 04ac BC       		.byte	0xbc
 2257 04ad 16       		.byte	0x16
 2258 04ae B75C0000 		.long	0x5cb7
 2259 04b2 02       		.uleb128 0x2
 2260 04b3 0D       		.byte	0xd
 2261 04b4 BD       		.byte	0xbd
 2262 04b5 16       		.byte	0x16
 2263 04b6 F85C0000 		.long	0x5cf8
 2264 04ba 02       		.uleb128 0x2
 2265 04bb 0E       		.byte	0xe
 2266 04bc 52       		.byte	0x52
 2267 04bd 0B       		.byte	0xb
 2268 04be 305D0000 		.long	0x5d30
 2269 04c2 02       		.uleb128 0x2
 2270 04c3 0E       		.byte	0xe
 2271 04c4 55       		.byte	0x55
 2272 04c5 0B       		.byte	0xb
 2273 04c6 4F5D0000 		.long	0x5d4f
 2274 04ca 02       		.uleb128 0x2
 2275 04cb 0E       		.byte	0xe
 2276 04cc 5B       		.byte	0x5b
 2277 04cd 0B       		.byte	0xb
 2278 04ce 6A5D0000 		.long	0x5d6a
 2279 04d2 02       		.uleb128 0x2
 2280 04d3 0E       		.byte	0xe
 2281 04d4 5C       		.byte	0x5c
 2282 04d5 0B       		.byte	0xb
 2283 04d6 885D0000 		.long	0x5d88
 2284 04da 02       		.uleb128 0x2
 2285 04db 0F       		.byte	0xf
 2286 04dc 3C       		.byte	0x3c
 2287 04dd 0B       		.byte	0xb
 2288 04de AC5D0000 		.long	0x5dac
 2289 04e2 02       		.uleb128 0x2
 2290 04e3 0F       		.byte	0xf
 2291 04e4 3D       		.byte	0x3d
GAS LISTING C:\Users\gabri\AppData\Local\Temp\cc5DSkcw.s 			page 63


 2292 04e5 0B       		.byte	0xb
 2293 04e6 70460000 		.long	0x4670
 2294 04ea 02       		.uleb128 0x2
 2295 04eb 0F       		.byte	0xf
 2296 04ec 3E       		.byte	0x3e
 2297 04ed 0B       		.byte	0xb
 2298 04ee BC5D0000 		.long	0x5dbc
 2299 04f2 02       		.uleb128 0x2
 2300 04f3 0F       		.byte	0xf
 2301 04f4 40       		.byte	0x40
 2302 04f5 0B       		.byte	0xb
 2303 04f6 EE5E0000 		.long	0x5eee
 2304 04fa 02       		.uleb128 0x2
 2305 04fb 0F       		.byte	0xf
 2306 04fc 41       		.byte	0x41
 2307 04fd 0B       		.byte	0xb
 2308 04fe FC5E0000 		.long	0x5efc
 2309 0502 02       		.uleb128 0x2
 2310 0503 0F       		.byte	0xf
 2311 0504 42       		.byte	0x42
 2312 0505 0B       		.byte	0xb
 2313 0506 1C5F0000 		.long	0x5f1c
 2314 050a 02       		.uleb128 0x2
 2315 050b 0F       		.byte	0xf
 2316 050c 43       		.byte	0x43
 2317 050d 0B       		.byte	0xb
 2318 050e 3B5F0000 		.long	0x5f3b
 2319 0512 02       		.uleb128 0x2
 2320 0513 0F       		.byte	0xf
 2321 0514 44       		.byte	0x44
 2322 0515 0B       		.byte	0xb
 2323 0516 585F0000 		.long	0x5f58
 2324 051a 02       		.uleb128 0x2
 2325 051b 0F       		.byte	0xf
 2326 051c 45       		.byte	0x45
 2327 051d 0B       		.byte	0xb
 2328 051e 785F0000 		.long	0x5f78
 2329 0522 02       		.uleb128 0x2
 2330 0523 0F       		.byte	0xf
 2331 0524 46       		.byte	0x46
 2332 0525 0B       		.byte	0xb
 2333 0526 965F0000 		.long	0x5f96
 2334 052a 02       		.uleb128 0x2
 2335 052b 0F       		.byte	0xf
 2336 052c 47       		.byte	0x47
 2337 052d 0B       		.byte	0xb
 2338 052e AF5F0000 		.long	0x5faf
 2339 0532 02       		.uleb128 0x2
 2340 0533 10       		.byte	0x10
 2341 0534 40       		.byte	0x40
 2342 0535 0B       		.byte	0xb
 2343 0536 CB5F0000 		.long	0x5fcb
 2344 053a 02       		.uleb128 0x2
 2345 053b 10       		.byte	0x10
 2346 053c 8B       		.byte	0x8b
 2347 053d 0B       		.byte	0xb
 2348 053e 0A460000 		.long	0x460a
GAS LISTING C:\Users\gabri\AppData\Local\Temp\cc5DSkcw.s 			page 64


 2349 0542 02       		.uleb128 0x2
 2350 0543 10       		.byte	0x10
 2351 0544 8D       		.byte	0x8d
 2352 0545 0B       		.byte	0xb
 2353 0546 E35F0000 		.long	0x5fe3
 2354 054a 02       		.uleb128 0x2
 2355 054b 10       		.byte	0x10
 2356 054c 8E       		.byte	0x8e
 2357 054d 0B       		.byte	0xb
 2358 054e FC5F0000 		.long	0x5ffc
 2359 0552 02       		.uleb128 0x2
 2360 0553 10       		.byte	0x10
 2361 0554 8F       		.byte	0x8f
 2362 0555 0B       		.byte	0xb
 2363 0556 16600000 		.long	0x6016
 2364 055a 02       		.uleb128 0x2
 2365 055b 10       		.byte	0x10
 2366 055c 90       		.byte	0x90
 2367 055d 0B       		.byte	0xb
 2368 055e 3A600000 		.long	0x603a
 2369 0562 02       		.uleb128 0x2
 2370 0563 10       		.byte	0x10
 2371 0564 91       		.byte	0x91
 2372 0565 0B       		.byte	0xb
 2373 0566 59600000 		.long	0x6059
 2374 056a 02       		.uleb128 0x2
 2375 056b 10       		.byte	0x10
 2376 056c 92       		.byte	0x92
 2377 056d 0B       		.byte	0xb
 2378 056e 78600000 		.long	0x6078
 2379 0572 02       		.uleb128 0x2
 2380 0573 10       		.byte	0x10
 2381 0574 93       		.byte	0x93
 2382 0575 0B       		.byte	0xb
 2383 0576 96600000 		.long	0x6096
 2384 057a 02       		.uleb128 0x2
 2385 057b 10       		.byte	0x10
 2386 057c 94       		.byte	0x94
 2387 057d 0B       		.byte	0xb
 2388 057e B8600000 		.long	0x60b8
 2389 0582 02       		.uleb128 0x2
 2390 0583 10       		.byte	0x10
 2391 0584 95       		.byte	0x95
 2392 0585 0B       		.byte	0xb
 2393 0586 D9600000 		.long	0x60d9
 2394 058a 02       		.uleb128 0x2
 2395 058b 10       		.byte	0x10
 2396 058c 96       		.byte	0x96
 2397 058d 0B       		.byte	0xb
 2398 058e F2600000 		.long	0x60f2
 2399 0592 02       		.uleb128 0x2
 2400 0593 10       		.byte	0x10
 2401 0594 97       		.byte	0x97
 2402 0595 0B       		.byte	0xb
 2403 0596 04610000 		.long	0x6104
 2404 059a 02       		.uleb128 0x2
 2405 059b 10       		.byte	0x10
GAS LISTING C:\Users\gabri\AppData\Local\Temp\cc5DSkcw.s 			page 65


 2406 059c 98       		.byte	0x98
 2407 059d 0B       		.byte	0xb
 2408 059e 2E610000 		.long	0x612e
 2409 05a2 02       		.uleb128 0x2
 2410 05a3 10       		.byte	0x10
 2411 05a4 99       		.byte	0x99
 2412 05a5 0B       		.byte	0xb
 2413 05a6 58610000 		.long	0x6158
 2414 05aa 02       		.uleb128 0x2
 2415 05ab 10       		.byte	0x10
 2416 05ac 9A       		.byte	0x9a
 2417 05ad 0B       		.byte	0xb
 2418 05ae 79610000 		.long	0x6179
 2419 05b2 02       		.uleb128 0x2
 2420 05b3 10       		.byte	0x10
 2421 05b4 9B       		.byte	0x9b
 2422 05b5 0B       		.byte	0xb
 2423 05b6 AB610000 		.long	0x61ab
 2424 05ba 02       		.uleb128 0x2
 2425 05bb 10       		.byte	0x10
 2426 05bc 9C       		.byte	0x9c
 2427 05bd 0B       		.byte	0xb
 2428 05be C9610000 		.long	0x61c9
 2429 05c2 02       		.uleb128 0x2
 2430 05c3 10       		.byte	0x10
 2431 05c4 9E       		.byte	0x9e
 2432 05c5 0B       		.byte	0xb
 2433 05c6 E5610000 		.long	0x61e5
 2434 05ca 02       		.uleb128 0x2
 2435 05cb 10       		.byte	0x10
 2436 05cc 9E       		.byte	0x9e
 2437 05cd 0B       		.byte	0xb
 2438 05ce 01620000 		.long	0x6201
 2439 05d2 02       		.uleb128 0x2
 2440 05d3 10       		.byte	0x10
 2441 05d4 A0       		.byte	0xa0
 2442 05d5 0B       		.byte	0xb
 2443 05d6 22620000 		.long	0x6222
 2444 05da 02       		.uleb128 0x2
 2445 05db 10       		.byte	0x10
 2446 05dc A1       		.byte	0xa1
 2447 05dd 0B       		.byte	0xb
 2448 05de 43620000 		.long	0x6243
 2449 05e2 02       		.uleb128 0x2
 2450 05e3 10       		.byte	0x10
 2451 05e4 A2       		.byte	0xa2
 2452 05e5 0B       		.byte	0xb
 2453 05e6 63620000 		.long	0x6263
 2454 05ea 02       		.uleb128 0x2
 2455 05eb 10       		.byte	0x10
 2456 05ec A4       		.byte	0xa4
 2457 05ed 0B       		.byte	0xb
 2458 05ee 8A620000 		.long	0x628a
 2459 05f2 02       		.uleb128 0x2
 2460 05f3 10       		.byte	0x10
 2461 05f4 A7       		.byte	0xa7
 2462 05f5 0B       		.byte	0xb
GAS LISTING C:\Users\gabri\AppData\Local\Temp\cc5DSkcw.s 			page 66


 2463 05f6 B0620000 		.long	0x62b0
 2464 05fa 02       		.uleb128 0x2
 2465 05fb 10       		.byte	0x10
 2466 05fc A7       		.byte	0xa7
 2467 05fd 0B       		.byte	0xb
 2468 05fe D0620000 		.long	0x62d0
 2469 0602 02       		.uleb128 0x2
 2470 0603 10       		.byte	0x10
 2471 0604 AA       		.byte	0xaa
 2472 0605 0B       		.byte	0xb
 2473 0606 F5620000 		.long	0x62f5
 2474 060a 02       		.uleb128 0x2
 2475 060b 10       		.byte	0x10
 2476 060c AC       		.byte	0xac
 2477 060d 0B       		.byte	0xb
 2478 060e 1B630000 		.long	0x631b
 2479 0612 02       		.uleb128 0x2
 2480 0613 10       		.byte	0x10
 2481 0614 AE       		.byte	0xae
 2482 0615 0B       		.byte	0xb
 2483 0616 3C630000 		.long	0x633c
 2484 061a 02       		.uleb128 0x2
 2485 061b 10       		.byte	0x10
 2486 061c B0       		.byte	0xb0
 2487 061d 0B       		.byte	0xb
 2488 061e 5C630000 		.long	0x635c
 2489 0622 02       		.uleb128 0x2
 2490 0623 10       		.byte	0x10
 2491 0624 B1       		.byte	0xb1
 2492 0625 0B       		.byte	0xb
 2493 0626 81630000 		.long	0x6381
 2494 062a 02       		.uleb128 0x2
 2495 062b 10       		.byte	0x10
 2496 062c B2       		.byte	0xb2
 2497 062d 0B       		.byte	0xb
 2498 062e 9F630000 		.long	0x639f
 2499 0632 02       		.uleb128 0x2
 2500 0633 10       		.byte	0x10
 2501 0634 B3       		.byte	0xb3
 2502 0635 0B       		.byte	0xb
 2503 0636 BD630000 		.long	0x63bd
 2504 063a 02       		.uleb128 0x2
 2505 063b 10       		.byte	0x10
 2506 063c B4       		.byte	0xb4
 2507 063d 0B       		.byte	0xb
 2508 063e DC630000 		.long	0x63dc
 2509 0642 02       		.uleb128 0x2
 2510 0643 10       		.byte	0x10
 2511 0644 B5       		.byte	0xb5
 2512 0645 0B       		.byte	0xb
 2513 0646 FA630000 		.long	0x63fa
 2514 064a 02       		.uleb128 0x2
 2515 064b 10       		.byte	0x10
 2516 064c B6       		.byte	0xb6
 2517 064d 0B       		.byte	0xb
 2518 064e 19640000 		.long	0x6419
 2519 0652 02       		.uleb128 0x2
GAS LISTING C:\Users\gabri\AppData\Local\Temp\cc5DSkcw.s 			page 67


 2520 0653 10       		.byte	0x10
 2521 0654 B7       		.byte	0xb7
 2522 0655 0B       		.byte	0xb
 2523 0656 43640000 		.long	0x6443
 2524 065a 02       		.uleb128 0x2
 2525 065b 10       		.byte	0x10
 2526 065c B8       		.byte	0xb8
 2527 065d 0B       		.byte	0xb
 2528 065e 5C640000 		.long	0x645c
 2529 0662 02       		.uleb128 0x2
 2530 0663 10       		.byte	0x10
 2531 0664 B9       		.byte	0xb9
 2532 0665 0B       		.byte	0xb
 2533 0666 80640000 		.long	0x6480
 2534 066a 02       		.uleb128 0x2
 2535 066b 10       		.byte	0x10
 2536 066c BA       		.byte	0xba
 2537 066d 0B       		.byte	0xb
 2538 066e A4640000 		.long	0x64a4
 2539 0672 02       		.uleb128 0x2
 2540 0673 10       		.byte	0x10
 2541 0674 BB       		.byte	0xbb
 2542 0675 0B       		.byte	0xb
 2543 0676 C8640000 		.long	0x64c8
 2544 067a 02       		.uleb128 0x2
 2545 067b 10       		.byte	0x10
 2546 067c BC       		.byte	0xbc
 2547 067d 0B       		.byte	0xb
 2548 067e FA640000 		.long	0x64fa
 2549 0682 02       		.uleb128 0x2
 2550 0683 10       		.byte	0x10
 2551 0684 BD       		.byte	0xbd
 2552 0685 0B       		.byte	0xb
 2553 0686 18650000 		.long	0x6518
 2554 068a 02       		.uleb128 0x2
 2555 068b 10       		.byte	0x10
 2556 068c BF       		.byte	0xbf
 2557 068d 0B       		.byte	0xb
 2558 068e 37650000 		.long	0x6537
 2559 0692 02       		.uleb128 0x2
 2560 0693 10       		.byte	0x10
 2561 0694 C1       		.byte	0xc1
 2562 0695 0B       		.byte	0xb
 2563 0696 56650000 		.long	0x6556
 2564 069a 02       		.uleb128 0x2
 2565 069b 10       		.byte	0x10
 2566 069c C2       		.byte	0xc2
 2567 069d 0B       		.byte	0xb
 2568 069e 74650000 		.long	0x6574
 2569 06a2 02       		.uleb128 0x2
 2570 06a3 10       		.byte	0x10
 2571 06a4 C3       		.byte	0xc3
 2572 06a5 0B       		.byte	0xb
 2573 06a6 98650000 		.long	0x6598
 2574 06aa 02       		.uleb128 0x2
 2575 06ab 10       		.byte	0x10
 2576 06ac C4       		.byte	0xc4
GAS LISTING C:\Users\gabri\AppData\Local\Temp\cc5DSkcw.s 			page 68


 2577 06ad 0B       		.byte	0xb
 2578 06ae BD650000 		.long	0x65bd
 2579 06b2 02       		.uleb128 0x2
 2580 06b3 10       		.byte	0x10
 2581 06b4 C5       		.byte	0xc5
 2582 06b5 0B       		.byte	0xb
 2583 06b6 E1650000 		.long	0x65e1
 2584 06ba 02       		.uleb128 0x2
 2585 06bb 10       		.byte	0x10
 2586 06bc C6       		.byte	0xc6
 2587 06bd 0B       		.byte	0xb
 2588 06be FA650000 		.long	0x65fa
 2589 06c2 02       		.uleb128 0x2
 2590 06c3 10       		.byte	0x10
 2591 06c4 C7       		.byte	0xc7
 2592 06c5 0B       		.byte	0xb
 2593 06c6 1F660000 		.long	0x661f
 2594 06ca 02       		.uleb128 0x2
 2595 06cb 10       		.byte	0x10
 2596 06cc C8       		.byte	0xc8
 2597 06cd 0B       		.byte	0xb
 2598 06ce 44660000 		.long	0x6644
 2599 06d2 02       		.uleb128 0x2
 2600 06d3 10       		.byte	0x10
 2601 06d4 C9       		.byte	0xc9
 2602 06d5 0B       		.byte	0xb
 2603 06d6 6A660000 		.long	0x666a
 2604 06da 02       		.uleb128 0x2
 2605 06db 10       		.byte	0x10
 2606 06dc CA       		.byte	0xca
 2607 06dd 0B       		.byte	0xb
 2608 06de 8F660000 		.long	0x668f
 2609 06e2 02       		.uleb128 0x2
 2610 06e3 10       		.byte	0x10
 2611 06e4 CB       		.byte	0xcb
 2612 06e5 0B       		.byte	0xb
 2613 06e6 AB660000 		.long	0x66ab
 2614 06ea 02       		.uleb128 0x2
 2615 06eb 10       		.byte	0x10
 2616 06ec CC       		.byte	0xcc
 2617 06ed 0B       		.byte	0xb
 2618 06ee C6660000 		.long	0x66c6
 2619 06f2 02       		.uleb128 0x2
 2620 06f3 10       		.byte	0x10
 2621 06f4 CD       		.byte	0xcd
 2622 06f5 0B       		.byte	0xb
 2623 06f6 E4660000 		.long	0x66e4
 2624 06fa 02       		.uleb128 0x2
 2625 06fb 10       		.byte	0x10
 2626 06fc CE       		.byte	0xce
 2627 06fd 0B       		.byte	0xb
 2628 06fe 03670000 		.long	0x6703
 2629 0702 02       		.uleb128 0x2
 2630 0703 10       		.byte	0x10
 2631 0704 CF       		.byte	0xcf
 2632 0705 0B       		.byte	0xb
 2633 0706 22670000 		.long	0x6722
GAS LISTING C:\Users\gabri\AppData\Local\Temp\cc5DSkcw.s 			page 69


 2634 070a 02       		.uleb128 0x2
 2635 070b 10       		.byte	0x10
 2636 070c D0       		.byte	0xd0
 2637 070d 0B       		.byte	0xb
 2638 070e 40670000 		.long	0x6740
 2639 0712 19       		.uleb128 0x19
 2640 0713 10       		.byte	0x10
 2641 0714 0801     		.word	0x108
 2642 0716 16       		.byte	0x16
 2643 0717 65670000 		.long	0x6765
 2644 071b 19       		.uleb128 0x19
 2645 071c 10       		.byte	0x10
 2646 071d 0901     		.word	0x109
 2647 071f 16       		.byte	0x16
 2648 0720 85670000 		.long	0x6785
 2649 0724 19       		.uleb128 0x19
 2650 0725 10       		.byte	0x10
 2651 0726 0A01     		.word	0x10a
 2652 0728 16       		.byte	0x16
 2653 0729 AA670000 		.long	0x67aa
 2654 072d 19       		.uleb128 0x19
 2655 072e 10       		.byte	0x10
 2656 072f 1801     		.word	0x118
 2657 0731 0E       		.byte	0xe
 2658 0732 37650000 		.long	0x6537
 2659 0736 19       		.uleb128 0x19
 2660 0737 10       		.byte	0x10
 2661 0738 1B01     		.word	0x11b
 2662 073a 0E       		.byte	0xe
 2663 073b 8A620000 		.long	0x628a
 2664 073f 19       		.uleb128 0x19
 2665 0740 10       		.byte	0x10
 2666 0741 1E01     		.word	0x11e
 2667 0743 0E       		.byte	0xe
 2668 0744 F5620000 		.long	0x62f5
 2669 0748 19       		.uleb128 0x19
 2670 0749 10       		.byte	0x10
 2671 074a 2101     		.word	0x121
 2672 074c 0E       		.byte	0xe
 2673 074d 3C630000 		.long	0x633c
 2674 0751 19       		.uleb128 0x19
 2675 0752 10       		.byte	0x10
 2676 0753 2501     		.word	0x125
 2677 0755 0E       		.byte	0xe
 2678 0756 65670000 		.long	0x6765
 2679 075a 19       		.uleb128 0x19
 2680 075b 10       		.byte	0x10
 2681 075c 2601     		.word	0x126
 2682 075e 0E       		.byte	0xe
 2683 075f 85670000 		.long	0x6785
 2684 0763 19       		.uleb128 0x19
 2685 0764 10       		.byte	0x10
 2686 0765 2701     		.word	0x127
 2687 0767 0E       		.byte	0xe
 2688 0768 AA670000 		.long	0x67aa
 2689 076c 35       		.uleb128 0x35
 2690 076d 46000000 		.secrel32	.LASF0
GAS LISTING C:\Users\gabri\AppData\Local\Temp\cc5DSkcw.s 			page 70


 2691 0771 01       		.byte	0x1
 2692 0772 11       		.byte	0x11
 2693 0773 56       		.byte	0x56
 2694 0774 0A       		.byte	0xa
 2695 0775 A1070000 		.long	0x7a1
 2696 0779 36       		.uleb128 0x36
 2697 077a 46000000 		.secrel32	.LASF0
 2698 077e 11       		.byte	0x11
 2699 077f 59       		.byte	0x59
 2700 0780 0E       		.byte	0xe
 2701 0781 5F5A4E53 		.ascii "_ZNSt9nothrow_tC4Ev\0"
 2701      74396E6F 
 2701      7468726F 
 2701      775F7443 
 2701      34457600 
 2702 0795 01       		.byte	0x1
 2703 0796 9A070000 		.long	0x79a
 2704 079a 06       		.uleb128 0x6
 2705 079b D0670000 		.long	0x67d0
 2706 079f 00       		.byte	0
 2707 07a0 00       		.byte	0
 2708 07a1 04       		.uleb128 0x4
 2709 07a2 6C070000 		.long	0x76c
 2710 07a6 0C       		.uleb128 0xc
 2711 07a7 6E6F7468 		.ascii "nothrow\0"
 2711      726F7700 
 2712 07af 11       		.byte	0x11
 2713 07b0 5D       		.byte	0x5d
 2714 07b1 1A       		.byte	0x1a
 2715 07b2 5F5A5374 		.ascii "_ZSt7nothrow\0"
 2715      376E6F74 
 2715      68726F77 
 2715      00
 2716 07bf A1070000 		.long	0x7a1
 2717 07c3 37       		.uleb128 0x37
 2718 07c4 5F5F6578 		.ascii "__exception_ptr\0"
 2718      63657074 
 2718      696F6E5F 
 2718      70747200 
 2719 07d4 12       		.byte	0x12
 2720 07d5 34       		.byte	0x34
 2721 07d6 0D       		.byte	0xd
 2722 07d7 520C0000 		.long	0xc52
 2723 07db 57       		.uleb128 0x57
 2724 07dc CF000000 		.secrel32	.LASF1
 2725 07e0 08       		.byte	0x8
 2726 07e1 12       		.byte	0x12
 2727 07e2 4F       		.byte	0x4f
 2728 07e3 0B       		.byte	0xb
 2729 07e4 440C0000 		.long	0xc44
 2730 07e8 07       		.uleb128 0x7
 2731 07e9 5F4D5F65 		.ascii "_M_exception_object\0"
 2731      78636570 
 2731      74696F6E 
 2731      5F6F626A 
 2731      65637400 
 2732 07fd 12       		.byte	0x12
GAS LISTING C:\Users\gabri\AppData\Local\Temp\cc5DSkcw.s 			page 71


 2733 07fe 51       		.byte	0x51
 2734 07ff 0D       		.byte	0xd
 2735 0800 1A4F0000 		.long	0x4f1a
 2736 0804 00       		.byte	0
 2737 0805 71       		.uleb128 0x71
 2738 0806 CF000000 		.secrel32	.LASF1
 2739 080a 12       		.byte	0x12
 2740 080b 53       		.byte	0x53
 2741 080c 10       		.byte	0x10
 2742 080d 5F5A4E53 		.ascii "_ZNSt15__exception_ptr13exception_ptrC4EPv\0"
 2742      7431355F 
 2742      5F657863 
 2742      65707469 
 2742      6F6E5F70 
 2743 0838 40080000 		.long	0x840
 2744 083c 4B080000 		.long	0x84b
 2745 0840 06       		.uleb128 0x6
 2746 0841 D6670000 		.long	0x67d6
 2747 0845 01       		.uleb128 0x1
 2748 0846 1A4F0000 		.long	0x4f1a
 2749 084a 00       		.byte	0
 2750 084b 4E       		.uleb128 0x4e
 2751 084c 5F4D5F61 		.ascii "_M_addref\0"
 2751      64647265 
 2751      6600
 2752 0856 12       		.byte	0x12
 2753 0857 55       		.byte	0x55
 2754 0858 0C       		.byte	0xc
 2755 0859 5F5A4E53 		.ascii "_ZNSt15__exception_ptr13exception_ptr9_M_addrefEv\0"
 2755      7431355F 
 2755      5F657863 
 2755      65707469 
 2755      6F6E5F70 
 2756 088b 93080000 		.long	0x893
 2757 088f 99080000 		.long	0x899
 2758 0893 06       		.uleb128 0x6
 2759 0894 D6670000 		.long	0x67d6
 2760 0898 00       		.byte	0
 2761 0899 4E       		.uleb128 0x4e
 2762 089a 5F4D5F72 		.ascii "_M_release\0"
 2762      656C6561 
 2762      736500
 2763 08a5 12       		.byte	0x12
 2764 08a6 56       		.byte	0x56
 2765 08a7 0C       		.byte	0xc
 2766 08a8 5F5A4E53 		.ascii "_ZNSt15__exception_ptr13exception_ptr10_M_releaseEv\0"
 2766      7431355F 
 2766      5F657863 
 2766      65707469 
 2766      6F6E5F70 
 2767 08dc E4080000 		.long	0x8e4
 2768 08e0 EA080000 		.long	0x8ea
 2769 08e4 06       		.uleb128 0x6
 2770 08e5 D6670000 		.long	0x67d6
 2771 08e9 00       		.byte	0
 2772 08ea 21       		.uleb128 0x21
 2773 08eb 5F4D5F67 		.ascii "_M_get\0"
GAS LISTING C:\Users\gabri\AppData\Local\Temp\cc5DSkcw.s 			page 72


 2773      657400
 2774 08f2 12       		.byte	0x12
 2775 08f3 58       		.byte	0x58
 2776 08f4 0D       		.byte	0xd
 2777 08f5 5F5A4E4B 		.ascii "_ZNKSt15__exception_ptr13exception_ptr6_M_getEv\0"
 2777      53743135 
 2777      5F5F6578 
 2777      63657074 
 2777      696F6E5F 
 2778 0925 1A4F0000 		.long	0x4f1a
 2779 0929 31090000 		.long	0x931
 2780 092d 37090000 		.long	0x937
 2781 0931 06       		.uleb128 0x6
 2782 0932 DC670000 		.long	0x67dc
 2783 0936 00       		.byte	0
 2784 0937 3B       		.uleb128 0x3b
 2785 0938 CF000000 		.secrel32	.LASF1
 2786 093c 12       		.byte	0x12
 2787 093d 60       		.byte	0x60
 2788 093e 07       		.byte	0x7
 2789 093f 5F5A4E53 		.ascii "_ZNSt15__exception_ptr13exception_ptrC4Ev\0"
 2789      7431355F 
 2789      5F657863 
 2789      65707469 
 2789      6F6E5F70 
 2790 0969 01       		.byte	0x1
 2791 096a 72090000 		.long	0x972
 2792 096e 78090000 		.long	0x978
 2793 0972 06       		.uleb128 0x6
 2794 0973 D6670000 		.long	0x67d6
 2795 0977 00       		.byte	0
 2796 0978 3B       		.uleb128 0x3b
 2797 0979 CF000000 		.secrel32	.LASF1
 2798 097d 12       		.byte	0x12
 2799 097e 62       		.byte	0x62
 2800 097f 07       		.byte	0x7
 2801 0980 5F5A4E53 		.ascii "_ZNSt15__exception_ptr13exception_ptrC4ERKS0_\0"
 2801      7431355F 
 2801      5F657863 
 2801      65707469 
 2801      6F6E5F70 
 2802 09ae 01       		.byte	0x1
 2803 09af B7090000 		.long	0x9b7
 2804 09b3 C2090000 		.long	0x9c2
 2805 09b7 06       		.uleb128 0x6
 2806 09b8 D6670000 		.long	0x67d6
 2807 09bc 01       		.uleb128 0x1
 2808 09bd E2670000 		.long	0x67e2
 2809 09c1 00       		.byte	0
 2810 09c2 3B       		.uleb128 0x3b
 2811 09c3 CF000000 		.secrel32	.LASF1
 2812 09c7 12       		.byte	0x12
 2813 09c8 65       		.byte	0x65
 2814 09c9 07       		.byte	0x7
 2815 09ca 5F5A4E53 		.ascii "_ZNSt15__exception_ptr13exception_ptrC4EDn\0"
 2815      7431355F 
 2815      5F657863 
GAS LISTING C:\Users\gabri\AppData\Local\Temp\cc5DSkcw.s 			page 73


 2815      65707469 
 2815      6F6E5F70 
 2816 09f5 01       		.byte	0x1
 2817 09f6 FE090000 		.long	0x9fe
 2818 09fa 090A0000 		.long	0xa09
 2819 09fe 06       		.uleb128 0x6
 2820 09ff D6670000 		.long	0x67d6
 2821 0a03 01       		.uleb128 0x1
 2822 0a04 B60C0000 		.long	0xcb6
 2823 0a08 00       		.byte	0
 2824 0a09 3B       		.uleb128 0x3b
 2825 0a0a CF000000 		.secrel32	.LASF1
 2826 0a0e 12       		.byte	0x12
 2827 0a0f 69       		.byte	0x69
 2828 0a10 07       		.byte	0x7
 2829 0a11 5F5A4E53 		.ascii "_ZNSt15__exception_ptr13exception_ptrC4EOS0_\0"
 2829      7431355F 
 2829      5F657863 
 2829      65707469 
 2829      6F6E5F70 
 2830 0a3e 01       		.byte	0x1
 2831 0a3f 470A0000 		.long	0xa47
 2832 0a43 520A0000 		.long	0xa52
 2833 0a47 06       		.uleb128 0x6
 2834 0a48 D6670000 		.long	0x67d6
 2835 0a4c 01       		.uleb128 0x1
 2836 0a4d FC670000 		.long	0x67fc
 2837 0a51 00       		.byte	0
 2838 0a52 58       		.uleb128 0x58
 2839 0a53 EA000000 		.secrel32	.LASF2
 2840 0a57 12       		.byte	0x12
 2841 0a58 76       		.byte	0x76
 2842 0a59 07       		.byte	0x7
 2843 0a5a 5F5A4E53 		.ascii "_ZNSt15__exception_ptr13exception_ptraSERKS0_\0"
 2843      7431355F 
 2843      5F657863 
 2843      65707469 
 2843      6F6E5F70 
 2844 0a88 03680000 		.long	0x6803
 2845 0a8c 01       		.byte	0x1
 2846 0a8d 950A0000 		.long	0xa95
 2847 0a91 A00A0000 		.long	0xaa0
 2848 0a95 06       		.uleb128 0x6
 2849 0a96 D6670000 		.long	0x67d6
 2850 0a9a 01       		.uleb128 0x1
 2851 0a9b E2670000 		.long	0x67e2
 2852 0a9f 00       		.byte	0
 2853 0aa0 58       		.uleb128 0x58
 2854 0aa1 EA000000 		.secrel32	.LASF2
 2855 0aa5 12       		.byte	0x12
 2856 0aa6 7A       		.byte	0x7a
 2857 0aa7 07       		.byte	0x7
 2858 0aa8 5F5A4E53 		.ascii "_ZNSt15__exception_ptr13exception_ptraSEOS0_\0"
 2858      7431355F 
 2858      5F657863 
 2858      65707469 
 2858      6F6E5F70 
GAS LISTING C:\Users\gabri\AppData\Local\Temp\cc5DSkcw.s 			page 74


 2859 0ad5 03680000 		.long	0x6803
 2860 0ad9 01       		.byte	0x1
 2861 0ada E20A0000 		.long	0xae2
 2862 0ade ED0A0000 		.long	0xaed
 2863 0ae2 06       		.uleb128 0x6
 2864 0ae3 D6670000 		.long	0x67d6
 2865 0ae7 01       		.uleb128 0x1
 2866 0ae8 FC670000 		.long	0x67fc
 2867 0aec 00       		.byte	0
 2868 0aed 31       		.uleb128 0x31
 2869 0aee 7E657863 		.ascii "~exception_ptr\0"
 2869      65707469 
 2869      6F6E5F70 
 2869      747200
 2870 0afd 12       		.byte	0x12
 2871 0afe 81       		.byte	0x81
 2872 0aff 07       		.byte	0x7
 2873 0b00 5F5A4E53 		.ascii "_ZNSt15__exception_ptr13exception_ptrD4Ev\0"
 2873      7431355F 
 2873      5F657863 
 2873      65707469 
 2873      6F6E5F70 
 2874 0b2a 01       		.byte	0x1
 2875 0b2b 330B0000 		.long	0xb33
 2876 0b2f 3E0B0000 		.long	0xb3e
 2877 0b33 06       		.uleb128 0x6
 2878 0b34 D6670000 		.long	0x67d6
 2879 0b38 06       		.uleb128 0x6
 2880 0b39 45460000 		.long	0x4645
 2881 0b3d 00       		.byte	0
 2882 0b3e 31       		.uleb128 0x31
 2883 0b3f 73776170 		.ascii "swap\0"
 2883      00
 2884 0b44 12       		.byte	0x12
 2885 0b45 84       		.byte	0x84
 2886 0b46 07       		.byte	0x7
 2887 0b47 5F5A4E53 		.ascii "_ZNSt15__exception_ptr13exception_ptr4swapERS0_\0"
 2887      7431355F 
 2887      5F657863 
 2887      65707469 
 2887      6F6E5F70 
 2888 0b77 01       		.byte	0x1
 2889 0b78 800B0000 		.long	0xb80
 2890 0b7c 8B0B0000 		.long	0xb8b
 2891 0b80 06       		.uleb128 0x6
 2892 0b81 D6670000 		.long	0x67d6
 2893 0b85 01       		.uleb128 0x1
 2894 0b86 03680000 		.long	0x6803
 2895 0b8a 00       		.byte	0
 2896 0b8b 72       		.uleb128 0x72
 2897 0b8c 6F706572 		.ascii "operator bool\0"
 2897      61746F72 
 2897      20626F6F 
 2897      6C00
 2898 0b9a 12       		.byte	0x12
 2899 0b9b 90       		.byte	0x90
 2900 0b9c 10       		.byte	0x10
GAS LISTING C:\Users\gabri\AppData\Local\Temp\cc5DSkcw.s 			page 75


 2901 0b9d 5F5A4E4B 		.ascii "_ZNKSt15__exception_ptr13exception_ptrcvbEv\0"
 2901      53743135 
 2901      5F5F6578 
 2901      63657074 
 2901      696F6E5F 
 2902 0bc9 09680000 		.long	0x6809
 2903 0bcd 01       		.byte	0x1
 2904 0bce D60B0000 		.long	0xbd6
 2905 0bd2 DC0B0000 		.long	0xbdc
 2906 0bd6 06       		.uleb128 0x6
 2907 0bd7 DC670000 		.long	0x67dc
 2908 0bdb 00       		.byte	0
 2909 0bdc 73       		.uleb128 0x73
 2910 0bdd 5F5F6378 		.ascii "__cxa_exception_type\0"
 2910      615F6578 
 2910      63657074 
 2910      696F6E5F 
 2910      74797065 
 2911 0bf2 12       		.byte	0x12
 2912 0bf3 99       		.byte	0x99
 2913 0bf4 07       		.byte	0x7
 2914 0bf5 5F5A4E4B 		.ascii "_ZNKSt15__exception_ptr13exception_ptr20__cxa_exception_typeEv\0"
 2914      53743135 
 2914      5F5F6578 
 2914      63657074 
 2914      696F6E5F 
 2915 0c34 16680000 		.long	0x6816
 2916 0c38 01       		.byte	0x1
 2917 0c39 3D0C0000 		.long	0xc3d
 2918 0c3d 06       		.uleb128 0x6
 2919 0c3e DC670000 		.long	0x67dc
 2920 0c42 00       		.byte	0
 2921 0c43 00       		.byte	0
 2922 0c44 04       		.uleb128 0x4
 2923 0c45 DB070000 		.long	0x7db
 2924 0c49 02       		.uleb128 0x2
 2925 0c4a 12       		.byte	0x12
 2926 0c4b 49       		.byte	0x49
 2927 0c4c 10       		.byte	0x10
 2928 0c4d 5A0C0000 		.long	0xc5a
 2929 0c51 00       		.byte	0
 2930 0c52 02       		.uleb128 0x2
 2931 0c53 12       		.byte	0x12
 2932 0c54 39       		.byte	0x39
 2933 0c55 1A       		.byte	0x1a
 2934 0c56 DB070000 		.long	0x7db
 2935 0c5a 74       		.uleb128 0x74
 2936 0c5b 72657468 		.ascii "rethrow_exception\0"
 2936      726F775F 
 2936      65786365 
 2936      7074696F 
 2936      6E00
 2937 0c6d 12       		.byte	0x12
 2938 0c6e 45       		.byte	0x45
 2939 0c6f 08       		.byte	0x8
 2940 0c70 5F5A5374 		.ascii "_ZSt17rethrow_exceptionNSt15__exception_ptr13exception_ptrE\0"
 2940      31377265 
GAS LISTING C:\Users\gabri\AppData\Local\Temp\cc5DSkcw.s 			page 76


 2940      7468726F 
 2940      775F6578 
 2940      63657074 
 2941 0cac B60C0000 		.long	0xcb6
 2942 0cb0 01       		.uleb128 0x1
 2943 0cb1 DB070000 		.long	0x7db
 2944 0cb5 00       		.byte	0
 2945 0cb6 08       		.uleb128 0x8
 2946 0cb7 6E756C6C 		.ascii "nullptr_t\0"
 2946      7074725F 
 2946      7400
 2947 0cc1 17       		.byte	0x17
 2948 0cc2 F2       		.byte	0xf2
 2949 0cc3 1D       		.byte	0x1d
 2950 0cc4 E8670000 		.long	0x67e8
 2951 0cc8 59       		.uleb128 0x59
 2952 0cc9 74797065 		.ascii "type_info\0"
 2952      5F696E66 
 2952      6F00
 2953 0cd3 04       		.uleb128 0x4
 2954 0cd4 C80C0000 		.long	0xcc8
 2955 0cd8 10       		.uleb128 0x10
 2956 0cd9 696E7465 		.ascii "integral_constant<bool, false>\0"
 2956      6772616C 
 2956      5F636F6E 
 2956      7374616E 
 2956      743C626F 
 2957 0cf8 01       		.byte	0x1
 2958 0cf9 13       		.byte	0x13
 2959 0cfa 45       		.byte	0x45
 2960 0cfb 0C       		.byte	0xc
 2961 0cfc E00D0000 		.long	0xde0
 2962 0d00 23       		.uleb128 0x23
 2963 0d01 2C000000 		.secrel32	.LASF5
 2964 0d05 13       		.byte	0x13
 2965 0d06 47       		.byte	0x47
 2966 0d07 2D       		.byte	0x2d
 2967 0d08 11680000 		.long	0x6811
 2968 0d0c 24       		.uleb128 0x24
 2969 0d0d 44010000 		.secrel32	.LASF3
 2970 0d11 13       		.byte	0x13
 2971 0d12 48       		.byte	0x48
 2972 0d13 2D       		.byte	0x2d
 2973 0d14 09680000 		.long	0x6809
 2974 0d18 21       		.uleb128 0x21
 2975 0d19 6F706572 		.ascii "operator std::integral_constant<bool, false>::value_type\0"
 2975      61746F72 
 2975      20737464 
 2975      3A3A696E 
 2975      74656772 
 2976 0d52 13       		.byte	0x13
 2977 0d53 4A       		.byte	0x4a
 2978 0d54 11       		.byte	0x11
 2979 0d55 5F5A4E4B 		.ascii "_ZNKSt17integral_constantIbLb0EEcvbEv\0"
 2979      53743137 
 2979      696E7465 
 2979      6772616C 
GAS LISTING C:\Users\gabri\AppData\Local\Temp\cc5DSkcw.s 			page 77


 2979      5F636F6E 
 2980 0d7b 0C0D0000 		.long	0xd0c
 2981 0d7f 870D0000 		.long	0xd87
 2982 0d83 8D0D0000 		.long	0xd8d
 2983 0d87 06       		.uleb128 0x6
 2984 0d88 1C680000 		.long	0x681c
 2985 0d8c 00       		.byte	0
 2986 0d8d 25       		.uleb128 0x25
 2987 0d8e 8D010000 		.secrel32	.LASF4
 2988 0d92 13       		.byte	0x13
 2989 0d93 4F       		.byte	0x4f
 2990 0d94 1C       		.byte	0x1c
 2991 0d95 5F5A4E4B 		.ascii "_ZNKSt17integral_constantIbLb0EEclEv\0"
 2991      53743137 
 2991      696E7465 
 2991      6772616C 
 2991      5F636F6E 
 2992 0dba 0C0D0000 		.long	0xd0c
 2993 0dbe C60D0000 		.long	0xdc6
 2994 0dc2 CC0D0000 		.long	0xdcc
 2995 0dc6 06       		.uleb128 0x6
 2996 0dc7 1C680000 		.long	0x681c
 2997 0dcb 00       		.byte	0
 2998 0dcc 1D       		.uleb128 0x1d
 2999 0dcd 5F547000 		.ascii "_Tp\0"
 3000 0dd1 09680000 		.long	0x6809
 3001 0dd5 20       		.uleb128 0x20
 3002 0dd6 5F5F7600 		.ascii "__v\0"
 3003 0dda 09680000 		.long	0x6809
 3004 0dde 00       		.byte	0
 3005 0ddf 00       		.byte	0
 3006 0de0 04       		.uleb128 0x4
 3007 0de1 D80C0000 		.long	0xcd8
 3008 0de5 10       		.uleb128 0x10
 3009 0de6 696E7465 		.ascii "integral_constant<bool, true>\0"
 3009      6772616C 
 3009      5F636F6E 
 3009      7374616E 
 3009      743C626F 
 3010 0e04 01       		.byte	0x1
 3011 0e05 13       		.byte	0x13
 3012 0e06 45       		.byte	0x45
 3013 0e07 0C       		.byte	0xc
 3014 0e08 EB0E0000 		.long	0xeeb
 3015 0e0c 23       		.uleb128 0x23
 3016 0e0d 2C000000 		.secrel32	.LASF5
 3017 0e11 13       		.byte	0x13
 3018 0e12 47       		.byte	0x47
 3019 0e13 2D       		.byte	0x2d
 3020 0e14 11680000 		.long	0x6811
 3021 0e18 24       		.uleb128 0x24
 3022 0e19 44010000 		.secrel32	.LASF3
 3023 0e1d 13       		.byte	0x13
 3024 0e1e 48       		.byte	0x48
 3025 0e1f 2D       		.byte	0x2d
 3026 0e20 09680000 		.long	0x6809
 3027 0e24 21       		.uleb128 0x21
GAS LISTING C:\Users\gabri\AppData\Local\Temp\cc5DSkcw.s 			page 78


 3028 0e25 6F706572 		.ascii "operator std::integral_constant<bool, true>::value_type\0"
 3028      61746F72 
 3028      20737464 
 3028      3A3A696E 
 3028      74656772 
 3029 0e5d 13       		.byte	0x13
 3030 0e5e 4A       		.byte	0x4a
 3031 0e5f 11       		.byte	0x11
 3032 0e60 5F5A4E4B 		.ascii "_ZNKSt17integral_constantIbLb1EEcvbEv\0"
 3032      53743137 
 3032      696E7465 
 3032      6772616C 
 3032      5F636F6E 
 3033 0e86 180E0000 		.long	0xe18
 3034 0e8a 920E0000 		.long	0xe92
 3035 0e8e 980E0000 		.long	0xe98
 3036 0e92 06       		.uleb128 0x6
 3037 0e93 22680000 		.long	0x6822
 3038 0e97 00       		.byte	0
 3039 0e98 25       		.uleb128 0x25
 3040 0e99 8D010000 		.secrel32	.LASF4
 3041 0e9d 13       		.byte	0x13
 3042 0e9e 4F       		.byte	0x4f
 3043 0e9f 1C       		.byte	0x1c
 3044 0ea0 5F5A4E4B 		.ascii "_ZNKSt17integral_constantIbLb1EEclEv\0"
 3044      53743137 
 3044      696E7465 
 3044      6772616C 
 3044      5F636F6E 
 3045 0ec5 180E0000 		.long	0xe18
 3046 0ec9 D10E0000 		.long	0xed1
 3047 0ecd D70E0000 		.long	0xed7
 3048 0ed1 06       		.uleb128 0x6
 3049 0ed2 22680000 		.long	0x6822
 3050 0ed6 00       		.byte	0
 3051 0ed7 1D       		.uleb128 0x1d
 3052 0ed8 5F547000 		.ascii "_Tp\0"
 3053 0edc 09680000 		.long	0x6809
 3054 0ee0 20       		.uleb128 0x20
 3055 0ee1 5F5F7600 		.ascii "__v\0"
 3056 0ee5 09680000 		.long	0x6809
 3057 0ee9 01       		.byte	0x1
 3058 0eea 00       		.byte	0
 3059 0eeb 04       		.uleb128 0x4
 3060 0eec E50D0000 		.long	0xde5
 3061 0ef0 10       		.uleb128 0x10
 3062 0ef1 696E7465 		.ascii "integral_constant<long long unsigned int, 0>\0"
 3062      6772616C 
 3062      5F636F6E 
 3062      7374616E 
 3062      743C6C6F 
 3063 0f1e 01       		.byte	0x1
 3064 0f1f 13       		.byte	0x13
 3065 0f20 45       		.byte	0x45
 3066 0f21 0C       		.byte	0xc
 3067 0f22 14100000 		.long	0x1014
 3068 0f26 23       		.uleb128 0x23
GAS LISTING C:\Users\gabri\AppData\Local\Temp\cc5DSkcw.s 			page 79


 3069 0f27 2C000000 		.secrel32	.LASF5
 3070 0f2b 13       		.byte	0x13
 3071 0f2c 47       		.byte	0x47
 3072 0f2d 2D       		.byte	0x2d
 3073 0f2e CC450000 		.long	0x45cc
 3074 0f32 24       		.uleb128 0x24
 3075 0f33 44010000 		.secrel32	.LASF3
 3076 0f37 13       		.byte	0x13
 3077 0f38 48       		.byte	0x48
 3078 0f39 2D       		.byte	0x2d
 3079 0f3a B2450000 		.long	0x45b2
 3080 0f3e 21       		.uleb128 0x21
 3081 0f3f 6F706572 		.ascii "operator std::integral_constant<long long unsigned int, 0>::value_type\0"
 3081      61746F72 
 3081      20737464 
 3081      3A3A696E 
 3081      74656772 
 3082 0f86 13       		.byte	0x13
 3083 0f87 4A       		.byte	0x4a
 3084 0f88 11       		.byte	0x11
 3085 0f89 5F5A4E4B 		.ascii "_ZNKSt17integral_constantIyLy0EEcvyEv\0"
 3085      53743137 
 3085      696E7465 
 3085      6772616C 
 3085      5F636F6E 
 3086 0faf 320F0000 		.long	0xf32
 3087 0fb3 BB0F0000 		.long	0xfbb
 3088 0fb7 C10F0000 		.long	0xfc1
 3089 0fbb 06       		.uleb128 0x6
 3090 0fbc 28680000 		.long	0x6828
 3091 0fc0 00       		.byte	0
 3092 0fc1 25       		.uleb128 0x25
 3093 0fc2 8D010000 		.secrel32	.LASF4
 3094 0fc6 13       		.byte	0x13
 3095 0fc7 4F       		.byte	0x4f
 3096 0fc8 1C       		.byte	0x1c
 3097 0fc9 5F5A4E4B 		.ascii "_ZNKSt17integral_constantIyLy0EEclEv\0"
 3097      53743137 
 3097      696E7465 
 3097      6772616C 
 3097      5F636F6E 
 3098 0fee 320F0000 		.long	0xf32
 3099 0ff2 FA0F0000 		.long	0xffa
 3100 0ff6 00100000 		.long	0x1000
 3101 0ffa 06       		.uleb128 0x6
 3102 0ffb 28680000 		.long	0x6828
 3103 0fff 00       		.byte	0
 3104 1000 1D       		.uleb128 0x1d
 3105 1001 5F547000 		.ascii "_Tp\0"
 3106 1005 B2450000 		.long	0x45b2
 3107 1009 20       		.uleb128 0x20
 3108 100a 5F5F7600 		.ascii "__v\0"
 3109 100e B2450000 		.long	0x45b2
 3110 1012 00       		.byte	0
 3111 1013 00       		.byte	0
 3112 1014 04       		.uleb128 0x4
 3113 1015 F00E0000 		.long	0xef0
GAS LISTING C:\Users\gabri\AppData\Local\Temp\cc5DSkcw.s 			page 80


 3114 1019 5A       		.uleb128 0x5a
 3115 101a 5F5F7377 		.ascii "__swappable_details\0"
 3115      61707061 
 3115      626C655F 
 3115      64657461 
 3115      696C7300 
 3116 102e 13       		.byte	0x13
 3117 102f 7509     		.word	0x975
 3118 1031 0D       		.byte	0xd
 3119 1032 5A       		.uleb128 0x5a
 3120 1033 5F5F7377 		.ascii "__swappable_with_details\0"
 3120      61707061 
 3120      626C655F 
 3120      77697468 
 3120      5F646574 
 3121 104c 13       		.byte	0x13
 3122 104d C309     		.word	0x9c3
 3123 104f 0D       		.byte	0xd
 3124 1050 35       		.uleb128 0x35
 3125 1051 60000000 		.secrel32	.LASF6
 3126 1055 01       		.byte	0x1
 3127 1056 14       		.byte	0x14
 3128 1057 4C       		.byte	0x4c
 3129 1058 0A       		.byte	0xa
 3130 1059 92100000 		.long	0x1092
 3131 105d 36       		.uleb128 0x36
 3132 105e 60000000 		.secrel32	.LASF6
 3133 1062 14       		.byte	0x14
 3134 1063 4C       		.byte	0x4c
 3135 1064 2B       		.byte	0x2b
 3136 1065 5F5A4E53 		.ascii "_ZNSt21piecewise_construct_tC4Ev\0"
 3136      74323170 
 3136      69656365 
 3136      77697365 
 3136      5F636F6E 
 3137 1086 01       		.byte	0x1
 3138 1087 8B100000 		.long	0x108b
 3139 108b 06       		.uleb128 0x6
 3140 108c 43680000 		.long	0x6843
 3141 1090 00       		.byte	0
 3142 1091 00       		.byte	0
 3143 1092 04       		.uleb128 0x4
 3144 1093 50100000 		.long	0x1050
 3145 1097 3C       		.uleb128 0x3c
 3146 1098 70696563 		.ascii "piecewise_construct\0"
 3146      65776973 
 3146      655F636F 
 3146      6E737472 
 3146      75637400 
 3147 10ac 14       		.byte	0x14
 3148 10ad 4F       		.byte	0x4f
 3149 10ae 35       		.byte	0x35
 3150 10af 92100000 		.long	0x1092
 3151 10b3 01       		.byte	0x1
 3152 10b4 00       		.byte	0
 3153 10b5 5B       		.uleb128 0x5b
 3154 10b6 5F5F6465 		.ascii "__debug\0"
GAS LISTING C:\Users\gabri\AppData\Local\Temp\cc5DSkcw.s 			page 81


 3154      62756700 
 3155 10be 15       		.byte	0x15
 3156 10bf 32       		.byte	0x32
 3157 10c0 0D       		.byte	0xd
 3158 10c1 18       		.uleb128 0x18
 3159 10c2 63686172 		.ascii "char_traits<char>\0"
 3159      5F747261 
 3159      6974733C 
 3159      63686172 
 3159      3E00
 3160 10d4 01       		.byte	0x1
 3161 10d5 16       		.byte	0x16
 3162 10d6 1301     		.word	0x113
 3163 10d8 0C       		.byte	0xc
 3164 10d9 7C140000 		.long	0x147c
 3165 10dd 5C       		.uleb128 0x5c
 3166 10de 4F010000 		.secrel32	.LASF8
 3167 10e2 16       		.byte	0x16
 3168 10e3 1C01     		.word	0x11c
 3169 10e5 07       		.byte	0x7
 3170 10e6 5F5A4E53 		.ascii "_ZNSt11char_traitsIcE6assignERcRKc\0"
 3170      74313163 
 3170      6861725F 
 3170      74726169 
 3170      74734963 
 3171 1109 18110000 		.long	0x1118
 3172 110d 01       		.uleb128 0x1
 3173 110e 6B680000 		.long	0x686b
 3174 1112 01       		.uleb128 0x1
 3175 1113 71680000 		.long	0x6871
 3176 1117 00       		.byte	0
 3177 1118 41       		.uleb128 0x41
 3178 1119 C5000000 		.secrel32	.LASF7
 3179 111d 16       		.byte	0x16
 3180 111e 1501     		.word	0x115
 3181 1120 21       		.byte	0x21
 3182 1121 86450000 		.long	0x4586
 3183 1125 04       		.uleb128 0x4
 3184 1126 18110000 		.long	0x1118
 3185 112a 0F       		.uleb128 0xf
 3186 112b 657100   		.ascii "eq\0"
 3187 112e 16       		.byte	0x16
 3188 112f 2001     		.word	0x120
 3189 1131 07       		.byte	0x7
 3190 1132 5F5A4E53 		.ascii "_ZNSt11char_traitsIcE2eqERKcS2_\0"
 3190      74313163 
 3190      6861725F 
 3190      74726169 
 3190      74734963 
 3191 1152 09680000 		.long	0x6809
 3192 1156 65110000 		.long	0x1165
 3193 115a 01       		.uleb128 0x1
 3194 115b 71680000 		.long	0x6871
 3195 115f 01       		.uleb128 0x1
 3196 1160 71680000 		.long	0x6871
 3197 1164 00       		.byte	0
 3198 1165 0F       		.uleb128 0xf
GAS LISTING C:\Users\gabri\AppData\Local\Temp\cc5DSkcw.s 			page 82


 3199 1166 6C7400   		.ascii "lt\0"
 3200 1169 16       		.byte	0x16
 3201 116a 2401     		.word	0x124
 3202 116c 07       		.byte	0x7
 3203 116d 5F5A4E53 		.ascii "_ZNSt11char_traitsIcE2ltERKcS2_\0"
 3203      74313163 
 3203      6861725F 
 3203      74726169 
 3203      74734963 
 3204 118d 09680000 		.long	0x6809
 3205 1191 A0110000 		.long	0x11a0
 3206 1195 01       		.uleb128 0x1
 3207 1196 71680000 		.long	0x6871
 3208 119a 01       		.uleb128 0x1
 3209 119b 71680000 		.long	0x6871
 3210 119f 00       		.byte	0
 3211 11a0 0F       		.uleb128 0xf
 3212 11a1 636F6D70 		.ascii "compare\0"
 3212      61726500 
 3213 11a9 16       		.byte	0x16
 3214 11aa 2C01     		.word	0x12c
 3215 11ac 07       		.byte	0x7
 3216 11ad 5F5A4E53 		.ascii "_ZNSt11char_traitsIcE7compareEPKcS2_y\0"
 3216      74313163 
 3216      6861725F 
 3216      74726169 
 3216      74734963 
 3217 11d3 45460000 		.long	0x4645
 3218 11d7 EB110000 		.long	0x11eb
 3219 11db 01       		.uleb128 0x1
 3220 11dc 77680000 		.long	0x6877
 3221 11e0 01       		.uleb128 0x1
 3222 11e1 77680000 		.long	0x6877
 3223 11e5 01       		.uleb128 0x1
 3224 11e6 7C140000 		.long	0x147c
 3225 11ea 00       		.byte	0
 3226 11eb 0F       		.uleb128 0xf
 3227 11ec 6C656E67 		.ascii "length\0"
 3227      746800
 3228 11f3 16       		.byte	0x16
 3229 11f4 3A01     		.word	0x13a
 3230 11f6 07       		.byte	0x7
 3231 11f7 5F5A4E53 		.ascii "_ZNSt11char_traitsIcE6lengthEPKc\0"
 3231      74313163 
 3231      6861725F 
 3231      74726169 
 3231      74734963 
 3232 1218 7C140000 		.long	0x147c
 3233 121c 26120000 		.long	0x1226
 3234 1220 01       		.uleb128 0x1
 3235 1221 77680000 		.long	0x6877
 3236 1225 00       		.byte	0
 3237 1226 0F       		.uleb128 0xf
 3238 1227 66696E64 		.ascii "find\0"
 3238      00
 3239 122c 16       		.byte	0x16
 3240 122d 4401     		.word	0x144
GAS LISTING C:\Users\gabri\AppData\Local\Temp\cc5DSkcw.s 			page 83


 3241 122f 07       		.byte	0x7
 3242 1230 5F5A4E53 		.ascii "_ZNSt11char_traitsIcE4findEPKcyRS1_\0"
 3242      74313163 
 3242      6861725F 
 3242      74726169 
 3242      74734963 
 3243 1254 77680000 		.long	0x6877
 3244 1258 6C120000 		.long	0x126c
 3245 125c 01       		.uleb128 0x1
 3246 125d 77680000 		.long	0x6877
 3247 1261 01       		.uleb128 0x1
 3248 1262 7C140000 		.long	0x147c
 3249 1266 01       		.uleb128 0x1
 3250 1267 71680000 		.long	0x6871
 3251 126b 00       		.byte	0
 3252 126c 0F       		.uleb128 0xf
 3253 126d 6D6F7665 		.ascii "move\0"
 3253      00
 3254 1272 16       		.byte	0x16
 3255 1273 5201     		.word	0x152
 3256 1275 07       		.byte	0x7
 3257 1276 5F5A4E53 		.ascii "_ZNSt11char_traitsIcE4moveEPcPKcy\0"
 3257      74313163 
 3257      6861725F 
 3257      74726169 
 3257      74734963 
 3258 1298 7D680000 		.long	0x687d
 3259 129c B0120000 		.long	0x12b0
 3260 12a0 01       		.uleb128 0x1
 3261 12a1 7D680000 		.long	0x687d
 3262 12a5 01       		.uleb128 0x1
 3263 12a6 77680000 		.long	0x6877
 3264 12aa 01       		.uleb128 0x1
 3265 12ab 7C140000 		.long	0x147c
 3266 12af 00       		.byte	0
 3267 12b0 0F       		.uleb128 0xf
 3268 12b1 636F7079 		.ascii "copy\0"
 3268      00
 3269 12b6 16       		.byte	0x16
 3270 12b7 5A01     		.word	0x15a
 3271 12b9 07       		.byte	0x7
 3272 12ba 5F5A4E53 		.ascii "_ZNSt11char_traitsIcE4copyEPcPKcy\0"
 3272      74313163 
 3272      6861725F 
 3272      74726169 
 3272      74734963 
 3273 12dc 7D680000 		.long	0x687d
 3274 12e0 F4120000 		.long	0x12f4
 3275 12e4 01       		.uleb128 0x1
 3276 12e5 7D680000 		.long	0x687d
 3277 12e9 01       		.uleb128 0x1
 3278 12ea 77680000 		.long	0x6877
 3279 12ee 01       		.uleb128 0x1
 3280 12ef 7C140000 		.long	0x147c
 3281 12f3 00       		.byte	0
 3282 12f4 2D       		.uleb128 0x2d
 3283 12f5 4F010000 		.secrel32	.LASF8
GAS LISTING C:\Users\gabri\AppData\Local\Temp\cc5DSkcw.s 			page 84


 3284 12f9 16       		.byte	0x16
 3285 12fa 6201     		.word	0x162
 3286 12fc 07       		.byte	0x7
 3287 12fd 5F5A4E53 		.ascii "_ZNSt11char_traitsIcE6assignEPcyc\0"
 3287      74313163 
 3287      6861725F 
 3287      74726169 
 3287      74734963 
 3288 131f 7D680000 		.long	0x687d
 3289 1323 37130000 		.long	0x1337
 3290 1327 01       		.uleb128 0x1
 3291 1328 7D680000 		.long	0x687d
 3292 132c 01       		.uleb128 0x1
 3293 132d 7C140000 		.long	0x147c
 3294 1331 01       		.uleb128 0x1
 3295 1332 18110000 		.long	0x1118
 3296 1336 00       		.byte	0
 3297 1337 2D       		.uleb128 0x2d
 3298 1338 DD000000 		.secrel32	.LASF9
 3299 133c 16       		.byte	0x16
 3300 133d 6A01     		.word	0x16a
 3301 133f 07       		.byte	0x7
 3302 1340 5F5A4E53 		.ascii "_ZNSt11char_traitsIcE12to_char_typeERKi\0"
 3302      74313163 
 3302      6861725F 
 3302      74726169 
 3302      74734963 
 3303 1368 18110000 		.long	0x1118
 3304 136c 76130000 		.long	0x1376
 3305 1370 01       		.uleb128 0x1
 3306 1371 83680000 		.long	0x6883
 3307 1375 00       		.byte	0
 3308 1376 41       		.uleb128 0x41
 3309 1377 A6000000 		.secrel32	.LASF10
 3310 137b 16       		.byte	0x16
 3311 137c 1601     		.word	0x116
 3312 137e 21       		.byte	0x21
 3313 137f 45460000 		.long	0x4645
 3314 1383 04       		.uleb128 0x4
 3315 1384 76130000 		.long	0x1376
 3316 1388 2D       		.uleb128 0x2d
 3317 1389 26010000 		.secrel32	.LASF11
 3318 138d 16       		.byte	0x16
 3319 138e 7001     		.word	0x170
 3320 1390 07       		.byte	0x7
 3321 1391 5F5A4E53 		.ascii "_ZNSt11char_traitsIcE11to_int_typeERKc\0"
 3321      74313163 
 3321      6861725F 
 3321      74726169 
 3321      74734963 
 3322 13b8 76130000 		.long	0x1376
 3323 13bc C6130000 		.long	0x13c6
 3324 13c0 01       		.uleb128 0x1
 3325 13c1 71680000 		.long	0x6871
 3326 13c5 00       		.byte	0
 3327 13c6 2D       		.uleb128 0x2d
 3328 13c7 A7010000 		.secrel32	.LASF12
GAS LISTING C:\Users\gabri\AppData\Local\Temp\cc5DSkcw.s 			page 85


 3329 13cb 16       		.byte	0x16
 3330 13cc 7401     		.word	0x174
 3331 13ce 07       		.byte	0x7
 3332 13cf 5F5A4E53 		.ascii "_ZNSt11char_traitsIcE11eq_int_typeERKiS2_\0"
 3332      74313163 
 3332      6861725F 
 3332      74726169 
 3332      74734963 
 3333 13f9 09680000 		.long	0x6809
 3334 13fd 0C140000 		.long	0x140c
 3335 1401 01       		.uleb128 0x1
 3336 1402 83680000 		.long	0x6883
 3337 1406 01       		.uleb128 0x1
 3338 1407 83680000 		.long	0x6883
 3339 140b 00       		.byte	0
 3340 140c 5D       		.uleb128 0x5d
 3341 140d 656F6600 		.ascii "eof\0"
 3342 1411 16       		.byte	0x16
 3343 1412 7801     		.word	0x178
 3344 1414 07       		.byte	0x7
 3345 1415 5F5A4E53 		.ascii "_ZNSt11char_traitsIcE3eofEv\0"
 3345      74313163 
 3345      6861725F 
 3345      74726169 
 3345      74734963 
 3346 1431 76130000 		.long	0x1376
 3347 1435 0F       		.uleb128 0xf
 3348 1436 6E6F745F 		.ascii "not_eof\0"
 3348      656F6600 
 3349 143e 16       		.byte	0x16
 3350 143f 7C01     		.word	0x17c
 3351 1441 07       		.byte	0x7
 3352 1442 5F5A4E53 		.ascii "_ZNSt11char_traitsIcE7not_eofERKi\0"
 3352      74313163 
 3352      6861725F 
 3352      74726169 
 3352      74734963 
 3353 1464 76130000 		.long	0x1376
 3354 1468 72140000 		.long	0x1472
 3355 146c 01       		.uleb128 0x1
 3356 146d 83680000 		.long	0x6883
 3357 1471 00       		.byte	0
 3358 1472 1A       		.uleb128 0x1a
 3359 1473 3D010000 		.secrel32	.LASF13
 3360 1477 86450000 		.long	0x4586
 3361 147b 00       		.byte	0
 3362 147c 08       		.uleb128 0x8
 3363 147d 73697A65 		.ascii "size_t\0"
 3363      5F7400
 3364 1484 17       		.byte	0x17
 3365 1485 EE       		.byte	0xee
 3366 1486 1A       		.byte	0x1a
 3367 1487 B2450000 		.long	0x45b2
 3368 148b 04       		.uleb128 0x4
 3369 148c 7C140000 		.long	0x147c
 3370 1490 18       		.uleb128 0x18
 3371 1491 63686172 		.ascii "char_traits<wchar_t>\0"
GAS LISTING C:\Users\gabri\AppData\Local\Temp\cc5DSkcw.s 			page 86


 3371      5F747261 
 3371      6974733C 
 3371      77636861 
 3371      725F743E 
 3372 14a6 01       		.byte	0x1
 3373 14a7 16       		.byte	0x16
 3374 14a8 8401     		.word	0x184
 3375 14aa 0C       		.byte	0xc
 3376 14ab 4E180000 		.long	0x184e
 3377 14af 5C       		.uleb128 0x5c
 3378 14b0 4F010000 		.secrel32	.LASF8
 3379 14b4 16       		.byte	0x16
 3380 14b5 8D01     		.word	0x18d
 3381 14b7 07       		.byte	0x7
 3382 14b8 5F5A4E53 		.ascii "_ZNSt11char_traitsIwE6assignERwRKw\0"
 3382      74313163 
 3382      6861725F 
 3382      74726169 
 3382      74734977 
 3383 14db EA140000 		.long	0x14ea
 3384 14df 01       		.uleb128 0x1
 3385 14e0 89680000 		.long	0x6889
 3386 14e4 01       		.uleb128 0x1
 3387 14e5 8F680000 		.long	0x688f
 3388 14e9 00       		.byte	0
 3389 14ea 41       		.uleb128 0x41
 3390 14eb C5000000 		.secrel32	.LASF7
 3391 14ef 16       		.byte	0x16
 3392 14f0 8601     		.word	0x186
 3393 14f2 21       		.byte	0x21
 3394 14f3 95490000 		.long	0x4995
 3395 14f7 04       		.uleb128 0x4
 3396 14f8 EA140000 		.long	0x14ea
 3397 14fc 0F       		.uleb128 0xf
 3398 14fd 657100   		.ascii "eq\0"
 3399 1500 16       		.byte	0x16
 3400 1501 9101     		.word	0x191
 3401 1503 07       		.byte	0x7
 3402 1504 5F5A4E53 		.ascii "_ZNSt11char_traitsIwE2eqERKwS2_\0"
 3402      74313163 
 3402      6861725F 
 3402      74726169 
 3402      74734977 
 3403 1524 09680000 		.long	0x6809
 3404 1528 37150000 		.long	0x1537
 3405 152c 01       		.uleb128 0x1
 3406 152d 8F680000 		.long	0x688f
 3407 1531 01       		.uleb128 0x1
 3408 1532 8F680000 		.long	0x688f
 3409 1536 00       		.byte	0
 3410 1537 0F       		.uleb128 0xf
 3411 1538 6C7400   		.ascii "lt\0"
 3412 153b 16       		.byte	0x16
 3413 153c 9501     		.word	0x195
 3414 153e 07       		.byte	0x7
 3415 153f 5F5A4E53 		.ascii "_ZNSt11char_traitsIwE2ltERKwS2_\0"
 3415      74313163 
GAS LISTING C:\Users\gabri\AppData\Local\Temp\cc5DSkcw.s 			page 87


 3415      6861725F 
 3415      74726169 
 3415      74734977 
 3416 155f 09680000 		.long	0x6809
 3417 1563 72150000 		.long	0x1572
 3418 1567 01       		.uleb128 0x1
 3419 1568 8F680000 		.long	0x688f
 3420 156c 01       		.uleb128 0x1
 3421 156d 8F680000 		.long	0x688f
 3422 1571 00       		.byte	0
 3423 1572 0F       		.uleb128 0xf
 3424 1573 636F6D70 		.ascii "compare\0"
 3424      61726500 
 3425 157b 16       		.byte	0x16
 3426 157c 9901     		.word	0x199
 3427 157e 07       		.byte	0x7
 3428 157f 5F5A4E53 		.ascii "_ZNSt11char_traitsIwE7compareEPKwS2_y\0"
 3428      74313163 
 3428      6861725F 
 3428      74726169 
 3428      74734977 
 3429 15a5 45460000 		.long	0x4645
 3430 15a9 BD150000 		.long	0x15bd
 3431 15ad 01       		.uleb128 0x1
 3432 15ae 95680000 		.long	0x6895
 3433 15b2 01       		.uleb128 0x1
 3434 15b3 95680000 		.long	0x6895
 3435 15b7 01       		.uleb128 0x1
 3436 15b8 7C140000 		.long	0x147c
 3437 15bc 00       		.byte	0
 3438 15bd 0F       		.uleb128 0xf
 3439 15be 6C656E67 		.ascii "length\0"
 3439      746800
 3440 15c5 16       		.byte	0x16
 3441 15c6 A801     		.word	0x1a8
 3442 15c8 07       		.byte	0x7
 3443 15c9 5F5A4E53 		.ascii "_ZNSt11char_traitsIwE6lengthEPKw\0"
 3443      74313163 
 3443      6861725F 
 3443      74726169 
 3443      74734977 
 3444 15ea 7C140000 		.long	0x147c
 3445 15ee F8150000 		.long	0x15f8
 3446 15f2 01       		.uleb128 0x1
 3447 15f3 95680000 		.long	0x6895
 3448 15f7 00       		.byte	0
 3449 15f8 0F       		.uleb128 0xf
 3450 15f9 66696E64 		.ascii "find\0"
 3450      00
 3451 15fe 16       		.byte	0x16
 3452 15ff B301     		.word	0x1b3
 3453 1601 07       		.byte	0x7
 3454 1602 5F5A4E53 		.ascii "_ZNSt11char_traitsIwE4findEPKwyRS1_\0"
 3454      74313163 
 3454      6861725F 
 3454      74726169 
 3454      74734977 
GAS LISTING C:\Users\gabri\AppData\Local\Temp\cc5DSkcw.s 			page 88


 3455 1626 95680000 		.long	0x6895
 3456 162a 3E160000 		.long	0x163e
 3457 162e 01       		.uleb128 0x1
 3458 162f 95680000 		.long	0x6895
 3459 1633 01       		.uleb128 0x1
 3460 1634 7C140000 		.long	0x147c
 3461 1638 01       		.uleb128 0x1
 3462 1639 8F680000 		.long	0x688f
 3463 163d 00       		.byte	0
 3464 163e 0F       		.uleb128 0xf
 3465 163f 6D6F7665 		.ascii "move\0"
 3465      00
 3466 1644 16       		.byte	0x16
 3467 1645 C201     		.word	0x1c2
 3468 1647 07       		.byte	0x7
 3469 1648 5F5A4E53 		.ascii "_ZNSt11char_traitsIwE4moveEPwPKwy\0"
 3469      74313163 
 3469      6861725F 
 3469      74726169 
 3469      74734977 
 3470 166a 9B680000 		.long	0x689b
 3471 166e 82160000 		.long	0x1682
 3472 1672 01       		.uleb128 0x1
 3473 1673 9B680000 		.long	0x689b
 3474 1677 01       		.uleb128 0x1
 3475 1678 95680000 		.long	0x6895
 3476 167c 01       		.uleb128 0x1
 3477 167d 7C140000 		.long	0x147c
 3478 1681 00       		.byte	0
 3479 1682 0F       		.uleb128 0xf
 3480 1683 636F7079 		.ascii "copy\0"
 3480      00
 3481 1688 16       		.byte	0x16
 3482 1689 CA01     		.word	0x1ca
 3483 168b 07       		.byte	0x7
 3484 168c 5F5A4E53 		.ascii "_ZNSt11char_traitsIwE4copyEPwPKwy\0"
 3484      74313163 
 3484      6861725F 
 3484      74726169 
 3484      74734977 
 3485 16ae 9B680000 		.long	0x689b
 3486 16b2 C6160000 		.long	0x16c6
 3487 16b6 01       		.uleb128 0x1
 3488 16b7 9B680000 		.long	0x689b
 3489 16bb 01       		.uleb128 0x1
 3490 16bc 95680000 		.long	0x6895
 3491 16c0 01       		.uleb128 0x1
 3492 16c1 7C140000 		.long	0x147c
 3493 16c5 00       		.byte	0
 3494 16c6 2D       		.uleb128 0x2d
 3495 16c7 4F010000 		.secrel32	.LASF8
 3496 16cb 16       		.byte	0x16
 3497 16cc D201     		.word	0x1d2
 3498 16ce 07       		.byte	0x7
 3499 16cf 5F5A4E53 		.ascii "_ZNSt11char_traitsIwE6assignEPwyw\0"
 3499      74313163 
 3499      6861725F 
GAS LISTING C:\Users\gabri\AppData\Local\Temp\cc5DSkcw.s 			page 89


 3499      74726169 
 3499      74734977 
 3500 16f1 9B680000 		.long	0x689b
 3501 16f5 09170000 		.long	0x1709
 3502 16f9 01       		.uleb128 0x1
 3503 16fa 9B680000 		.long	0x689b
 3504 16fe 01       		.uleb128 0x1
 3505 16ff 7C140000 		.long	0x147c
 3506 1703 01       		.uleb128 0x1
 3507 1704 EA140000 		.long	0x14ea
 3508 1708 00       		.byte	0
 3509 1709 2D       		.uleb128 0x2d
 3510 170a DD000000 		.secrel32	.LASF9
 3511 170e 16       		.byte	0x16
 3512 170f DA01     		.word	0x1da
 3513 1711 07       		.byte	0x7
 3514 1712 5F5A4E53 		.ascii "_ZNSt11char_traitsIwE12to_char_typeERKt\0"
 3514      74313163 
 3514      6861725F 
 3514      74726169 
 3514      74734977 
 3515 173a EA140000 		.long	0x14ea
 3516 173e 48170000 		.long	0x1748
 3517 1742 01       		.uleb128 0x1
 3518 1743 A1680000 		.long	0x68a1
 3519 1747 00       		.byte	0
 3520 1748 41       		.uleb128 0x41
 3521 1749 A6000000 		.secrel32	.LASF10
 3522 174d 16       		.byte	0x16
 3523 174e 8701     		.word	0x187
 3524 1750 21       		.byte	0x21
 3525 1751 0A460000 		.long	0x460a
 3526 1755 04       		.uleb128 0x4
 3527 1756 48170000 		.long	0x1748
 3528 175a 2D       		.uleb128 0x2d
 3529 175b 26010000 		.secrel32	.LASF11
 3530 175f 16       		.byte	0x16
 3531 1760 DE01     		.word	0x1de
 3532 1762 07       		.byte	0x7
 3533 1763 5F5A4E53 		.ascii "_ZNSt11char_traitsIwE11to_int_typeERKw\0"
 3533      74313163 
 3533      6861725F 
 3533      74726169 
 3533      74734977 
 3534 178a 48170000 		.long	0x1748
 3535 178e 98170000 		.long	0x1798
 3536 1792 01       		.uleb128 0x1
 3537 1793 8F680000 		.long	0x688f
 3538 1797 00       		.byte	0
 3539 1798 2D       		.uleb128 0x2d
 3540 1799 A7010000 		.secrel32	.LASF12
 3541 179d 16       		.byte	0x16
 3542 179e E201     		.word	0x1e2
 3543 17a0 07       		.byte	0x7
 3544 17a1 5F5A4E53 		.ascii "_ZNSt11char_traitsIwE11eq_int_typeERKtS2_\0"
 3544      74313163 
 3544      6861725F 
GAS LISTING C:\Users\gabri\AppData\Local\Temp\cc5DSkcw.s 			page 90


 3544      74726169 
 3544      74734977 
 3545 17cb 09680000 		.long	0x6809
 3546 17cf DE170000 		.long	0x17de
 3547 17d3 01       		.uleb128 0x1
 3548 17d4 A1680000 		.long	0x68a1
 3549 17d8 01       		.uleb128 0x1
 3550 17d9 A1680000 		.long	0x68a1
 3551 17dd 00       		.byte	0
 3552 17de 5D       		.uleb128 0x5d
 3553 17df 656F6600 		.ascii "eof\0"
 3554 17e3 16       		.byte	0x16
 3555 17e4 E601     		.word	0x1e6
 3556 17e6 07       		.byte	0x7
 3557 17e7 5F5A4E53 		.ascii "_ZNSt11char_traitsIwE3eofEv\0"
 3557      74313163 
 3557      6861725F 
 3557      74726169 
 3557      74734977 
 3558 1803 48170000 		.long	0x1748
 3559 1807 0F       		.uleb128 0xf
 3560 1808 6E6F745F 		.ascii "not_eof\0"
 3560      656F6600 
 3561 1810 16       		.byte	0x16
 3562 1811 EA01     		.word	0x1ea
 3563 1813 07       		.byte	0x7
 3564 1814 5F5A4E53 		.ascii "_ZNSt11char_traitsIwE7not_eofERKt\0"
 3564      74313163 
 3564      6861725F 
 3564      74726169 
 3564      74734977 
 3565 1836 48170000 		.long	0x1748
 3566 183a 44180000 		.long	0x1844
 3567 183e 01       		.uleb128 0x1
 3568 183f A1680000 		.long	0x68a1
 3569 1843 00       		.byte	0
 3570 1844 1A       		.uleb128 0x1a
 3571 1845 3D010000 		.secrel32	.LASF13
 3572 1849 95490000 		.long	0x4995
 3573 184d 00       		.byte	0
 3574 184e 02       		.uleb128 0x2
 3575 184f 18       		.byte	0x18
 3576 1850 30       		.byte	0x30
 3577 1851 0B       		.byte	0xb
 3578 1852 A7680000 		.long	0x68a7
 3579 1856 02       		.uleb128 0x2
 3580 1857 18       		.byte	0x18
 3581 1858 31       		.byte	0x31
 3582 1859 0B       		.byte	0xb
 3583 185a C6680000 		.long	0x68c6
 3584 185e 02       		.uleb128 0x2
 3585 185f 18       		.byte	0x18
 3586 1860 32       		.byte	0x32
 3587 1861 0B       		.byte	0xb
 3588 1862 E7680000 		.long	0x68e7
 3589 1866 02       		.uleb128 0x2
 3590 1867 18       		.byte	0x18
GAS LISTING C:\Users\gabri\AppData\Local\Temp\cc5DSkcw.s 			page 91


 3591 1868 33       		.byte	0x33
 3592 1869 0B       		.byte	0xb
 3593 186a 08690000 		.long	0x6908
 3594 186e 02       		.uleb128 0x2
 3595 186f 18       		.byte	0x18
 3596 1870 35       		.byte	0x35
 3597 1871 0B       		.byte	0xb
 3598 1872 DB690000 		.long	0x69db
 3599 1876 02       		.uleb128 0x2
 3600 1877 18       		.byte	0x18
 3601 1878 36       		.byte	0x36
 3602 1879 0B       		.byte	0xb
 3603 187a 046A0000 		.long	0x6a04
 3604 187e 02       		.uleb128 0x2
 3605 187f 18       		.byte	0x18
 3606 1880 37       		.byte	0x37
 3607 1881 0B       		.byte	0xb
 3608 1882 2F6A0000 		.long	0x6a2f
 3609 1886 02       		.uleb128 0x2
 3610 1887 18       		.byte	0x18
 3611 1888 38       		.byte	0x38
 3612 1889 0B       		.byte	0xb
 3613 188a 5A6A0000 		.long	0x6a5a
 3614 188e 02       		.uleb128 0x2
 3615 188f 18       		.byte	0x18
 3616 1890 3A       		.byte	0x3a
 3617 1891 0B       		.byte	0xb
 3618 1892 29690000 		.long	0x6929
 3619 1896 02       		.uleb128 0x2
 3620 1897 18       		.byte	0x18
 3621 1898 3B       		.byte	0x3b
 3622 1899 0B       		.byte	0xb
 3623 189a 54690000 		.long	0x6954
 3624 189e 02       		.uleb128 0x2
 3625 189f 18       		.byte	0x18
 3626 18a0 3C       		.byte	0x3c
 3627 18a1 0B       		.byte	0xb
 3628 18a2 81690000 		.long	0x6981
 3629 18a6 02       		.uleb128 0x2
 3630 18a7 18       		.byte	0x18
 3631 18a8 3D       		.byte	0x3d
 3632 18a9 0B       		.byte	0xb
 3633 18aa AE690000 		.long	0x69ae
 3634 18ae 02       		.uleb128 0x2
 3635 18af 18       		.byte	0x18
 3636 18b0 3F       		.byte	0x3f
 3637 18b1 0B       		.byte	0xb
 3638 18b2 856A0000 		.long	0x6a85
 3639 18b6 02       		.uleb128 0x2
 3640 18b7 18       		.byte	0x18
 3641 18b8 40       		.byte	0x40
 3642 18b9 0B       		.byte	0xb
 3643 18ba E7450000 		.long	0x45e7
 3644 18be 02       		.uleb128 0x2
 3645 18bf 18       		.byte	0x18
 3646 18c0 42       		.byte	0x42
 3647 18c1 0B       		.byte	0xb
GAS LISTING C:\Users\gabri\AppData\Local\Temp\cc5DSkcw.s 			page 92


 3648 18c2 B6680000 		.long	0x68b6
 3649 18c6 02       		.uleb128 0x2
 3650 18c7 18       		.byte	0x18
 3651 18c8 43       		.byte	0x43
 3652 18c9 0B       		.byte	0xb
 3653 18ca D6680000 		.long	0x68d6
 3654 18ce 02       		.uleb128 0x2
 3655 18cf 18       		.byte	0x18
 3656 18d0 44       		.byte	0x44
 3657 18d1 0B       		.byte	0xb
 3658 18d2 F7680000 		.long	0x68f7
 3659 18d6 02       		.uleb128 0x2
 3660 18d7 18       		.byte	0x18
 3661 18d8 45       		.byte	0x45
 3662 18d9 0B       		.byte	0xb
 3663 18da 18690000 		.long	0x6918
 3664 18de 02       		.uleb128 0x2
 3665 18df 18       		.byte	0x18
 3666 18e0 47       		.byte	0x47
 3667 18e1 0B       		.byte	0xb
 3668 18e2 EF690000 		.long	0x69ef
 3669 18e6 02       		.uleb128 0x2
 3670 18e7 18       		.byte	0x18
 3671 18e8 48       		.byte	0x48
 3672 18e9 0B       		.byte	0xb
 3673 18ea 196A0000 		.long	0x6a19
 3674 18ee 02       		.uleb128 0x2
 3675 18ef 18       		.byte	0x18
 3676 18f0 49       		.byte	0x49
 3677 18f1 0B       		.byte	0xb
 3678 18f2 446A0000 		.long	0x6a44
 3679 18f6 02       		.uleb128 0x2
 3680 18f7 18       		.byte	0x18
 3681 18f8 4A       		.byte	0x4a
 3682 18f9 0B       		.byte	0xb
 3683 18fa 6F6A0000 		.long	0x6a6f
 3684 18fe 02       		.uleb128 0x2
 3685 18ff 18       		.byte	0x18
 3686 1900 4C       		.byte	0x4c
 3687 1901 0B       		.byte	0xb
 3688 1902 3E690000 		.long	0x693e
 3689 1906 02       		.uleb128 0x2
 3690 1907 18       		.byte	0x18
 3691 1908 4D       		.byte	0x4d
 3692 1909 0B       		.byte	0xb
 3693 190a 6A690000 		.long	0x696a
 3694 190e 02       		.uleb128 0x2
 3695 190f 18       		.byte	0x18
 3696 1910 4E       		.byte	0x4e
 3697 1911 0B       		.byte	0xb
 3698 1912 97690000 		.long	0x6997
 3699 1916 02       		.uleb128 0x2
 3700 1917 18       		.byte	0x18
 3701 1918 4F       		.byte	0x4f
 3702 1919 0B       		.byte	0xb
 3703 191a C4690000 		.long	0x69c4
 3704 191e 02       		.uleb128 0x2
GAS LISTING C:\Users\gabri\AppData\Local\Temp\cc5DSkcw.s 			page 93


 3705 191f 18       		.byte	0x18
 3706 1920 51       		.byte	0x51
 3707 1921 0B       		.byte	0xb
 3708 1922 9B6A0000 		.long	0x6a9b
 3709 1926 02       		.uleb128 0x2
 3710 1927 18       		.byte	0x18
 3711 1928 52       		.byte	0x52
 3712 1929 0B       		.byte	0xb
 3713 192a F8450000 		.long	0x45f8
 3714 192e 08       		.uleb128 0x8
 3715 192f 70747264 		.ascii "ptrdiff_t\0"
 3715      6966665F 
 3715      7400
 3716 1939 17       		.byte	0x17
 3717 193a EF       		.byte	0xef
 3718 193b 1C       		.byte	0x1c
 3719 193c D1450000 		.long	0x45d1
 3720 1940 75       		.uleb128 0x75
 3721 1941 6C697465 		.ascii "literals\0"
 3721      72616C73 
 3721      00
 3722 194a 19       		.byte	0x19
 3723 194b 081A     		.word	0x1a08
 3724 194d 14       		.byte	0x14
 3725 194e AE190000 		.long	0x19ae
 3726 1952 34       		.uleb128 0x34
 3727 1953 73747269 		.ascii "string_literals\0"
 3727      6E675F6C 
 3727      69746572 
 3727      616C7300 
 3728 1963 19       		.byte	0x19
 3729 1964 0A1A     		.word	0x1a0a
 3730 1966 14       		.byte	0x14
 3731 1967 2C       		.uleb128 0x2c
 3732 1968 19       		.byte	0x19
 3733 1969 0A1A     		.word	0x1a0a
 3734 196b 14       		.byte	0x14
 3735 196c 52190000 		.long	0x1952
 3736 1970 34       		.uleb128 0x34
 3737 1971 636F6D70 		.ascii "complex_literals\0"
 3737      6C65785F 
 3737      6C697465 
 3737      72616C73 
 3737      00
 3738 1982 1A       		.byte	0x1a
 3739 1983 AC07     		.word	0x7ac
 3740 1985 12       		.byte	0x12
 3741 1986 2C       		.uleb128 0x2c
 3742 1987 1A       		.byte	0x1a
 3743 1988 AC07     		.word	0x7ac
 3744 198a 12       		.byte	0x12
 3745 198b 70190000 		.long	0x1970
 3746 198f 34       		.uleb128 0x34
 3747 1990 6368726F 		.ascii "chrono_literals\0"
 3747      6E6F5F6C 
 3747      69746572 
 3747      616C7300 
GAS LISTING C:\Users\gabri\AppData\Local\Temp\cc5DSkcw.s 			page 94


 3748 19a0 1B       		.byte	0x1b
 3749 19a1 7503     		.word	0x375
 3750 19a3 14       		.byte	0x14
 3751 19a4 2C       		.uleb128 0x2c
 3752 19a5 1B       		.byte	0x1b
 3753 19a6 7503     		.word	0x375
 3754 19a8 14       		.byte	0x14
 3755 19a9 8F190000 		.long	0x198f
 3756 19ad 00       		.byte	0
 3757 19ae 2C       		.uleb128 0x2c
 3758 19af 19       		.byte	0x19
 3759 19b0 081A     		.word	0x1a08
 3760 19b2 14       		.byte	0x14
 3761 19b3 40190000 		.long	0x1940
 3762 19b7 76       		.uleb128 0x76
 3763 19b8 5F563200 		.ascii "_V2\0"
 3764 19bc 1C       		.byte	0x1c
 3765 19bd 47       		.byte	0x47
 3766 19be 14       		.byte	0x14
 3767 19bf 4F       		.uleb128 0x4f
 3768 19c0 1C       		.byte	0x1c
 3769 19c1 47       		.byte	0x47
 3770 19c2 14       		.byte	0x14
 3771 19c3 B7190000 		.long	0x19b7
 3772 19c7 3D       		.uleb128 0x3d
 3773 19c8 696F735F 		.ascii "ios_base\0"
 3773      62617365 
 3773      00
 3774 19d1 7E1A0000 		.long	0x1a7e
 3775 19d5 77       		.uleb128 0x77
 3776 19d6 496E6974 		.ascii "Init\0"
 3776      00
 3777 19db 01       		.byte	0x1
 3778 19dc 1D       		.byte	0x1d
 3779 19dd 5B02     		.word	0x25b
 3780 19df 0B       		.byte	0xb
 3781 19e0 01       		.byte	0x1
 3782 19e1 42       		.uleb128 0x42
 3783 19e2 496E6974 		.ascii "Init\0"
 3783      00
 3784 19e7 1D       		.byte	0x1d
 3785 19e8 5F02     		.word	0x25f
 3786 19ea 07       		.byte	0x7
 3787 19eb 5F5A4E53 		.ascii "_ZNSt8ios_base4InitC4Ev\0"
 3787      7438696F 
 3787      735F6261 
 3787      73653449 
 3787      6E697443 
 3788 1a03 01       		.byte	0x1
 3789 1a04 0C1A0000 		.long	0x1a0c
 3790 1a08 121A0000 		.long	0x1a12
 3791 1a0c 06       		.uleb128 0x6
 3792 1a0d 326B0000 		.long	0x6b32
 3793 1a11 00       		.byte	0
 3794 1a12 42       		.uleb128 0x42
 3795 1a13 7E496E69 		.ascii "~Init\0"
 3795      7400
GAS LISTING C:\Users\gabri\AppData\Local\Temp\cc5DSkcw.s 			page 95


 3796 1a19 1D       		.byte	0x1d
 3797 1a1a 6002     		.word	0x260
 3798 1a1c 07       		.byte	0x7
 3799 1a1d 5F5A4E53 		.ascii "_ZNSt8ios_base4InitD4Ev\0"
 3799      7438696F 
 3799      735F6261 
 3799      73653449 
 3799      6E697444 
 3800 1a35 01       		.byte	0x1
 3801 1a36 3E1A0000 		.long	0x1a3e
 3802 1a3a 491A0000 		.long	0x1a49
 3803 1a3e 06       		.uleb128 0x6
 3804 1a3f 326B0000 		.long	0x6b32
 3805 1a43 06       		.uleb128 0x6
 3806 1a44 45460000 		.long	0x4645
 3807 1a48 00       		.byte	0
 3808 1a49 5E       		.uleb128 0x5e
 3809 1a4a 5F535F72 		.ascii "_S_refcount\0"
 3809      6566636F 
 3809      756E7400 
 3810 1a56 1D       		.byte	0x1d
 3811 1a57 6302     		.word	0x263
 3812 1a59 1B       		.byte	0x1b
 3813 1a5a 116B0000 		.long	0x6b11
 3814 1a5e 5E       		.uleb128 0x5e
 3815 1a5f 5F535F73 		.ascii "_S_synced_with_stdio\0"
 3815      796E6365 
 3815      645F7769 
 3815      74685F73 
 3815      7464696F 
 3816 1a74 1D       		.byte	0x1d
 3817 1a75 6402     		.word	0x264
 3818 1a77 14       		.byte	0x14
 3819 1a78 09680000 		.long	0x6809
 3820 1a7c 00       		.byte	0
 3821 1a7d 00       		.byte	0
 3822 1a7e 02       		.uleb128 0x2
 3823 1a7f 1E       		.byte	0x1e
 3824 1a80 52       		.byte	0x52
 3825 1a81 0B       		.byte	0xb
 3826 1a82 386B0000 		.long	0x6b38
 3827 1a86 02       		.uleb128 0x2
 3828 1a87 1E       		.byte	0x1e
 3829 1a88 53       		.byte	0x53
 3830 1a89 0B       		.byte	0xb
 3831 1a8a 34460000 		.long	0x4634
 3832 1a8e 02       		.uleb128 0x2
 3833 1a8f 1E       		.byte	0x1e
 3834 1a90 54       		.byte	0x54
 3835 1a91 0B       		.byte	0xb
 3836 1a92 0A460000 		.long	0x460a
 3837 1a96 02       		.uleb128 0x2
 3838 1a97 1E       		.byte	0x1e
 3839 1a98 5C       		.byte	0x5c
 3840 1a99 0B       		.byte	0xb
 3841 1a9a 4A6B0000 		.long	0x6b4a
 3842 1a9e 02       		.uleb128 0x2
GAS LISTING C:\Users\gabri\AppData\Local\Temp\cc5DSkcw.s 			page 96


 3843 1a9f 1E       		.byte	0x1e
 3844 1aa0 65       		.byte	0x65
 3845 1aa1 0B       		.byte	0xb
 3846 1aa2 6A6B0000 		.long	0x6b6a
 3847 1aa6 02       		.uleb128 0x2
 3848 1aa7 1E       		.byte	0x1e
 3849 1aa8 68       		.byte	0x68
 3850 1aa9 0B       		.byte	0xb
 3851 1aaa 8B6B0000 		.long	0x6b8b
 3852 1aae 02       		.uleb128 0x2
 3853 1aaf 1E       		.byte	0x1e
 3854 1ab0 69       		.byte	0x69
 3855 1ab1 0B       		.byte	0xb
 3856 1ab2 A56B0000 		.long	0x6ba5
 3857 1ab6 3D       		.uleb128 0x3d
 3858 1ab7 62617369 		.ascii "basic_ostream<char, std::char_traits<char> >\0"
 3858      635F6F73 
 3858      74726561 
 3858      6D3C6368 
 3858      61722C20 
 3859 1ae4 FB1A0000 		.long	0x1afb
 3860 1ae8 1A       		.uleb128 0x1a
 3861 1ae9 3D010000 		.secrel32	.LASF13
 3862 1aed 86450000 		.long	0x4586
 3863 1af1 43       		.uleb128 0x43
 3864 1af2 9E000000 		.secrel32	.LASF14
 3865 1af6 C1100000 		.long	0x10c1
 3866 1afa 00       		.byte	0
 3867 1afb 3D       		.uleb128 0x3d
 3868 1afc 62617369 		.ascii "basic_ostream<wchar_t, std::char_traits<wchar_t> >\0"
 3868      635F6F73 
 3868      74726561 
 3868      6D3C7763 
 3868      6861725F 
 3869 1b2f 461B0000 		.long	0x1b46
 3870 1b33 1A       		.uleb128 0x1a
 3871 1b34 3D010000 		.secrel32	.LASF13
 3872 1b38 95490000 		.long	0x4995
 3873 1b3c 43       		.uleb128 0x43
 3874 1b3d 9E000000 		.secrel32	.LASF14
 3875 1b41 90140000 		.long	0x1490
 3876 1b45 00       		.byte	0
 3877 1b46 3D       		.uleb128 0x3d
 3878 1b47 62617369 		.ascii "basic_istream<char, std::char_traits<char> >\0"
 3878      635F6973 
 3878      74726561 
 3878      6D3C6368 
 3878      61722C20 
 3879 1b74 8B1B0000 		.long	0x1b8b
 3880 1b78 1A       		.uleb128 0x1a
 3881 1b79 3D010000 		.secrel32	.LASF13
 3882 1b7d 86450000 		.long	0x4586
 3883 1b81 43       		.uleb128 0x43
 3884 1b82 9E000000 		.secrel32	.LASF14
 3885 1b86 C1100000 		.long	0x10c1
 3886 1b8a 00       		.byte	0
 3887 1b8b 3D       		.uleb128 0x3d
GAS LISTING C:\Users\gabri\AppData\Local\Temp\cc5DSkcw.s 			page 97


 3888 1b8c 62617369 		.ascii "basic_istream<wchar_t, std::char_traits<wchar_t> >\0"
 3888      635F6973 
 3888      74726561 
 3888      6D3C7763 
 3888      6861725F 
 3889 1bbf D61B0000 		.long	0x1bd6
 3890 1bc3 1A       		.uleb128 0x1a
 3891 1bc4 3D010000 		.secrel32	.LASF13
 3892 1bc8 95490000 		.long	0x4995
 3893 1bcc 43       		.uleb128 0x43
 3894 1bcd 9E000000 		.secrel32	.LASF14
 3895 1bd1 90140000 		.long	0x1490
 3896 1bd5 00       		.byte	0
 3897 1bd6 02       		.uleb128 0x2
 3898 1bd7 1F       		.byte	0x1f
 3899 1bd8 3A       		.byte	0x3a
 3900 1bd9 0B       		.byte	0xb
 3901 1bda 2A6D0000 		.long	0x6d2a
 3902 1bde 02       		.uleb128 0x2
 3903 1bdf 1F       		.byte	0x1f
 3904 1be0 3B       		.byte	0x3b
 3905 1be1 0B       		.byte	0xb
 3906 1be2 F86B0000 		.long	0x6bf8
 3907 1be6 02       		.uleb128 0x2
 3908 1be7 20       		.byte	0x20
 3909 1be8 3D       		.byte	0x3d
 3910 1be9 0B       		.byte	0xb
 3911 1bea 2A6D0000 		.long	0x6d2a
 3912 1bee 02       		.uleb128 0x2
 3913 1bef 20       		.byte	0x20
 3914 1bf0 3E       		.byte	0x3e
 3915 1bf1 0B       		.byte	0xb
 3916 1bf2 F86B0000 		.long	0x6bf8
 3917 1bf6 02       		.uleb128 0x2
 3918 1bf7 21       		.byte	0x21
 3919 1bf8 3A       		.byte	0x3a
 3920 1bf9 0B       		.byte	0xb
 3921 1bfa 696D0000 		.long	0x6d69
 3922 1bfe 02       		.uleb128 0x2
 3923 1bff 21       		.byte	0x21
 3924 1c00 3E       		.byte	0x3e
 3925 1c01 0B       		.byte	0xb
 3926 1c02 7B6D0000 		.long	0x6d7b
 3927 1c06 02       		.uleb128 0x2
 3928 1c07 21       		.byte	0x21
 3929 1c08 44       		.byte	0x44
 3930 1c09 0B       		.byte	0xb
 3931 1c0a 9B6D0000 		.long	0x6d9b
 3932 1c0e 02       		.uleb128 0x2
 3933 1c0f 21       		.byte	0x21
 3934 1c10 45       		.byte	0x45
 3935 1c11 0B       		.byte	0xb
 3936 1c12 C26D0000 		.long	0x6dc2
 3937 1c16 02       		.uleb128 0x2
 3938 1c17 21       		.byte	0x21
 3939 1c18 48       		.byte	0x48
 3940 1c19 0B       		.byte	0xb
GAS LISTING C:\Users\gabri\AppData\Local\Temp\cc5DSkcw.s 			page 98


 3941 1c1a E96D0000 		.long	0x6de9
 3942 1c1e 02       		.uleb128 0x2
 3943 1c1f 21       		.byte	0x21
 3944 1c20 49       		.byte	0x49
 3945 1c21 0B       		.byte	0xb
 3946 1c22 106E0000 		.long	0x6e10
 3947 1c26 02       		.uleb128 0x2
 3948 1c27 22       		.byte	0x22
 3949 1c28 41       		.byte	0x41
 3950 1c29 0B       		.byte	0xb
 3951 1c2a 376E0000 		.long	0x6e37
 3952 1c2e 02       		.uleb128 0x2
 3953 1c2f 22       		.byte	0x22
 3954 1c30 42       		.byte	0x42
 3955 1c31 0B       		.byte	0xb
 3956 1c32 616E0000 		.long	0x6e61
 3957 1c36 02       		.uleb128 0x2
 3958 1c37 22       		.byte	0x22
 3959 1c38 43       		.byte	0x43
 3960 1c39 0B       		.byte	0xb
 3961 1c3a 866E0000 		.long	0x6e86
 3962 1c3e 02       		.uleb128 0x2
 3963 1c3f 22       		.byte	0x22
 3964 1c40 44       		.byte	0x44
 3965 1c41 0B       		.byte	0xb
 3966 1c42 B06E0000 		.long	0x6eb0
 3967 1c46 35       		.uleb128 0x35
 3968 1c47 50000000 		.secrel32	.LASF15
 3969 1c4b 01       		.byte	0x1
 3970 1c4c 23       		.byte	0x23
 3971 1c4d 2E       		.byte	0x2e
 3972 1c4e 0A       		.byte	0xa
 3973 1c4f 821C0000 		.long	0x1c82
 3974 1c53 36       		.uleb128 0x36
 3975 1c54 50000000 		.secrel32	.LASF15
 3976 1c58 23       		.byte	0x23
 3977 1c59 2E       		.byte	0x2e
 3978 1c5a 25       		.byte	0x25
 3979 1c5b 5F5A4E53 		.ascii "_ZNSt15allocator_arg_tC4Ev\0"
 3979      74313561 
 3979      6C6C6F63 
 3979      61746F72 
 3979      5F617267 
 3980 1c76 01       		.byte	0x1
 3981 1c77 7B1C0000 		.long	0x1c7b
 3982 1c7b 06       		.uleb128 0x6
 3983 1c7c D56E0000 		.long	0x6ed5
 3984 1c80 00       		.byte	0
 3985 1c81 00       		.byte	0
 3986 1c82 04       		.uleb128 0x4
 3987 1c83 461C0000 		.long	0x1c46
 3988 1c87 3C       		.uleb128 0x3c
 3989 1c88 616C6C6F 		.ascii "allocator_arg\0"
 3989      6361746F 
 3989      725F6172 
 3989      6700
 3990 1c96 23       		.byte	0x23
GAS LISTING C:\Users\gabri\AppData\Local\Temp\cc5DSkcw.s 			page 99


 3991 1c97 30       		.byte	0x30
 3992 1c98 2F       		.byte	0x2f
 3993 1c99 821C0000 		.long	0x1c82
 3994 1c9d 01       		.byte	0x1
 3995 1c9e 00       		.byte	0
 3996 1c9f 78       		.uleb128 0x78
 3997 1ca0 5F537761 		.ascii "_Swallow_assign\0"
 3997      6C6C6F77 
 3997      5F617373 
 3997      69676E00 
 3998 1cb0 01       		.byte	0x1
 3999 1cb1 24       		.byte	0x24
 4000 1cb2 6006     		.word	0x660
 4001 1cb4 0A       		.byte	0xa
 4002 1cb5 04       		.uleb128 0x4
 4003 1cb6 9F1C0000 		.long	0x1c9f
 4004 1cba 79       		.uleb128 0x79
 4005 1cbb 69676E6F 		.ascii "ignore\0"
 4005      726500
 4006 1cc2 24       		.byte	0x24
 4007 1cc3 6A06     		.word	0x66a
 4008 1cc5 2F       		.byte	0x2f
 4009 1cc6 B51C0000 		.long	0x1cb5
 4010 1cca 01       		.byte	0x1
 4011 1ccb 00       		.byte	0
 4012 1ccc 0E       		.uleb128 0xe
 4013 1ccd 5F506C61 		.ascii "_Placeholder<1>\0"
 4013      6365686F 
 4013      6C646572 
 4013      3C313E00 
 4014 1cdd 04       		.uleb128 0x4
 4015 1cde CC1C0000 		.long	0x1ccc
 4016 1ce2 37       		.uleb128 0x37
 4017 1ce3 706C6163 		.ascii "placeholders\0"
 4017      65686F6C 
 4017      64657273 
 4017      00
 4018 1cf0 25       		.byte	0x25
 4019 1cf1 CD       		.byte	0xcd
 4020 1cf2 0D       		.byte	0xd
 4021 1cf3 17210000 		.long	0x2117
 4022 1cf7 0C       		.uleb128 0xc
 4023 1cf8 5F3100   		.ascii "_1\0"
 4024 1cfb 25       		.byte	0x25
 4025 1cfc D3       		.byte	0xd3
 4026 1cfd 22       		.byte	0x22
 4027 1cfe 5F5A4E53 		.ascii "_ZNSt12placeholders2_1E\0"
 4027      74313270 
 4027      6C616365 
 4027      686F6C64 
 4027      65727332 
 4028 1d16 DD1C0000 		.long	0x1cdd
 4029 1d1a 0C       		.uleb128 0xc
 4030 1d1b 5F3200   		.ascii "_2\0"
 4031 1d1e 25       		.byte	0x25
 4032 1d1f D4       		.byte	0xd4
 4033 1d20 22       		.byte	0x22
GAS LISTING C:\Users\gabri\AppData\Local\Temp\cc5DSkcw.s 			page 100


 4034 1d21 5F5A4E53 		.ascii "_ZNSt12placeholders2_2E\0"
 4034      74313270 
 4034      6C616365 
 4034      686F6C64 
 4034      65727332 
 4035 1d39 28210000 		.long	0x2128
 4036 1d3d 0C       		.uleb128 0xc
 4037 1d3e 5F3300   		.ascii "_3\0"
 4038 1d41 25       		.byte	0x25
 4039 1d42 D5       		.byte	0xd5
 4040 1d43 22       		.byte	0x22
 4041 1d44 5F5A4E53 		.ascii "_ZNSt12placeholders2_3E\0"
 4041      74313270 
 4041      6C616365 
 4041      686F6C64 
 4041      65727332 
 4042 1d5c 3E210000 		.long	0x213e
 4043 1d60 0C       		.uleb128 0xc
 4044 1d61 5F3400   		.ascii "_4\0"
 4045 1d64 25       		.byte	0x25
 4046 1d65 D6       		.byte	0xd6
 4047 1d66 22       		.byte	0x22
 4048 1d67 5F5A4E53 		.ascii "_ZNSt12placeholders2_4E\0"
 4048      74313270 
 4048      6C616365 
 4048      686F6C64 
 4048      65727332 
 4049 1d7f 54210000 		.long	0x2154
 4050 1d83 0C       		.uleb128 0xc
 4051 1d84 5F3500   		.ascii "_5\0"
 4052 1d87 25       		.byte	0x25
 4053 1d88 D7       		.byte	0xd7
 4054 1d89 22       		.byte	0x22
 4055 1d8a 5F5A4E53 		.ascii "_ZNSt12placeholders2_5E\0"
 4055      74313270 
 4055      6C616365 
 4055      686F6C64 
 4055      65727332 
 4056 1da2 6A210000 		.long	0x216a
 4057 1da6 0C       		.uleb128 0xc
 4058 1da7 5F3600   		.ascii "_6\0"
 4059 1daa 25       		.byte	0x25
 4060 1dab D8       		.byte	0xd8
 4061 1dac 22       		.byte	0x22
 4062 1dad 5F5A4E53 		.ascii "_ZNSt12placeholders2_6E\0"
 4062      74313270 
 4062      6C616365 
 4062      686F6C64 
 4062      65727332 
 4063 1dc5 80210000 		.long	0x2180
 4064 1dc9 0C       		.uleb128 0xc
 4065 1dca 5F3700   		.ascii "_7\0"
 4066 1dcd 25       		.byte	0x25
 4067 1dce D9       		.byte	0xd9
 4068 1dcf 22       		.byte	0x22
 4069 1dd0 5F5A4E53 		.ascii "_ZNSt12placeholders2_7E\0"
 4069      74313270 
GAS LISTING C:\Users\gabri\AppData\Local\Temp\cc5DSkcw.s 			page 101


 4069      6C616365 
 4069      686F6C64 
 4069      65727332 
 4070 1de8 96210000 		.long	0x2196
 4071 1dec 0C       		.uleb128 0xc
 4072 1ded 5F3800   		.ascii "_8\0"
 4073 1df0 25       		.byte	0x25
 4074 1df1 DA       		.byte	0xda
 4075 1df2 22       		.byte	0x22
 4076 1df3 5F5A4E53 		.ascii "_ZNSt12placeholders2_8E\0"
 4076      74313270 
 4076      6C616365 
 4076      686F6C64 
 4076      65727332 
 4077 1e0b AC210000 		.long	0x21ac
 4078 1e0f 0C       		.uleb128 0xc
 4079 1e10 5F3900   		.ascii "_9\0"
 4080 1e13 25       		.byte	0x25
 4081 1e14 DB       		.byte	0xdb
 4082 1e15 22       		.byte	0x22
 4083 1e16 5F5A4E53 		.ascii "_ZNSt12placeholders2_9E\0"
 4083      74313270 
 4083      6C616365 
 4083      686F6C64 
 4083      65727332 
 4084 1e2e C2210000 		.long	0x21c2
 4085 1e32 0C       		.uleb128 0xc
 4086 1e33 5F313000 		.ascii "_10\0"
 4087 1e37 25       		.byte	0x25
 4088 1e38 DC       		.byte	0xdc
 4089 1e39 23       		.byte	0x23
 4090 1e3a 5F5A4E53 		.ascii "_ZNSt12placeholders3_10E\0"
 4090      74313270 
 4090      6C616365 
 4090      686F6C64 
 4090      65727333 
 4091 1e53 D9210000 		.long	0x21d9
 4092 1e57 0C       		.uleb128 0xc
 4093 1e58 5F313100 		.ascii "_11\0"
 4094 1e5c 25       		.byte	0x25
 4095 1e5d DD       		.byte	0xdd
 4096 1e5e 23       		.byte	0x23
 4097 1e5f 5F5A4E53 		.ascii "_ZNSt12placeholders3_11E\0"
 4097      74313270 
 4097      6C616365 
 4097      686F6C64 
 4097      65727333 
 4098 1e78 F0210000 		.long	0x21f0
 4099 1e7c 0C       		.uleb128 0xc
 4100 1e7d 5F313200 		.ascii "_12\0"
 4101 1e81 25       		.byte	0x25
 4102 1e82 DE       		.byte	0xde
 4103 1e83 23       		.byte	0x23
 4104 1e84 5F5A4E53 		.ascii "_ZNSt12placeholders3_12E\0"
 4104      74313270 
 4104      6C616365 
 4104      686F6C64 
GAS LISTING C:\Users\gabri\AppData\Local\Temp\cc5DSkcw.s 			page 102


 4104      65727333 
 4105 1e9d 07220000 		.long	0x2207
 4106 1ea1 0C       		.uleb128 0xc
 4107 1ea2 5F313300 		.ascii "_13\0"
 4108 1ea6 25       		.byte	0x25
 4109 1ea7 DF       		.byte	0xdf
 4110 1ea8 23       		.byte	0x23
 4111 1ea9 5F5A4E53 		.ascii "_ZNSt12placeholders3_13E\0"
 4111      74313270 
 4111      6C616365 
 4111      686F6C64 
 4111      65727333 
 4112 1ec2 1E220000 		.long	0x221e
 4113 1ec6 0C       		.uleb128 0xc
 4114 1ec7 5F313400 		.ascii "_14\0"
 4115 1ecb 25       		.byte	0x25
 4116 1ecc E0       		.byte	0xe0
 4117 1ecd 23       		.byte	0x23
 4118 1ece 5F5A4E53 		.ascii "_ZNSt12placeholders3_14E\0"
 4118      74313270 
 4118      6C616365 
 4118      686F6C64 
 4118      65727333 
 4119 1ee7 35220000 		.long	0x2235
 4120 1eeb 0C       		.uleb128 0xc
 4121 1eec 5F313500 		.ascii "_15\0"
 4122 1ef0 25       		.byte	0x25
 4123 1ef1 E1       		.byte	0xe1
 4124 1ef2 23       		.byte	0x23
 4125 1ef3 5F5A4E53 		.ascii "_ZNSt12placeholders3_15E\0"
 4125      74313270 
 4125      6C616365 
 4125      686F6C64 
 4125      65727333 
 4126 1f0c 4C220000 		.long	0x224c
 4127 1f10 0C       		.uleb128 0xc
 4128 1f11 5F313600 		.ascii "_16\0"
 4129 1f15 25       		.byte	0x25
 4130 1f16 E2       		.byte	0xe2
 4131 1f17 23       		.byte	0x23
 4132 1f18 5F5A4E53 		.ascii "_ZNSt12placeholders3_16E\0"
 4132      74313270 
 4132      6C616365 
 4132      686F6C64 
 4132      65727333 
 4133 1f31 63220000 		.long	0x2263
 4134 1f35 0C       		.uleb128 0xc
 4135 1f36 5F313700 		.ascii "_17\0"
 4136 1f3a 25       		.byte	0x25
 4137 1f3b E3       		.byte	0xe3
 4138 1f3c 23       		.byte	0x23
 4139 1f3d 5F5A4E53 		.ascii "_ZNSt12placeholders3_17E\0"
 4139      74313270 
 4139      6C616365 
 4139      686F6C64 
 4139      65727333 
 4140 1f56 7A220000 		.long	0x227a
GAS LISTING C:\Users\gabri\AppData\Local\Temp\cc5DSkcw.s 			page 103


 4141 1f5a 0C       		.uleb128 0xc
 4142 1f5b 5F313800 		.ascii "_18\0"
 4143 1f5f 25       		.byte	0x25
 4144 1f60 E4       		.byte	0xe4
 4145 1f61 23       		.byte	0x23
 4146 1f62 5F5A4E53 		.ascii "_ZNSt12placeholders3_18E\0"
 4146      74313270 
 4146      6C616365 
 4146      686F6C64 
 4146      65727333 
 4147 1f7b 91220000 		.long	0x2291
 4148 1f7f 0C       		.uleb128 0xc
 4149 1f80 5F313900 		.ascii "_19\0"
 4150 1f84 25       		.byte	0x25
 4151 1f85 E5       		.byte	0xe5
 4152 1f86 23       		.byte	0x23
 4153 1f87 5F5A4E53 		.ascii "_ZNSt12placeholders3_19E\0"
 4153      74313270 
 4153      6C616365 
 4153      686F6C64 
 4153      65727333 
 4154 1fa0 A8220000 		.long	0x22a8
 4155 1fa4 0C       		.uleb128 0xc
 4156 1fa5 5F323000 		.ascii "_20\0"
 4157 1fa9 25       		.byte	0x25
 4158 1faa E6       		.byte	0xe6
 4159 1fab 23       		.byte	0x23
 4160 1fac 5F5A4E53 		.ascii "_ZNSt12placeholders3_20E\0"
 4160      74313270 
 4160      6C616365 
 4160      686F6C64 
 4160      65727333 
 4161 1fc5 BF220000 		.long	0x22bf
 4162 1fc9 0C       		.uleb128 0xc
 4163 1fca 5F323100 		.ascii "_21\0"
 4164 1fce 25       		.byte	0x25
 4165 1fcf E7       		.byte	0xe7
 4166 1fd0 23       		.byte	0x23
 4167 1fd1 5F5A4E53 		.ascii "_ZNSt12placeholders3_21E\0"
 4167      74313270 
 4167      6C616365 
 4167      686F6C64 
 4167      65727333 
 4168 1fea D6220000 		.long	0x22d6
 4169 1fee 0C       		.uleb128 0xc
 4170 1fef 5F323200 		.ascii "_22\0"
 4171 1ff3 25       		.byte	0x25
 4172 1ff4 E8       		.byte	0xe8
 4173 1ff5 23       		.byte	0x23
 4174 1ff6 5F5A4E53 		.ascii "_ZNSt12placeholders3_22E\0"
 4174      74313270 
 4174      6C616365 
 4174      686F6C64 
 4174      65727333 
 4175 200f ED220000 		.long	0x22ed
 4176 2013 0C       		.uleb128 0xc
 4177 2014 5F323300 		.ascii "_23\0"
GAS LISTING C:\Users\gabri\AppData\Local\Temp\cc5DSkcw.s 			page 104


 4178 2018 25       		.byte	0x25
 4179 2019 E9       		.byte	0xe9
 4180 201a 23       		.byte	0x23
 4181 201b 5F5A4E53 		.ascii "_ZNSt12placeholders3_23E\0"
 4181      74313270 
 4181      6C616365 
 4181      686F6C64 
 4181      65727333 
 4182 2034 04230000 		.long	0x2304
 4183 2038 0C       		.uleb128 0xc
 4184 2039 5F323400 		.ascii "_24\0"
 4185 203d 25       		.byte	0x25
 4186 203e EA       		.byte	0xea
 4187 203f 23       		.byte	0x23
 4188 2040 5F5A4E53 		.ascii "_ZNSt12placeholders3_24E\0"
 4188      74313270 
 4188      6C616365 
 4188      686F6C64 
 4188      65727333 
 4189 2059 1B230000 		.long	0x231b
 4190 205d 0C       		.uleb128 0xc
 4191 205e 5F323500 		.ascii "_25\0"
 4192 2062 25       		.byte	0x25
 4193 2063 EB       		.byte	0xeb
 4194 2064 23       		.byte	0x23
 4195 2065 5F5A4E53 		.ascii "_ZNSt12placeholders3_25E\0"
 4195      74313270 
 4195      6C616365 
 4195      686F6C64 
 4195      65727333 
 4196 207e 32230000 		.long	0x2332
 4197 2082 0C       		.uleb128 0xc
 4198 2083 5F323600 		.ascii "_26\0"
 4199 2087 25       		.byte	0x25
 4200 2088 EC       		.byte	0xec
 4201 2089 23       		.byte	0x23
 4202 208a 5F5A4E53 		.ascii "_ZNSt12placeholders3_26E\0"
 4202      74313270 
 4202      6C616365 
 4202      686F6C64 
 4202      65727333 
 4203 20a3 49230000 		.long	0x2349
 4204 20a7 0C       		.uleb128 0xc
 4205 20a8 5F323700 		.ascii "_27\0"
 4206 20ac 25       		.byte	0x25
 4207 20ad ED       		.byte	0xed
 4208 20ae 23       		.byte	0x23
 4209 20af 5F5A4E53 		.ascii "_ZNSt12placeholders3_27E\0"
 4209      74313270 
 4209      6C616365 
 4209      686F6C64 
 4209      65727333 
 4210 20c8 60230000 		.long	0x2360
 4211 20cc 0C       		.uleb128 0xc
 4212 20cd 5F323800 		.ascii "_28\0"
 4213 20d1 25       		.byte	0x25
 4214 20d2 EE       		.byte	0xee
GAS LISTING C:\Users\gabri\AppData\Local\Temp\cc5DSkcw.s 			page 105


 4215 20d3 23       		.byte	0x23
 4216 20d4 5F5A4E53 		.ascii "_ZNSt12placeholders3_28E\0"
 4216      74313270 
 4216      6C616365 
 4216      686F6C64 
 4216      65727333 
 4217 20ed 77230000 		.long	0x2377
 4218 20f1 0C       		.uleb128 0xc
 4219 20f2 5F323900 		.ascii "_29\0"
 4220 20f6 25       		.byte	0x25
 4221 20f7 EF       		.byte	0xef
 4222 20f8 23       		.byte	0x23
 4223 20f9 5F5A4E53 		.ascii "_ZNSt12placeholders3_29E\0"
 4223      74313270 
 4223      6C616365 
 4223      686F6C64 
 4223      65727333 
 4224 2112 8E230000 		.long	0x238e
 4225 2116 00       		.byte	0
 4226 2117 0E       		.uleb128 0xe
 4227 2118 5F506C61 		.ascii "_Placeholder<2>\0"
 4227      6365686F 
 4227      6C646572 
 4227      3C323E00 
 4228 2128 04       		.uleb128 0x4
 4229 2129 17210000 		.long	0x2117
 4230 212d 0E       		.uleb128 0xe
 4231 212e 5F506C61 		.ascii "_Placeholder<3>\0"
 4231      6365686F 
 4231      6C646572 
 4231      3C333E00 
 4232 213e 04       		.uleb128 0x4
 4233 213f 2D210000 		.long	0x212d
 4234 2143 0E       		.uleb128 0xe
 4235 2144 5F506C61 		.ascii "_Placeholder<4>\0"
 4235      6365686F 
 4235      6C646572 
 4235      3C343E00 
 4236 2154 04       		.uleb128 0x4
 4237 2155 43210000 		.long	0x2143
 4238 2159 0E       		.uleb128 0xe
 4239 215a 5F506C61 		.ascii "_Placeholder<5>\0"
 4239      6365686F 
 4239      6C646572 
 4239      3C353E00 
 4240 216a 04       		.uleb128 0x4
 4241 216b 59210000 		.long	0x2159
 4242 216f 0E       		.uleb128 0xe
 4243 2170 5F506C61 		.ascii "_Placeholder<6>\0"
 4243      6365686F 
 4243      6C646572 
 4243      3C363E00 
 4244 2180 04       		.uleb128 0x4
 4245 2181 6F210000 		.long	0x216f
 4246 2185 0E       		.uleb128 0xe
 4247 2186 5F506C61 		.ascii "_Placeholder<7>\0"
 4247      6365686F 
GAS LISTING C:\Users\gabri\AppData\Local\Temp\cc5DSkcw.s 			page 106


 4247      6C646572 
 4247      3C373E00 
 4248 2196 04       		.uleb128 0x4
 4249 2197 85210000 		.long	0x2185
 4250 219b 0E       		.uleb128 0xe
 4251 219c 5F506C61 		.ascii "_Placeholder<8>\0"
 4251      6365686F 
 4251      6C646572 
 4251      3C383E00 
 4252 21ac 04       		.uleb128 0x4
 4253 21ad 9B210000 		.long	0x219b
 4254 21b1 0E       		.uleb128 0xe
 4255 21b2 5F506C61 		.ascii "_Placeholder<9>\0"
 4255      6365686F 
 4255      6C646572 
 4255      3C393E00 
 4256 21c2 04       		.uleb128 0x4
 4257 21c3 B1210000 		.long	0x21b1
 4258 21c7 0E       		.uleb128 0xe
 4259 21c8 5F506C61 		.ascii "_Placeholder<10>\0"
 4259      6365686F 
 4259      6C646572 
 4259      3C31303E 
 4259      00
 4260 21d9 04       		.uleb128 0x4
 4261 21da C7210000 		.long	0x21c7
 4262 21de 0E       		.uleb128 0xe
 4263 21df 5F506C61 		.ascii "_Placeholder<11>\0"
 4263      6365686F 
 4263      6C646572 
 4263      3C31313E 
 4263      00
 4264 21f0 04       		.uleb128 0x4
 4265 21f1 DE210000 		.long	0x21de
 4266 21f5 0E       		.uleb128 0xe
 4267 21f6 5F506C61 		.ascii "_Placeholder<12>\0"
 4267      6365686F 
 4267      6C646572 
 4267      3C31323E 
 4267      00
 4268 2207 04       		.uleb128 0x4
 4269 2208 F5210000 		.long	0x21f5
 4270 220c 0E       		.uleb128 0xe
 4271 220d 5F506C61 		.ascii "_Placeholder<13>\0"
 4271      6365686F 
 4271      6C646572 
 4271      3C31333E 
 4271      00
 4272 221e 04       		.uleb128 0x4
 4273 221f 0C220000 		.long	0x220c
 4274 2223 0E       		.uleb128 0xe
 4275 2224 5F506C61 		.ascii "_Placeholder<14>\0"
 4275      6365686F 
 4275      6C646572 
 4275      3C31343E 
 4275      00
 4276 2235 04       		.uleb128 0x4
GAS LISTING C:\Users\gabri\AppData\Local\Temp\cc5DSkcw.s 			page 107


 4277 2236 23220000 		.long	0x2223
 4278 223a 0E       		.uleb128 0xe
 4279 223b 5F506C61 		.ascii "_Placeholder<15>\0"
 4279      6365686F 
 4279      6C646572 
 4279      3C31353E 
 4279      00
 4280 224c 04       		.uleb128 0x4
 4281 224d 3A220000 		.long	0x223a
 4282 2251 0E       		.uleb128 0xe
 4283 2252 5F506C61 		.ascii "_Placeholder<16>\0"
 4283      6365686F 
 4283      6C646572 
 4283      3C31363E 
 4283      00
 4284 2263 04       		.uleb128 0x4
 4285 2264 51220000 		.long	0x2251
 4286 2268 0E       		.uleb128 0xe
 4287 2269 5F506C61 		.ascii "_Placeholder<17>\0"
 4287      6365686F 
 4287      6C646572 
 4287      3C31373E 
 4287      00
 4288 227a 04       		.uleb128 0x4
 4289 227b 68220000 		.long	0x2268
 4290 227f 0E       		.uleb128 0xe
 4291 2280 5F506C61 		.ascii "_Placeholder<18>\0"
 4291      6365686F 
 4291      6C646572 
 4291      3C31383E 
 4291      00
 4292 2291 04       		.uleb128 0x4
 4293 2292 7F220000 		.long	0x227f
 4294 2296 0E       		.uleb128 0xe
 4295 2297 5F506C61 		.ascii "_Placeholder<19>\0"
 4295      6365686F 
 4295      6C646572 
 4295      3C31393E 
 4295      00
 4296 22a8 04       		.uleb128 0x4
 4297 22a9 96220000 		.long	0x2296
 4298 22ad 0E       		.uleb128 0xe
 4299 22ae 5F506C61 		.ascii "_Placeholder<20>\0"
 4299      6365686F 
 4299      6C646572 
 4299      3C32303E 
 4299      00
 4300 22bf 04       		.uleb128 0x4
 4301 22c0 AD220000 		.long	0x22ad
 4302 22c4 0E       		.uleb128 0xe
 4303 22c5 5F506C61 		.ascii "_Placeholder<21>\0"
 4303      6365686F 
 4303      6C646572 
 4303      3C32313E 
 4303      00
 4304 22d6 04       		.uleb128 0x4
 4305 22d7 C4220000 		.long	0x22c4
GAS LISTING C:\Users\gabri\AppData\Local\Temp\cc5DSkcw.s 			page 108


 4306 22db 0E       		.uleb128 0xe
 4307 22dc 5F506C61 		.ascii "_Placeholder<22>\0"
 4307      6365686F 
 4307      6C646572 
 4307      3C32323E 
 4307      00
 4308 22ed 04       		.uleb128 0x4
 4309 22ee DB220000 		.long	0x22db
 4310 22f2 0E       		.uleb128 0xe
 4311 22f3 5F506C61 		.ascii "_Placeholder<23>\0"
 4311      6365686F 
 4311      6C646572 
 4311      3C32333E 
 4311      00
 4312 2304 04       		.uleb128 0x4
 4313 2305 F2220000 		.long	0x22f2
 4314 2309 0E       		.uleb128 0xe
 4315 230a 5F506C61 		.ascii "_Placeholder<24>\0"
 4315      6365686F 
 4315      6C646572 
 4315      3C32343E 
 4315      00
 4316 231b 04       		.uleb128 0x4
 4317 231c 09230000 		.long	0x2309
 4318 2320 0E       		.uleb128 0xe
 4319 2321 5F506C61 		.ascii "_Placeholder<25>\0"
 4319      6365686F 
 4319      6C646572 
 4319      3C32353E 
 4319      00
 4320 2332 04       		.uleb128 0x4
 4321 2333 20230000 		.long	0x2320
 4322 2337 0E       		.uleb128 0xe
 4323 2338 5F506C61 		.ascii "_Placeholder<26>\0"
 4323      6365686F 
 4323      6C646572 
 4323      3C32363E 
 4323      00
 4324 2349 04       		.uleb128 0x4
 4325 234a 37230000 		.long	0x2337
 4326 234e 0E       		.uleb128 0xe
 4327 234f 5F506C61 		.ascii "_Placeholder<27>\0"
 4327      6365686F 
 4327      6C646572 
 4327      3C32373E 
 4327      00
 4328 2360 04       		.uleb128 0x4
 4329 2361 4E230000 		.long	0x234e
 4330 2365 0E       		.uleb128 0xe
 4331 2366 5F506C61 		.ascii "_Placeholder<28>\0"
 4331      6365686F 
 4331      6C646572 
 4331      3C32383E 
 4331      00
 4332 2377 04       		.uleb128 0x4
 4333 2378 65230000 		.long	0x2365
 4334 237c 0E       		.uleb128 0xe
GAS LISTING C:\Users\gabri\AppData\Local\Temp\cc5DSkcw.s 			page 109


 4335 237d 5F506C61 		.ascii "_Placeholder<29>\0"
 4335      6365686F 
 4335      6C646572 
 4335      3C32393E 
 4335      00
 4336 238e 04       		.uleb128 0x4
 4337 238f 7C230000 		.long	0x237c
 4338 2393 08       		.uleb128 0x8
 4339 2394 69737472 		.ascii "istream\0"
 4339      65616D00 
 4340 239c 26       		.byte	0x26
 4341 239d 8A       		.byte	0x8a
 4342 239e 21       		.byte	0x21
 4343 239f 461B0000 		.long	0x1b46
 4344 23a3 0C       		.uleb128 0xc
 4345 23a4 63696E00 		.ascii "cin\0"
 4346 23a8 04       		.byte	0x4
 4347 23a9 3C       		.byte	0x3c
 4348 23aa 12       		.byte	0x12
 4349 23ab 5F5A5374 		.ascii "_ZSt3cin\0"
 4349      3363696E 
 4349      00
 4350 23b4 93230000 		.long	0x2393
 4351 23b8 08       		.uleb128 0x8
 4352 23b9 6F737472 		.ascii "ostream\0"
 4352      65616D00 
 4353 23c1 26       		.byte	0x26
 4354 23c2 8D       		.byte	0x8d
 4355 23c3 21       		.byte	0x21
 4356 23c4 B61A0000 		.long	0x1ab6
 4357 23c8 0C       		.uleb128 0xc
 4358 23c9 636F7574 		.ascii "cout\0"
 4358      00
 4359 23ce 04       		.byte	0x4
 4360 23cf 3D       		.byte	0x3d
 4361 23d0 12       		.byte	0x12
 4362 23d1 5F5A5374 		.ascii "_ZSt4cout\0"
 4362      34636F75 
 4362      7400
 4363 23db B8230000 		.long	0x23b8
 4364 23df 0C       		.uleb128 0xc
 4365 23e0 63657272 		.ascii "cerr\0"
 4365      00
 4366 23e5 04       		.byte	0x4
 4367 23e6 3E       		.byte	0x3e
 4368 23e7 12       		.byte	0x12
 4369 23e8 5F5A5374 		.ascii "_ZSt4cerr\0"
 4369      34636572 
 4369      7200
 4370 23f2 B8230000 		.long	0x23b8
 4371 23f6 0C       		.uleb128 0xc
 4372 23f7 636C6F67 		.ascii "clog\0"
 4372      00
 4373 23fc 04       		.byte	0x4
 4374 23fd 3F       		.byte	0x3f
 4375 23fe 12       		.byte	0x12
 4376 23ff 5F5A5374 		.ascii "_ZSt4clog\0"
GAS LISTING C:\Users\gabri\AppData\Local\Temp\cc5DSkcw.s 			page 110


 4376      34636C6F 
 4376      6700
 4377 2409 B8230000 		.long	0x23b8
 4378 240d 08       		.uleb128 0x8
 4379 240e 77697374 		.ascii "wistream\0"
 4379      7265616D 
 4379      00
 4380 2417 26       		.byte	0x26
 4381 2418 B2       		.byte	0xb2
 4382 2419 23       		.byte	0x23
 4383 241a 8B1B0000 		.long	0x1b8b
 4384 241e 0C       		.uleb128 0xc
 4385 241f 7763696E 		.ascii "wcin\0"
 4385      00
 4386 2424 04       		.byte	0x4
 4387 2425 42       		.byte	0x42
 4388 2426 13       		.byte	0x13
 4389 2427 5F5A5374 		.ascii "_ZSt4wcin\0"
 4389      34776369 
 4389      6E00
 4390 2431 0D240000 		.long	0x240d
 4391 2435 08       		.uleb128 0x8
 4392 2436 776F7374 		.ascii "wostream\0"
 4392      7265616D 
 4392      00
 4393 243f 26       		.byte	0x26
 4394 2440 B5       		.byte	0xb5
 4395 2441 23       		.byte	0x23
 4396 2442 FB1A0000 		.long	0x1afb
 4397 2446 0C       		.uleb128 0xc
 4398 2447 77636F75 		.ascii "wcout\0"
 4398      7400
 4399 244d 04       		.byte	0x4
 4400 244e 43       		.byte	0x43
 4401 244f 13       		.byte	0x13
 4402 2450 5F5A5374 		.ascii "_ZSt5wcout\0"
 4402      3577636F 
 4402      757400
 4403 245b 35240000 		.long	0x2435
 4404 245f 0C       		.uleb128 0xc
 4405 2460 77636572 		.ascii "wcerr\0"
 4405      7200
 4406 2466 04       		.byte	0x4
 4407 2467 44       		.byte	0x44
 4408 2468 13       		.byte	0x13
 4409 2469 5F5A5374 		.ascii "_ZSt5wcerr\0"
 4409      35776365 
 4409      727200
 4410 2474 35240000 		.long	0x2435
 4411 2478 0C       		.uleb128 0xc
 4412 2479 77636C6F 		.ascii "wclog\0"
 4412      6700
 4413 247f 04       		.byte	0x4
 4414 2480 45       		.byte	0x45
 4415 2481 13       		.byte	0x13
 4416 2482 5F5A5374 		.ascii "_ZSt5wclog\0"
 4416      3577636C 
GAS LISTING C:\Users\gabri\AppData\Local\Temp\cc5DSkcw.s 			page 111


 4416      6F6700
 4417 248d 35240000 		.long	0x2435
 4418 2491 7A       		.uleb128 0x7a
 4419 2492 5F5F696F 		.ascii "__ioinit\0"
 4419      696E6974 
 4419      00
 4420 249b 04       		.byte	0x4
 4421 249c 4A       		.byte	0x4a
 4422 249d 19       		.byte	0x19
 4423 249e D5190000 		.long	0x19d5
 4424 24a2 37       		.uleb128 0x37
 4425 24a3 5F5F6465 		.ascii "__detail\0"
 4425      7461696C 
 4425      00
 4426 24ac 27       		.byte	0x27
 4427 24ad 29       		.byte	0x29
 4428 24ae 0D       		.byte	0xd
 4429 24af E8240000 		.long	0x24e8
 4430 24b3 08       		.uleb128 0x8
 4431 24b4 5F537461 		.ascii "_StateIdT\0"
 4431      74654964 
 4431      5400
 4432 24be 28       		.byte	0x28
 4433 24bf 30       		.byte	0x30
 4434 24c0 10       		.byte	0x10
 4435 24c1 51460000 		.long	0x4651
 4436 24c5 04       		.uleb128 0x4
 4437 24c6 B3240000 		.long	0x24b3
 4438 24ca 7B       		.uleb128 0x7b
 4439 24cb 5F535F69 		.ascii "_S_invalid_state_id\0"
 4439      6E76616C 
 4439      69645F73 
 4439      74617465 
 4439      5F696400 
 4440 24df 28       		.byte	0x28
 4441 24e0 31       		.byte	0x31
 4442 24e1 1A       		.byte	0x1a
 4443 24e2 C5240000 		.long	0x24c5
 4444 24e6 7F       		.sleb128 -1
 4445 24e7 00       		.byte	0
 4446 24e8 02       		.uleb128 0x2
 4447 24e9 29       		.byte	0x29
 4448 24ea 5C       		.byte	0x5c
 4449 24eb 14       		.byte	0x14
 4450 24ec F1440000 		.long	0x44f1
 4451 24f0 02       		.uleb128 0x2
 4452 24f1 29       		.byte	0x29
 4453 24f2 5D       		.byte	0x5d
 4454 24f3 14       		.byte	0x14
 4455 24f4 F56E0000 		.long	0x6ef5
 4456 24f8 02       		.uleb128 0x2
 4457 24f9 29       		.byte	0x29
 4458 24fa 5E       		.byte	0x5e
 4459 24fb 14       		.byte	0x14
 4460 24fc F1440000 		.long	0x44f1
 4461 2500 02       		.uleb128 0x2
 4462 2501 29       		.byte	0x29
GAS LISTING C:\Users\gabri\AppData\Local\Temp\cc5DSkcw.s 			page 112


 4463 2502 5F       		.byte	0x5f
 4464 2503 14       		.byte	0x14
 4465 2504 F1440000 		.long	0x44f1
 4466 2508 02       		.uleb128 0x2
 4467 2509 29       		.byte	0x29
 4468 250a 60       		.byte	0x60
 4469 250b 14       		.byte	0x14
 4470 250c F1440000 		.long	0x44f1
 4471 2510 3E       		.uleb128 0x3e
 4472 2511 6D656D6F 		.ascii "memory_order\0"
 4472      72795F6F 
 4472      72646572 
 4472      00
 4473 251e 07       		.byte	0x7
 4474 251f 04       		.byte	0x4
 4475 2520 AB490000 		.long	0x49ab
 4476 2524 2F       		.byte	0x2f
 4477 2525 37       		.byte	0x37
 4478 2526 10       		.byte	0x10
 4479 2527 B6250000 		.long	0x25b6
 4480 252b 09       		.uleb128 0x9
 4481 252c 6D656D6F 		.ascii "memory_order_relaxed\0"
 4481      72795F6F 
 4481      72646572 
 4481      5F72656C 
 4481      61786564 
 4482 2541 00       		.byte	0
 4483 2542 09       		.uleb128 0x9
 4484 2543 6D656D6F 		.ascii "memory_order_consume\0"
 4484      72795F6F 
 4484      72646572 
 4484      5F636F6E 
 4484      73756D65 
 4485 2558 01       		.byte	0x1
 4486 2559 09       		.uleb128 0x9
 4487 255a 6D656D6F 		.ascii "memory_order_acquire\0"
 4487      72795F6F 
 4487      72646572 
 4487      5F616371 
 4487      75697265 
 4488 256f 02       		.byte	0x2
 4489 2570 09       		.uleb128 0x9
 4490 2571 6D656D6F 		.ascii "memory_order_release\0"
 4490      72795F6F 
 4490      72646572 
 4490      5F72656C 
 4490      65617365 
 4491 2586 03       		.byte	0x3
 4492 2587 09       		.uleb128 0x9
 4493 2588 6D656D6F 		.ascii "memory_order_acq_rel\0"
 4493      72795F6F 
 4493      72646572 
 4493      5F616371 
 4493      5F72656C 
 4494 259d 04       		.byte	0x4
 4495 259e 09       		.uleb128 0x9
 4496 259f 6D656D6F 		.ascii "memory_order_seq_cst\0"
GAS LISTING C:\Users\gabri\AppData\Local\Temp\cc5DSkcw.s 			page 113


 4496      72795F6F 
 4496      72646572 
 4496      5F736571 
 4496      5F637374 
 4497 25b4 05       		.byte	0x5
 4498 25b5 00       		.byte	0
 4499 25b6 37       		.uleb128 0x37
 4500 25b7 6368726F 		.ascii "chrono\0"
 4500      6E6F00
 4501 25be 1B       		.byte	0x1b
 4502 25bf 3D       		.byte	0x3d
 4503 25c0 0D       		.byte	0xd
 4504 25c1 E1250000 		.long	0x25e1
 4505 25c5 34       		.uleb128 0x34
 4506 25c6 5F563200 		.ascii "_V2\0"
 4507 25ca 1B       		.byte	0x1b
 4508 25cb 2703     		.word	0x327
 4509 25cd 16       		.byte	0x16
 4510 25ce 2C       		.uleb128 0x2c
 4511 25cf 1B       		.byte	0x1b
 4512 25d0 2703     		.word	0x327
 4513 25d2 16       		.byte	0x16
 4514 25d3 C5250000 		.long	0x25c5
 4515 25d7 2C       		.uleb128 0x2c
 4516 25d8 1B       		.byte	0x1b
 4517 25d9 C903     		.word	0x3c9
 4518 25db 1F       		.byte	0x1f
 4519 25dc 8F190000 		.long	0x198f
 4520 25e0 00       		.byte	0
 4521 25e1 10       		.uleb128 0x10
 4522 25e2 696E7465 		.ascii "integral_constant<long long int, 1>\0"
 4522      6772616C 
 4522      5F636F6E 
 4522      7374616E 
 4522      743C6C6F 
 4523 2606 01       		.byte	0x1
 4524 2607 13       		.byte	0x13
 4525 2608 45       		.byte	0x45
 4526 2609 0C       		.byte	0xc
 4527 260a F3260000 		.long	0x26f3
 4528 260e 23       		.uleb128 0x23
 4529 260f 2C000000 		.secrel32	.LASF5
 4530 2613 13       		.byte	0x13
 4531 2614 47       		.byte	0x47
 4532 2615 2D       		.byte	0x2d
 4533 2616 E2450000 		.long	0x45e2
 4534 261a 24       		.uleb128 0x24
 4535 261b 44010000 		.secrel32	.LASF3
 4536 261f 13       		.byte	0x13
 4537 2620 48       		.byte	0x48
 4538 2621 2D       		.byte	0x2d
 4539 2622 D1450000 		.long	0x45d1
 4540 2626 21       		.uleb128 0x21
 4541 2627 6F706572 		.ascii "operator std::integral_constant<long long int, 1>::value_type\0"
 4541      61746F72 
 4541      20737464 
 4541      3A3A696E 
GAS LISTING C:\Users\gabri\AppData\Local\Temp\cc5DSkcw.s 			page 114


 4541      74656772 
 4542 2665 13       		.byte	0x13
 4543 2666 4A       		.byte	0x4a
 4544 2667 11       		.byte	0x11
 4545 2668 5F5A4E4B 		.ascii "_ZNKSt17integral_constantIxLx1EEcvxEv\0"
 4545      53743137 
 4545      696E7465 
 4545      6772616C 
 4545      5F636F6E 
 4546 268e 1A260000 		.long	0x261a
 4547 2692 9A260000 		.long	0x269a
 4548 2696 A0260000 		.long	0x26a0
 4549 269a 06       		.uleb128 0x6
 4550 269b 246F0000 		.long	0x6f24
 4551 269f 00       		.byte	0
 4552 26a0 25       		.uleb128 0x25
 4553 26a1 8D010000 		.secrel32	.LASF4
 4554 26a5 13       		.byte	0x13
 4555 26a6 4F       		.byte	0x4f
 4556 26a7 1C       		.byte	0x1c
 4557 26a8 5F5A4E4B 		.ascii "_ZNKSt17integral_constantIxLx1EEclEv\0"
 4557      53743137 
 4557      696E7465 
 4557      6772616C 
 4557      5F636F6E 
 4558 26cd 1A260000 		.long	0x261a
 4559 26d1 D9260000 		.long	0x26d9
 4560 26d5 DF260000 		.long	0x26df
 4561 26d9 06       		.uleb128 0x6
 4562 26da 246F0000 		.long	0x6f24
 4563 26de 00       		.byte	0
 4564 26df 1D       		.uleb128 0x1d
 4565 26e0 5F547000 		.ascii "_Tp\0"
 4566 26e4 D1450000 		.long	0x45d1
 4567 26e8 20       		.uleb128 0x20
 4568 26e9 5F5F7600 		.ascii "__v\0"
 4569 26ed D1450000 		.long	0x45d1
 4570 26f1 01       		.byte	0x1
 4571 26f2 00       		.byte	0
 4572 26f3 04       		.uleb128 0x4
 4573 26f4 E1250000 		.long	0x25e1
 4574 26f8 10       		.uleb128 0x10
 4575 26f9 696E7465 		.ascii "integral_constant<long long int, 1000000000>\0"
 4575      6772616C 
 4575      5F636F6E 
 4575      7374616E 
 4575      743C6C6F 
 4576 2726 01       		.byte	0x1
 4577 2727 13       		.byte	0x13
 4578 2728 45       		.byte	0x45
 4579 2729 0C       		.byte	0xc
 4580 272a 31280000 		.long	0x2831
 4581 272e 23       		.uleb128 0x23
 4582 272f 2C000000 		.secrel32	.LASF5
 4583 2733 13       		.byte	0x13
 4584 2734 47       		.byte	0x47
 4585 2735 2D       		.byte	0x2d
GAS LISTING C:\Users\gabri\AppData\Local\Temp\cc5DSkcw.s 			page 115


 4586 2736 E2450000 		.long	0x45e2
 4587 273a 24       		.uleb128 0x24
 4588 273b 44010000 		.secrel32	.LASF3
 4589 273f 13       		.byte	0x13
 4590 2740 48       		.byte	0x48
 4591 2741 2D       		.byte	0x2d
 4592 2742 D1450000 		.long	0x45d1
 4593 2746 21       		.uleb128 0x21
 4594 2747 6F706572 		.ascii "operator std::integral_constant<long long int, 1000000000>::value_type\0"
 4594      61746F72 
 4594      20737464 
 4594      3A3A696E 
 4594      74656772 
 4595 278e 13       		.byte	0x13
 4596 278f 4A       		.byte	0x4a
 4597 2790 11       		.byte	0x11
 4598 2791 5F5A4E4B 		.ascii "_ZNKSt17integral_constantIxLx1000000000EEcvxEv\0"
 4598      53743137 
 4598      696E7465 
 4598      6772616C 
 4598      5F636F6E 
 4599 27c0 3A270000 		.long	0x273a
 4600 27c4 CC270000 		.long	0x27cc
 4601 27c8 D2270000 		.long	0x27d2
 4602 27cc 06       		.uleb128 0x6
 4603 27cd 2A6F0000 		.long	0x6f2a
 4604 27d1 00       		.byte	0
 4605 27d2 25       		.uleb128 0x25
 4606 27d3 8D010000 		.secrel32	.LASF4
 4607 27d7 13       		.byte	0x13
 4608 27d8 4F       		.byte	0x4f
 4609 27d9 1C       		.byte	0x1c
 4610 27da 5F5A4E4B 		.ascii "_ZNKSt17integral_constantIxLx1000000000EEclEv\0"
 4610      53743137 
 4610      696E7465 
 4610      6772616C 
 4610      5F636F6E 
 4611 2808 3A270000 		.long	0x273a
 4612 280c 14280000 		.long	0x2814
 4613 2810 1A280000 		.long	0x281a
 4614 2814 06       		.uleb128 0x6
 4615 2815 2A6F0000 		.long	0x6f2a
 4616 2819 00       		.byte	0
 4617 281a 1D       		.uleb128 0x1d
 4618 281b 5F547000 		.ascii "_Tp\0"
 4619 281f D1450000 		.long	0x45d1
 4620 2823 32       		.uleb128 0x32
 4621 2824 5F5F7600 		.ascii "__v\0"
 4622 2828 D1450000 		.long	0x45d1
 4623 282c 00CA9A3B 		.long	0x3b9aca00
 4624 2830 00       		.byte	0
 4625 2831 04       		.uleb128 0x4
 4626 2832 F8260000 		.long	0x26f8
 4627 2836 18       		.uleb128 0x18
 4628 2837 72617469 		.ascii "ratio<1, 1000000000>\0"
 4628      6F3C312C 
 4628      20313030 
GAS LISTING C:\Users\gabri\AppData\Local\Temp\cc5DSkcw.s 			page 116


 4628      30303030 
 4628      3030303E 
 4629 284c 01       		.byte	0x1
 4630 284d 2A       		.byte	0x2a
 4631 284e 0701     		.word	0x107
 4632 2850 0C       		.byte	0xc
 4633 2851 8C280000 		.long	0x288c
 4634 2855 1B       		.uleb128 0x1b
 4635 2856 6E756D00 		.ascii "num\0"
 4636 285a 2A       		.byte	0x2a
 4637 285b 0E01     		.word	0x10e
 4638 285d 21       		.byte	0x21
 4639 285e 966A0000 		.long	0x6a96
 4640 2862 01       		.byte	0x1
 4641 2863 44       		.uleb128 0x44
 4642 2864 64656E00 		.ascii "den\0"
 4643 2868 2A       		.byte	0x2a
 4644 2869 1101     		.word	0x111
 4645 286b 21       		.byte	0x21
 4646 286c 966A0000 		.long	0x6a96
 4647 2870 00CA9A3B 		.long	0x3b9aca00
 4648 2874 22       		.uleb128 0x22
 4649 2875 99000000 		.secrel32	.LASF16
 4650 2879 D1450000 		.long	0x45d1
 4651 287d 01       		.byte	0x1
 4652 287e 45       		.uleb128 0x45
 4653 287f 88010000 		.secrel32	.LASF17
 4654 2883 D1450000 		.long	0x45d1
 4655 2887 00CA9A3B 		.long	0x3b9aca00
 4656 288b 00       		.byte	0
 4657 288c 18       		.uleb128 0x18
 4658 288d 72617469 		.ascii "ratio<1000000000, 1>\0"
 4658      6F3C3130 
 4658      30303030 
 4658      30303030 
 4658      2C20313E 
 4659 28a2 01       		.byte	0x1
 4660 28a3 2A       		.byte	0x2a
 4661 28a4 0701     		.word	0x107
 4662 28a6 0C       		.byte	0xc
 4663 28a7 E2280000 		.long	0x28e2
 4664 28ab 44       		.uleb128 0x44
 4665 28ac 6E756D00 		.ascii "num\0"
 4666 28b0 2A       		.byte	0x2a
 4667 28b1 0E01     		.word	0x10e
 4668 28b3 21       		.byte	0x21
 4669 28b4 966A0000 		.long	0x6a96
 4670 28b8 00CA9A3B 		.long	0x3b9aca00
 4671 28bc 1B       		.uleb128 0x1b
 4672 28bd 64656E00 		.ascii "den\0"
 4673 28c1 2A       		.byte	0x2a
 4674 28c2 1101     		.word	0x111
 4675 28c4 21       		.byte	0x21
 4676 28c5 966A0000 		.long	0x6a96
 4677 28c9 01       		.byte	0x1
 4678 28ca 45       		.uleb128 0x45
 4679 28cb 99000000 		.secrel32	.LASF16
GAS LISTING C:\Users\gabri\AppData\Local\Temp\cc5DSkcw.s 			page 117


 4680 28cf D1450000 		.long	0x45d1
 4681 28d3 00CA9A3B 		.long	0x3b9aca00
 4682 28d7 22       		.uleb128 0x22
 4683 28d8 88010000 		.secrel32	.LASF17
 4684 28dc D1450000 		.long	0x45d1
 4685 28e0 01       		.byte	0x1
 4686 28e1 00       		.byte	0
 4687 28e2 18       		.uleb128 0x18
 4688 28e3 72617469 		.ascii "ratio<1, 1>\0"
 4688      6F3C312C 
 4688      20313E00 
 4689 28ef 01       		.byte	0x1
 4690 28f0 2A       		.byte	0x2a
 4691 28f1 0701     		.word	0x107
 4692 28f3 0C       		.byte	0xc
 4693 28f4 29290000 		.long	0x2929
 4694 28f8 1B       		.uleb128 0x1b
 4695 28f9 6E756D00 		.ascii "num\0"
 4696 28fd 2A       		.byte	0x2a
 4697 28fe 0E01     		.word	0x10e
 4698 2900 21       		.byte	0x21
 4699 2901 966A0000 		.long	0x6a96
 4700 2905 01       		.byte	0x1
 4701 2906 1B       		.uleb128 0x1b
 4702 2907 64656E00 		.ascii "den\0"
 4703 290b 2A       		.byte	0x2a
 4704 290c 1101     		.word	0x111
 4705 290e 21       		.byte	0x21
 4706 290f 966A0000 		.long	0x6a96
 4707 2913 01       		.byte	0x1
 4708 2914 22       		.uleb128 0x22
 4709 2915 99000000 		.secrel32	.LASF16
 4710 2919 D1450000 		.long	0x45d1
 4711 291d 01       		.byte	0x1
 4712 291e 50       		.uleb128 0x50
 4713 291f 88010000 		.secrel32	.LASF17
 4714 2923 D1450000 		.long	0x45d1
 4715 2927 01       		.byte	0x1
 4716 2928 00       		.byte	0
 4717 2929 18       		.uleb128 0x18
 4718 292a 72617469 		.ascii "ratio<3600, 1>\0"
 4718      6F3C3336 
 4718      30302C20 
 4718      313E00
 4719 2939 01       		.byte	0x1
 4720 293a 2A       		.byte	0x2a
 4721 293b 0701     		.word	0x107
 4722 293d 0C       		.byte	0xc
 4723 293e 75290000 		.long	0x2975
 4724 2942 46       		.uleb128 0x46
 4725 2943 6E756D00 		.ascii "num\0"
 4726 2947 2A       		.byte	0x2a
 4727 2948 0E01     		.word	0x10e
 4728 294a 21       		.byte	0x21
 4729 294b 966A0000 		.long	0x6a96
 4730 294f 100E     		.word	0xe10
 4731 2951 1B       		.uleb128 0x1b
GAS LISTING C:\Users\gabri\AppData\Local\Temp\cc5DSkcw.s 			page 118


 4732 2952 64656E00 		.ascii "den\0"
 4733 2956 2A       		.byte	0x2a
 4734 2957 1101     		.word	0x111
 4735 2959 21       		.byte	0x21
 4736 295a 966A0000 		.long	0x6a96
 4737 295e 01       		.byte	0x1
 4738 295f 47       		.uleb128 0x47
 4739 2960 99000000 		.secrel32	.LASF16
 4740 2964 D1450000 		.long	0x45d1
 4741 2968 100E     		.word	0xe10
 4742 296a 50       		.uleb128 0x50
 4743 296b 88010000 		.secrel32	.LASF17
 4744 296f D1450000 		.long	0x45d1
 4745 2973 01       		.byte	0x1
 4746 2974 00       		.byte	0
 4747 2975 10       		.uleb128 0x10
 4748 2976 696E7465 		.ascii "integral_constant<long long int, 3600>\0"
 4748      6772616C 
 4748      5F636F6E 
 4748      7374616E 
 4748      743C6C6F 
 4749 299d 01       		.byte	0x1
 4750 299e 13       		.byte	0x13
 4751 299f 45       		.byte	0x45
 4752 29a0 0C       		.byte	0xc
 4753 29a1 942A0000 		.long	0x2a94
 4754 29a5 23       		.uleb128 0x23
 4755 29a6 2C000000 		.secrel32	.LASF5
 4756 29aa 13       		.byte	0x13
 4757 29ab 47       		.byte	0x47
 4758 29ac 2D       		.byte	0x2d
 4759 29ad E2450000 		.long	0x45e2
 4760 29b1 24       		.uleb128 0x24
 4761 29b2 44010000 		.secrel32	.LASF3
 4762 29b6 13       		.byte	0x13
 4763 29b7 48       		.byte	0x48
 4764 29b8 2D       		.byte	0x2d
 4765 29b9 D1450000 		.long	0x45d1
 4766 29bd 21       		.uleb128 0x21
 4767 29be 6F706572 		.ascii "operator std::integral_constant<long long int, 3600>::value_type\0"
 4767      61746F72 
 4767      20737464 
 4767      3A3A696E 
 4767      74656772 
 4768 29ff 13       		.byte	0x13
 4769 2a00 4A       		.byte	0x4a
 4770 2a01 11       		.byte	0x11
 4771 2a02 5F5A4E4B 		.ascii "_ZNKSt17integral_constantIxLx3600EEcvxEv\0"
 4771      53743137 
 4771      696E7465 
 4771      6772616C 
 4771      5F636F6E 
 4772 2a2b B1290000 		.long	0x29b1
 4773 2a2f 372A0000 		.long	0x2a37
 4774 2a33 3D2A0000 		.long	0x2a3d
 4775 2a37 06       		.uleb128 0x6
 4776 2a38 306F0000 		.long	0x6f30
GAS LISTING C:\Users\gabri\AppData\Local\Temp\cc5DSkcw.s 			page 119


 4777 2a3c 00       		.byte	0
 4778 2a3d 25       		.uleb128 0x25
 4779 2a3e 8D010000 		.secrel32	.LASF4
 4780 2a42 13       		.byte	0x13
 4781 2a43 4F       		.byte	0x4f
 4782 2a44 1C       		.byte	0x1c
 4783 2a45 5F5A4E4B 		.ascii "_ZNKSt17integral_constantIxLx3600EEclEv\0"
 4783      53743137 
 4783      696E7465 
 4783      6772616C 
 4783      5F636F6E 
 4784 2a6d B1290000 		.long	0x29b1
 4785 2a71 792A0000 		.long	0x2a79
 4786 2a75 7F2A0000 		.long	0x2a7f
 4787 2a79 06       		.uleb128 0x6
 4788 2a7a 306F0000 		.long	0x6f30
 4789 2a7e 00       		.byte	0
 4790 2a7f 1D       		.uleb128 0x1d
 4791 2a80 5F547000 		.ascii "_Tp\0"
 4792 2a84 D1450000 		.long	0x45d1
 4793 2a88 48       		.uleb128 0x48
 4794 2a89 5F5F7600 		.ascii "__v\0"
 4795 2a8d D1450000 		.long	0x45d1
 4796 2a91 100E     		.word	0xe10
 4797 2a93 00       		.byte	0
 4798 2a94 04       		.uleb128 0x4
 4799 2a95 75290000 		.long	0x2975
 4800 2a99 18       		.uleb128 0x18
 4801 2a9a 72617469 		.ascii "ratio<1, 3600>\0"
 4801      6F3C312C 
 4801      20333630 
 4801      303E00
 4802 2aa9 01       		.byte	0x1
 4803 2aaa 2A       		.byte	0x2a
 4804 2aab 0701     		.word	0x107
 4805 2aad 0C       		.byte	0xc
 4806 2aae E52A0000 		.long	0x2ae5
 4807 2ab2 1B       		.uleb128 0x1b
 4808 2ab3 6E756D00 		.ascii "num\0"
 4809 2ab7 2A       		.byte	0x2a
 4810 2ab8 0E01     		.word	0x10e
 4811 2aba 21       		.byte	0x21
 4812 2abb 966A0000 		.long	0x6a96
 4813 2abf 01       		.byte	0x1
 4814 2ac0 46       		.uleb128 0x46
 4815 2ac1 64656E00 		.ascii "den\0"
 4816 2ac5 2A       		.byte	0x2a
 4817 2ac6 1101     		.word	0x111
 4818 2ac8 21       		.byte	0x21
 4819 2ac9 966A0000 		.long	0x6a96
 4820 2acd 100E     		.word	0xe10
 4821 2acf 22       		.uleb128 0x22
 4822 2ad0 99000000 		.secrel32	.LASF16
 4823 2ad4 D1450000 		.long	0x45d1
 4824 2ad8 01       		.byte	0x1
 4825 2ad9 47       		.uleb128 0x47
 4826 2ada 88010000 		.secrel32	.LASF17
GAS LISTING C:\Users\gabri\AppData\Local\Temp\cc5DSkcw.s 			page 120


 4827 2ade D1450000 		.long	0x45d1
 4828 2ae2 100E     		.word	0xe10
 4829 2ae4 00       		.byte	0
 4830 2ae5 18       		.uleb128 0x18
 4831 2ae6 72617469 		.ascii "ratio<60, 1>\0"
 4831      6F3C3630 
 4831      2C20313E 
 4831      00
 4832 2af3 01       		.byte	0x1
 4833 2af4 2A       		.byte	0x2a
 4834 2af5 0701     		.word	0x107
 4835 2af7 0C       		.byte	0xc
 4836 2af8 2D2B0000 		.long	0x2b2d
 4837 2afc 1B       		.uleb128 0x1b
 4838 2afd 6E756D00 		.ascii "num\0"
 4839 2b01 2A       		.byte	0x2a
 4840 2b02 0E01     		.word	0x10e
 4841 2b04 21       		.byte	0x21
 4842 2b05 966A0000 		.long	0x6a96
 4843 2b09 3C       		.byte	0x3c
 4844 2b0a 1B       		.uleb128 0x1b
 4845 2b0b 64656E00 		.ascii "den\0"
 4846 2b0f 2A       		.byte	0x2a
 4847 2b10 1101     		.word	0x111
 4848 2b12 21       		.byte	0x21
 4849 2b13 966A0000 		.long	0x6a96
 4850 2b17 01       		.byte	0x1
 4851 2b18 22       		.uleb128 0x22
 4852 2b19 99000000 		.secrel32	.LASF16
 4853 2b1d D1450000 		.long	0x45d1
 4854 2b21 3C       		.byte	0x3c
 4855 2b22 50       		.uleb128 0x50
 4856 2b23 88010000 		.secrel32	.LASF17
 4857 2b27 D1450000 		.long	0x45d1
 4858 2b2b 01       		.byte	0x1
 4859 2b2c 00       		.byte	0
 4860 2b2d 10       		.uleb128 0x10
 4861 2b2e 696E7465 		.ascii "integral_constant<long long int, 60>\0"
 4861      6772616C 
 4861      5F636F6E 
 4861      7374616E 
 4861      743C6C6F 
 4862 2b53 01       		.byte	0x1
 4863 2b54 13       		.byte	0x13
 4864 2b55 45       		.byte	0x45
 4865 2b56 0C       		.byte	0xc
 4866 2b57 432C0000 		.long	0x2c43
 4867 2b5b 23       		.uleb128 0x23
 4868 2b5c 2C000000 		.secrel32	.LASF5
 4869 2b60 13       		.byte	0x13
 4870 2b61 47       		.byte	0x47
 4871 2b62 2D       		.byte	0x2d
 4872 2b63 E2450000 		.long	0x45e2
 4873 2b67 24       		.uleb128 0x24
 4874 2b68 44010000 		.secrel32	.LASF3
 4875 2b6c 13       		.byte	0x13
 4876 2b6d 48       		.byte	0x48
GAS LISTING C:\Users\gabri\AppData\Local\Temp\cc5DSkcw.s 			page 121


 4877 2b6e 2D       		.byte	0x2d
 4878 2b6f D1450000 		.long	0x45d1
 4879 2b73 21       		.uleb128 0x21
 4880 2b74 6F706572 		.ascii "operator std::integral_constant<long long int, 60>::value_type\0"
 4880      61746F72 
 4880      20737464 
 4880      3A3A696E 
 4880      74656772 
 4881 2bb3 13       		.byte	0x13
 4882 2bb4 4A       		.byte	0x4a
 4883 2bb5 11       		.byte	0x11
 4884 2bb6 5F5A4E4B 		.ascii "_ZNKSt17integral_constantIxLx60EEcvxEv\0"
 4884      53743137 
 4884      696E7465 
 4884      6772616C 
 4884      5F636F6E 
 4885 2bdd 672B0000 		.long	0x2b67
 4886 2be1 E92B0000 		.long	0x2be9
 4887 2be5 EF2B0000 		.long	0x2bef
 4888 2be9 06       		.uleb128 0x6
 4889 2bea 366F0000 		.long	0x6f36
 4890 2bee 00       		.byte	0
 4891 2bef 25       		.uleb128 0x25
 4892 2bf0 8D010000 		.secrel32	.LASF4
 4893 2bf4 13       		.byte	0x13
 4894 2bf5 4F       		.byte	0x4f
 4895 2bf6 1C       		.byte	0x1c
 4896 2bf7 5F5A4E4B 		.ascii "_ZNKSt17integral_constantIxLx60EEclEv\0"
 4896      53743137 
 4896      696E7465 
 4896      6772616C 
 4896      5F636F6E 
 4897 2c1d 672B0000 		.long	0x2b67
 4898 2c21 292C0000 		.long	0x2c29
 4899 2c25 2F2C0000 		.long	0x2c2f
 4900 2c29 06       		.uleb128 0x6
 4901 2c2a 366F0000 		.long	0x6f36
 4902 2c2e 00       		.byte	0
 4903 2c2f 1D       		.uleb128 0x1d
 4904 2c30 5F547000 		.ascii "_Tp\0"
 4905 2c34 D1450000 		.long	0x45d1
 4906 2c38 20       		.uleb128 0x20
 4907 2c39 5F5F7600 		.ascii "__v\0"
 4908 2c3d D1450000 		.long	0x45d1
 4909 2c41 3C       		.byte	0x3c
 4910 2c42 00       		.byte	0
 4911 2c43 04       		.uleb128 0x4
 4912 2c44 2D2B0000 		.long	0x2b2d
 4913 2c48 18       		.uleb128 0x18
 4914 2c49 72617469 		.ascii "ratio<1, 60>\0"
 4914      6F3C312C 
 4914      2036303E 
 4914      00
 4915 2c56 01       		.byte	0x1
 4916 2c57 2A       		.byte	0x2a
 4917 2c58 0701     		.word	0x107
 4918 2c5a 0C       		.byte	0xc
GAS LISTING C:\Users\gabri\AppData\Local\Temp\cc5DSkcw.s 			page 122


 4919 2c5b 902C0000 		.long	0x2c90
 4920 2c5f 1B       		.uleb128 0x1b
 4921 2c60 6E756D00 		.ascii "num\0"
 4922 2c64 2A       		.byte	0x2a
 4923 2c65 0E01     		.word	0x10e
 4924 2c67 21       		.byte	0x21
 4925 2c68 966A0000 		.long	0x6a96
 4926 2c6c 01       		.byte	0x1
 4927 2c6d 1B       		.uleb128 0x1b
 4928 2c6e 64656E00 		.ascii "den\0"
 4929 2c72 2A       		.byte	0x2a
 4930 2c73 1101     		.word	0x111
 4931 2c75 21       		.byte	0x21
 4932 2c76 966A0000 		.long	0x6a96
 4933 2c7a 3C       		.byte	0x3c
 4934 2c7b 22       		.uleb128 0x22
 4935 2c7c 99000000 		.secrel32	.LASF16
 4936 2c80 D1450000 		.long	0x45d1
 4937 2c84 01       		.byte	0x1
 4938 2c85 22       		.uleb128 0x22
 4939 2c86 88010000 		.secrel32	.LASF17
 4940 2c8a D1450000 		.long	0x45d1
 4941 2c8e 3C       		.byte	0x3c
 4942 2c8f 00       		.byte	0
 4943 2c90 10       		.uleb128 0x10
 4944 2c91 696E7465 		.ascii "integral_constant<long long int, 1000>\0"
 4944      6772616C 
 4944      5F636F6E 
 4944      7374616E 
 4944      743C6C6F 
 4945 2cb8 01       		.byte	0x1
 4946 2cb9 13       		.byte	0x13
 4947 2cba 45       		.byte	0x45
 4948 2cbb 0C       		.byte	0xc
 4949 2cbc AF2D0000 		.long	0x2daf
 4950 2cc0 23       		.uleb128 0x23
 4951 2cc1 2C000000 		.secrel32	.LASF5
 4952 2cc5 13       		.byte	0x13
 4953 2cc6 47       		.byte	0x47
 4954 2cc7 2D       		.byte	0x2d
 4955 2cc8 E2450000 		.long	0x45e2
 4956 2ccc 24       		.uleb128 0x24
 4957 2ccd 44010000 		.secrel32	.LASF3
 4958 2cd1 13       		.byte	0x13
 4959 2cd2 48       		.byte	0x48
 4960 2cd3 2D       		.byte	0x2d
 4961 2cd4 D1450000 		.long	0x45d1
 4962 2cd8 21       		.uleb128 0x21
 4963 2cd9 6F706572 		.ascii "operator std::integral_constant<long long int, 1000>::value_type\0"
 4963      61746F72 
 4963      20737464 
 4963      3A3A696E 
 4963      74656772 
 4964 2d1a 13       		.byte	0x13
 4965 2d1b 4A       		.byte	0x4a
 4966 2d1c 11       		.byte	0x11
 4967 2d1d 5F5A4E4B 		.ascii "_ZNKSt17integral_constantIxLx1000EEcvxEv\0"
GAS LISTING C:\Users\gabri\AppData\Local\Temp\cc5DSkcw.s 			page 123


 4967      53743137 
 4967      696E7465 
 4967      6772616C 
 4967      5F636F6E 
 4968 2d46 CC2C0000 		.long	0x2ccc
 4969 2d4a 522D0000 		.long	0x2d52
 4970 2d4e 582D0000 		.long	0x2d58
 4971 2d52 06       		.uleb128 0x6
 4972 2d53 3C6F0000 		.long	0x6f3c
 4973 2d57 00       		.byte	0
 4974 2d58 25       		.uleb128 0x25
 4975 2d59 8D010000 		.secrel32	.LASF4
 4976 2d5d 13       		.byte	0x13
 4977 2d5e 4F       		.byte	0x4f
 4978 2d5f 1C       		.byte	0x1c
 4979 2d60 5F5A4E4B 		.ascii "_ZNKSt17integral_constantIxLx1000EEclEv\0"
 4979      53743137 
 4979      696E7465 
 4979      6772616C 
 4979      5F636F6E 
 4980 2d88 CC2C0000 		.long	0x2ccc
 4981 2d8c 942D0000 		.long	0x2d94
 4982 2d90 9A2D0000 		.long	0x2d9a
 4983 2d94 06       		.uleb128 0x6
 4984 2d95 3C6F0000 		.long	0x6f3c
 4985 2d99 00       		.byte	0
 4986 2d9a 1D       		.uleb128 0x1d
 4987 2d9b 5F547000 		.ascii "_Tp\0"
 4988 2d9f D1450000 		.long	0x45d1
 4989 2da3 48       		.uleb128 0x48
 4990 2da4 5F5F7600 		.ascii "__v\0"
 4991 2da8 D1450000 		.long	0x45d1
 4992 2dac E803     		.word	0x3e8
 4993 2dae 00       		.byte	0
 4994 2daf 04       		.uleb128 0x4
 4995 2db0 902C0000 		.long	0x2c90
 4996 2db4 18       		.uleb128 0x18
 4997 2db5 72617469 		.ascii "ratio<1, 1000>\0"
 4997      6F3C312C 
 4997      20313030 
 4997      303E00
 4998 2dc4 01       		.byte	0x1
 4999 2dc5 2A       		.byte	0x2a
 5000 2dc6 0701     		.word	0x107
 5001 2dc8 0C       		.byte	0xc
 5002 2dc9 002E0000 		.long	0x2e00
 5003 2dcd 1B       		.uleb128 0x1b
 5004 2dce 6E756D00 		.ascii "num\0"
 5005 2dd2 2A       		.byte	0x2a
 5006 2dd3 0E01     		.word	0x10e
 5007 2dd5 21       		.byte	0x21
 5008 2dd6 966A0000 		.long	0x6a96
 5009 2dda 01       		.byte	0x1
 5010 2ddb 46       		.uleb128 0x46
 5011 2ddc 64656E00 		.ascii "den\0"
 5012 2de0 2A       		.byte	0x2a
 5013 2de1 1101     		.word	0x111
GAS LISTING C:\Users\gabri\AppData\Local\Temp\cc5DSkcw.s 			page 124


 5014 2de3 21       		.byte	0x21
 5015 2de4 966A0000 		.long	0x6a96
 5016 2de8 E803     		.word	0x3e8
 5017 2dea 22       		.uleb128 0x22
 5018 2deb 99000000 		.secrel32	.LASF16
 5019 2def D1450000 		.long	0x45d1
 5020 2df3 01       		.byte	0x1
 5021 2df4 47       		.uleb128 0x47
 5022 2df5 88010000 		.secrel32	.LASF17
 5023 2df9 D1450000 		.long	0x45d1
 5024 2dfd E803     		.word	0x3e8
 5025 2dff 00       		.byte	0
 5026 2e00 18       		.uleb128 0x18
 5027 2e01 72617469 		.ascii "ratio<1000, 1>\0"
 5027      6F3C3130 
 5027      30302C20 
 5027      313E00
 5028 2e10 01       		.byte	0x1
 5029 2e11 2A       		.byte	0x2a
 5030 2e12 0701     		.word	0x107
 5031 2e14 0C       		.byte	0xc
 5032 2e15 4C2E0000 		.long	0x2e4c
 5033 2e19 46       		.uleb128 0x46
 5034 2e1a 6E756D00 		.ascii "num\0"
 5035 2e1e 2A       		.byte	0x2a
 5036 2e1f 0E01     		.word	0x10e
 5037 2e21 21       		.byte	0x21
 5038 2e22 966A0000 		.long	0x6a96
 5039 2e26 E803     		.word	0x3e8
 5040 2e28 1B       		.uleb128 0x1b
 5041 2e29 64656E00 		.ascii "den\0"
 5042 2e2d 2A       		.byte	0x2a
 5043 2e2e 1101     		.word	0x111
 5044 2e30 21       		.byte	0x21
 5045 2e31 966A0000 		.long	0x6a96
 5046 2e35 01       		.byte	0x1
 5047 2e36 47       		.uleb128 0x47
 5048 2e37 99000000 		.secrel32	.LASF16
 5049 2e3b D1450000 		.long	0x45d1
 5050 2e3f E803     		.word	0x3e8
 5051 2e41 22       		.uleb128 0x22
 5052 2e42 88010000 		.secrel32	.LASF17
 5053 2e46 D1450000 		.long	0x45d1
 5054 2e4a 01       		.byte	0x1
 5055 2e4b 00       		.byte	0
 5056 2e4c 10       		.uleb128 0x10
 5057 2e4d 696E7465 		.ascii "integral_constant<long long int, 1000000>\0"
 5057      6772616C 
 5057      5F636F6E 
 5057      7374616E 
 5057      743C6C6F 
 5058 2e77 01       		.byte	0x1
 5059 2e78 13       		.byte	0x13
 5060 2e79 45       		.byte	0x45
 5061 2e7a 0C       		.byte	0xc
 5062 2e7b 792F0000 		.long	0x2f79
 5063 2e7f 23       		.uleb128 0x23
GAS LISTING C:\Users\gabri\AppData\Local\Temp\cc5DSkcw.s 			page 125


 5064 2e80 2C000000 		.secrel32	.LASF5
 5065 2e84 13       		.byte	0x13
 5066 2e85 47       		.byte	0x47
 5067 2e86 2D       		.byte	0x2d
 5068 2e87 E2450000 		.long	0x45e2
 5069 2e8b 24       		.uleb128 0x24
 5070 2e8c 44010000 		.secrel32	.LASF3
 5071 2e90 13       		.byte	0x13
 5072 2e91 48       		.byte	0x48
 5073 2e92 2D       		.byte	0x2d
 5074 2e93 D1450000 		.long	0x45d1
 5075 2e97 21       		.uleb128 0x21
 5076 2e98 6F706572 		.ascii "operator std::integral_constant<long long int, 1000000>::value_type\0"
 5076      61746F72 
 5076      20737464 
 5076      3A3A696E 
 5076      74656772 
 5077 2edc 13       		.byte	0x13
 5078 2edd 4A       		.byte	0x4a
 5079 2ede 11       		.byte	0x11
 5080 2edf 5F5A4E4B 		.ascii "_ZNKSt17integral_constantIxLx1000000EEcvxEv\0"
 5080      53743137 
 5080      696E7465 
 5080      6772616C 
 5080      5F636F6E 
 5081 2f0b 8B2E0000 		.long	0x2e8b
 5082 2f0f 172F0000 		.long	0x2f17
 5083 2f13 1D2F0000 		.long	0x2f1d
 5084 2f17 06       		.uleb128 0x6
 5085 2f18 426F0000 		.long	0x6f42
 5086 2f1c 00       		.byte	0
 5087 2f1d 25       		.uleb128 0x25
 5088 2f1e 8D010000 		.secrel32	.LASF4
 5089 2f22 13       		.byte	0x13
 5090 2f23 4F       		.byte	0x4f
 5091 2f24 1C       		.byte	0x1c
 5092 2f25 5F5A4E4B 		.ascii "_ZNKSt17integral_constantIxLx1000000EEclEv\0"
 5092      53743137 
 5092      696E7465 
 5092      6772616C 
 5092      5F636F6E 
 5093 2f50 8B2E0000 		.long	0x2e8b
 5094 2f54 5C2F0000 		.long	0x2f5c
 5095 2f58 622F0000 		.long	0x2f62
 5096 2f5c 06       		.uleb128 0x6
 5097 2f5d 426F0000 		.long	0x6f42
 5098 2f61 00       		.byte	0
 5099 2f62 1D       		.uleb128 0x1d
 5100 2f63 5F547000 		.ascii "_Tp\0"
 5101 2f67 D1450000 		.long	0x45d1
 5102 2f6b 32       		.uleb128 0x32
 5103 2f6c 5F5F7600 		.ascii "__v\0"
 5104 2f70 D1450000 		.long	0x45d1
 5105 2f74 40420F00 		.long	0xf4240
 5106 2f78 00       		.byte	0
 5107 2f79 04       		.uleb128 0x4
 5108 2f7a 4C2E0000 		.long	0x2e4c
GAS LISTING C:\Users\gabri\AppData\Local\Temp\cc5DSkcw.s 			page 126


 5109 2f7e 18       		.uleb128 0x18
 5110 2f7f 72617469 		.ascii "ratio<1, 1000000>\0"
 5110      6F3C312C 
 5110      20313030 
 5110      30303030 
 5110      3E00
 5111 2f91 01       		.byte	0x1
 5112 2f92 2A       		.byte	0x2a
 5113 2f93 0701     		.word	0x107
 5114 2f95 0C       		.byte	0xc
 5115 2f96 D12F0000 		.long	0x2fd1
 5116 2f9a 1B       		.uleb128 0x1b
 5117 2f9b 6E756D00 		.ascii "num\0"
 5118 2f9f 2A       		.byte	0x2a
 5119 2fa0 0E01     		.word	0x10e
 5120 2fa2 21       		.byte	0x21
 5121 2fa3 966A0000 		.long	0x6a96
 5122 2fa7 01       		.byte	0x1
 5123 2fa8 44       		.uleb128 0x44
 5124 2fa9 64656E00 		.ascii "den\0"
 5125 2fad 2A       		.byte	0x2a
 5126 2fae 1101     		.word	0x111
 5127 2fb0 21       		.byte	0x21
 5128 2fb1 966A0000 		.long	0x6a96
 5129 2fb5 40420F00 		.long	0xf4240
 5130 2fb9 22       		.uleb128 0x22
 5131 2fba 99000000 		.secrel32	.LASF16
 5132 2fbe D1450000 		.long	0x45d1
 5133 2fc2 01       		.byte	0x1
 5134 2fc3 45       		.uleb128 0x45
 5135 2fc4 88010000 		.secrel32	.LASF17
 5136 2fc8 D1450000 		.long	0x45d1
 5137 2fcc 40420F00 		.long	0xf4240
 5138 2fd0 00       		.byte	0
 5139 2fd1 18       		.uleb128 0x18
 5140 2fd2 72617469 		.ascii "ratio<1000000, 1>\0"
 5140      6F3C3130 
 5140      30303030 
 5140      302C2031 
 5140      3E00
 5141 2fe4 01       		.byte	0x1
 5142 2fe5 2A       		.byte	0x2a
 5143 2fe6 0701     		.word	0x107
 5144 2fe8 0C       		.byte	0xc
 5145 2fe9 24300000 		.long	0x3024
 5146 2fed 44       		.uleb128 0x44
 5147 2fee 6E756D00 		.ascii "num\0"
 5148 2ff2 2A       		.byte	0x2a
 5149 2ff3 0E01     		.word	0x10e
 5150 2ff5 21       		.byte	0x21
 5151 2ff6 966A0000 		.long	0x6a96
 5152 2ffa 40420F00 		.long	0xf4240
 5153 2ffe 1B       		.uleb128 0x1b
 5154 2fff 64656E00 		.ascii "den\0"
 5155 3003 2A       		.byte	0x2a
 5156 3004 1101     		.word	0x111
 5157 3006 21       		.byte	0x21
GAS LISTING C:\Users\gabri\AppData\Local\Temp\cc5DSkcw.s 			page 127


 5158 3007 966A0000 		.long	0x6a96
 5159 300b 01       		.byte	0x1
 5160 300c 45       		.uleb128 0x45
 5161 300d 99000000 		.secrel32	.LASF16
 5162 3011 D1450000 		.long	0x45d1
 5163 3015 40420F00 		.long	0xf4240
 5164 3019 22       		.uleb128 0x22
 5165 301a 88010000 		.secrel32	.LASF17
 5166 301e D1450000 		.long	0x45d1
 5167 3022 01       		.byte	0x1
 5168 3023 00       		.byte	0
 5169 3024 35       		.uleb128 0x35
 5170 3025 0A000000 		.secrel32	.LASF18
 5171 3029 01       		.byte	0x1
 5172 302a 2B       		.byte	0x2b
 5173 302b 84       		.byte	0x84
 5174 302c 0A       		.byte	0xa
 5175 302d 5D300000 		.long	0x305d
 5176 3031 36       		.uleb128 0x36
 5177 3032 0A000000 		.secrel32	.LASF18
 5178 3036 2B       		.byte	0x2b
 5179 3037 84       		.byte	0x84
 5180 3038 22       		.byte	0x22
 5181 3039 5F5A4E53 		.ascii "_ZNSt12defer_lock_tC4Ev\0"
 5181      74313264 
 5181      65666572 
 5181      5F6C6F63 
 5181      6B5F7443 
 5182 3051 01       		.byte	0x1
 5183 3052 56300000 		.long	0x3056
 5184 3056 06       		.uleb128 0x6
 5185 3057 486F0000 		.long	0x6f48
 5186 305b 00       		.byte	0
 5187 305c 00       		.byte	0
 5188 305d 04       		.uleb128 0x4
 5189 305e 24300000 		.long	0x3024
 5190 3062 35       		.uleb128 0x35
 5191 3063 17000000 		.secrel32	.LASF19
 5192 3067 01       		.byte	0x1
 5193 3068 2B       		.byte	0x2b
 5194 3069 87       		.byte	0x87
 5195 306a 0A       		.byte	0xa
 5196 306b 9C300000 		.long	0x309c
 5197 306f 36       		.uleb128 0x36
 5198 3070 17000000 		.secrel32	.LASF19
 5199 3074 2B       		.byte	0x2b
 5200 3075 87       		.byte	0x87
 5201 3076 23       		.byte	0x23
 5202 3077 5F5A4E53 		.ascii "_ZNSt13try_to_lock_tC4Ev\0"
 5202      74313374 
 5202      72795F74 
 5202      6F5F6C6F 
 5202      636B5F74 
 5203 3090 01       		.byte	0x1
 5204 3091 95300000 		.long	0x3095
 5205 3095 06       		.uleb128 0x6
 5206 3096 4E6F0000 		.long	0x6f4e
GAS LISTING C:\Users\gabri\AppData\Local\Temp\cc5DSkcw.s 			page 128


 5207 309a 00       		.byte	0
 5208 309b 00       		.byte	0
 5209 309c 04       		.uleb128 0x4
 5210 309d 62300000 		.long	0x3062
 5211 30a1 35       		.uleb128 0x35
 5212 30a2 70010000 		.secrel32	.LASF20
 5213 30a6 01       		.byte	0x1
 5214 30a7 2B       		.byte	0x2b
 5215 30a8 8B       		.byte	0x8b
 5216 30a9 0A       		.byte	0xa
 5217 30aa DA300000 		.long	0x30da
 5218 30ae 36       		.uleb128 0x36
 5219 30af 70010000 		.secrel32	.LASF20
 5220 30b3 2B       		.byte	0x2b
 5221 30b4 8B       		.byte	0x8b
 5222 30b5 22       		.byte	0x22
 5223 30b6 5F5A4E53 		.ascii "_ZNSt12adopt_lock_tC4Ev\0"
 5223      74313261 
 5223      646F7074 
 5223      5F6C6F63 
 5223      6B5F7443 
 5224 30ce 01       		.byte	0x1
 5225 30cf D3300000 		.long	0x30d3
 5226 30d3 06       		.uleb128 0x6
 5227 30d4 546F0000 		.long	0x6f54
 5228 30d8 00       		.byte	0
 5229 30d9 00       		.byte	0
 5230 30da 04       		.uleb128 0x4
 5231 30db A1300000 		.long	0x30a1
 5232 30df 3C       		.uleb128 0x3c
 5233 30e0 64656665 		.ascii "defer_lock\0"
 5233      725F6C6F 
 5233      636B00
 5234 30eb 2B       		.byte	0x2b
 5235 30ec 8E       		.byte	0x8e
 5236 30ed 2C       		.byte	0x2c
 5237 30ee 5D300000 		.long	0x305d
 5238 30f2 01       		.byte	0x1
 5239 30f3 00       		.byte	0
 5240 30f4 3C       		.uleb128 0x3c
 5241 30f5 7472795F 		.ascii "try_to_lock\0"
 5241      746F5F6C 
 5241      6F636B00 
 5242 3101 2B       		.byte	0x2b
 5243 3102 91       		.byte	0x91
 5244 3103 2D       		.byte	0x2d
 5245 3104 9C300000 		.long	0x309c
 5246 3108 01       		.byte	0x1
 5247 3109 00       		.byte	0
 5248 310a 3C       		.uleb128 0x3c
 5249 310b 61646F70 		.ascii "adopt_lock\0"
 5249      745F6C6F 
 5249      636B00
 5250 3116 2B       		.byte	0x2b
 5251 3117 94       		.byte	0x94
 5252 3118 2C       		.byte	0x2c
 5253 3119 DA300000 		.long	0x30da
GAS LISTING C:\Users\gabri\AppData\Local\Temp\cc5DSkcw.s 			page 129


 5254 311d 01       		.byte	0x1
 5255 311e 00       		.byte	0
 5256 311f 5F       		.uleb128 0x5f
 5257 3120 5F5F6F6E 		.ascii "__once_callable\0"
 5257      63655F63 
 5257      616C6C61 
 5257      626C6500 
 5258 3130 2C       		.byte	0x2c
 5259 3131 8A02     		.word	0x28a
 5260 3133 19       		.byte	0x19
 5261 3134 5F5A5374 		.ascii "_ZSt15__once_callable\0"
 5261      31355F5F 
 5261      6F6E6365 
 5261      5F63616C 
 5261      6C61626C 
 5262 314a 1A4F0000 		.long	0x4f1a
 5263 314e 5F       		.uleb128 0x5f
 5264 314f 5F5F6F6E 		.ascii "__once_call\0"
 5264      63655F63 
 5264      616C6C00 
 5265 315b 2C       		.byte	0x2c
 5266 315c 8B02     		.word	0x28b
 5267 315e 1A       		.byte	0x1a
 5268 315f 5F5A5374 		.ascii "_ZSt11__once_call\0"
 5268      31315F5F 
 5268      6F6E6365 
 5268      5F63616C 
 5268      6C00
 5269 3171 AE4C0000 		.long	0x4cae
 5270 3175 7C       		.uleb128 0x7c
 5271 3176 66757475 		.ascii "future_errc\0"
 5271      72655F65 
 5271      72726300 
 5272 3182 05       		.byte	0x5
 5273 3183 04       		.byte	0x4
 5274 3184 45460000 		.long	0x4645
 5275 3188 4D       		.byte	0x4d
 5276 3189 42       		.byte	0x42
 5277 318a 0E       		.byte	0xe
 5278 318b E3310000 		.long	0x31e3
 5279 318f 09       		.uleb128 0x9
 5280 3190 66757475 		.ascii "future_already_retrieved\0"
 5280      72655F61 
 5280      6C726561 
 5280      64795F72 
 5280      65747269 
 5281 31a9 01       		.byte	0x1
 5282 31aa 09       		.uleb128 0x9
 5283 31ab 70726F6D 		.ascii "promise_already_satisfied\0"
 5283      6973655F 
 5283      616C7265 
 5283      6164795F 
 5283      73617469 
 5284 31c5 02       		.byte	0x2
 5285 31c6 09       		.uleb128 0x9
 5286 31c7 6E6F5F73 		.ascii "no_state\0"
 5286      74617465 
GAS LISTING C:\Users\gabri\AppData\Local\Temp\cc5DSkcw.s 			page 130


 5286      00
 5287 31d0 03       		.byte	0x3
 5288 31d1 09       		.uleb128 0x9
 5289 31d2 62726F6B 		.ascii "broken_promise\0"
 5289      656E5F70 
 5289      726F6D69 
 5289      736500
 5290 31e1 04       		.byte	0x4
 5291 31e2 00       		.byte	0
 5292 31e3 7D       		.uleb128 0x7d
 5293 31e4 6D657273 		.ascii "mersenne_twister_engine<unsigned int, 32, 624, 397, 31, 2567483615, 11, 4294967295, 7, 263
 5293      656E6E65 
 5293      5F747769 
 5293      73746572 
 5293      5F656E67 
 5294 3267 C809     		.word	0x9c8
 5295 3269 2D       		.byte	0x2d
 5296 326a B501     		.word	0x1b5
 5297 326c 0B       		.byte	0xb
 5298 326d 5C390000 		.long	0x395c
 5299 3271 1E       		.uleb128 0x1e
 5300 3272 776F7264 		.ascii "word_size\0"
 5300      5F73697A 
 5300      6500
 5301 327c 2D       		.byte	0x2d
 5302 327d D701     		.word	0x1d7
 5303 327f 24       		.byte	0x24
 5304 3280 8B140000 		.long	0x148b
 5305 3284 01       		.byte	0x1
 5306 3285 7E       		.uleb128 0x7e
 5307 3286 73746174 		.ascii "state_size\0"
 5307      655F7369 
 5307      7A6500
 5308 3291 2D       		.byte	0x2d
 5309 3292 D801     		.word	0x1d8
 5310 3294 24       		.byte	0x24
 5311 3295 8B140000 		.long	0x148b
 5312 3299 01       		.byte	0x1
 5313 329a 7002     		.word	0x270
 5314 329c 1E       		.uleb128 0x1e
 5315 329d 73686966 		.ascii "shift_size\0"
 5315      745F7369 
 5315      7A6500
 5316 32a8 2D       		.byte	0x2d
 5317 32a9 D901     		.word	0x1d9
 5318 32ab 24       		.byte	0x24
 5319 32ac 8B140000 		.long	0x148b
 5320 32b0 01       		.byte	0x1
 5321 32b1 1E       		.uleb128 0x1e
 5322 32b2 6D61736B 		.ascii "mask_bits\0"
 5322      5F626974 
 5322      7300
 5323 32bc 2D       		.byte	0x2d
 5324 32bd DA01     		.word	0x1da
 5325 32bf 24       		.byte	0x24
 5326 32c0 8B140000 		.long	0x148b
 5327 32c4 01       		.byte	0x1
GAS LISTING C:\Users\gabri\AppData\Local\Temp\cc5DSkcw.s 			page 131


 5328 32c5 7F       		.uleb128 0x7f
 5329 32c6 72657375 		.ascii "result_type\0"
 5329      6C745F74 
 5329      79706500 
 5330 32d2 2D       		.byte	0x2d
 5331 32d3 D401     		.word	0x1d4
 5332 32d5 19       		.byte	0x19
 5333 32d6 AB490000 		.long	0x49ab
 5334 32da 01       		.byte	0x1
 5335 32db 04       		.uleb128 0x4
 5336 32dc C5320000 		.long	0x32c5
 5337 32e0 1E       		.uleb128 0x1e
 5338 32e1 786F725F 		.ascii "xor_mask\0"
 5338      6D61736B 
 5338      00
 5339 32ea 2D       		.byte	0x2d
 5340 32eb DB01     		.word	0x1db
 5341 32ed 24       		.byte	0x24
 5342 32ee DB320000 		.long	0x32db
 5343 32f2 01       		.byte	0x1
 5344 32f3 1E       		.uleb128 0x1e
 5345 32f4 74656D70 		.ascii "tempering_u\0"
 5345      6572696E 
 5345      675F7500 
 5346 3300 2D       		.byte	0x2d
 5347 3301 DC01     		.word	0x1dc
 5348 3303 24       		.byte	0x24
 5349 3304 8B140000 		.long	0x148b
 5350 3308 01       		.byte	0x1
 5351 3309 1E       		.uleb128 0x1e
 5352 330a 74656D70 		.ascii "tempering_d\0"
 5352      6572696E 
 5352      675F6400 
 5353 3316 2D       		.byte	0x2d
 5354 3317 DD01     		.word	0x1dd
 5355 3319 24       		.byte	0x24
 5356 331a DB320000 		.long	0x32db
 5357 331e 01       		.byte	0x1
 5358 331f 1E       		.uleb128 0x1e
 5359 3320 74656D70 		.ascii "tempering_s\0"
 5359      6572696E 
 5359      675F7300 
 5360 332c 2D       		.byte	0x2d
 5361 332d DE01     		.word	0x1de
 5362 332f 24       		.byte	0x24
 5363 3330 8B140000 		.long	0x148b
 5364 3334 01       		.byte	0x1
 5365 3335 1E       		.uleb128 0x1e
 5366 3336 74656D70 		.ascii "tempering_b\0"
 5366      6572696E 
 5366      675F6200 
 5367 3342 2D       		.byte	0x2d
 5368 3343 DF01     		.word	0x1df
 5369 3345 24       		.byte	0x24
 5370 3346 DB320000 		.long	0x32db
 5371 334a 01       		.byte	0x1
 5372 334b 1E       		.uleb128 0x1e
GAS LISTING C:\Users\gabri\AppData\Local\Temp\cc5DSkcw.s 			page 132


 5373 334c 74656D70 		.ascii "tempering_t\0"
 5373      6572696E 
 5373      675F7400 
 5374 3358 2D       		.byte	0x2d
 5375 3359 E001     		.word	0x1e0
 5376 335b 24       		.byte	0x24
 5377 335c 8B140000 		.long	0x148b
 5378 3360 01       		.byte	0x1
 5379 3361 1E       		.uleb128 0x1e
 5380 3362 74656D70 		.ascii "tempering_c\0"
 5380      6572696E 
 5380      675F6300 
 5381 336e 2D       		.byte	0x2d
 5382 336f E101     		.word	0x1e1
 5383 3371 24       		.byte	0x24
 5384 3372 DB320000 		.long	0x32db
 5385 3376 01       		.byte	0x1
 5386 3377 1E       		.uleb128 0x1e
 5387 3378 74656D70 		.ascii "tempering_l\0"
 5387      6572696E 
 5387      675F6C00 
 5388 3384 2D       		.byte	0x2d
 5389 3385 E201     		.word	0x1e2
 5390 3387 24       		.byte	0x24
 5391 3388 8B140000 		.long	0x148b
 5392 338c 01       		.byte	0x1
 5393 338d 1E       		.uleb128 0x1e
 5394 338e 696E6974 		.ascii "initialization_multiplier\0"
 5394      69616C69 
 5394      7A617469 
 5394      6F6E5F6D 
 5394      756C7469 
 5395 33a8 2D       		.byte	0x2d
 5396 33a9 E301     		.word	0x1e3
 5397 33ab 24       		.byte	0x24
 5398 33ac DB320000 		.long	0x32db
 5399 33b0 01       		.byte	0x1
 5400 33b1 1E       		.uleb128 0x1e
 5401 33b2 64656661 		.ascii "default_seed\0"
 5401      756C745F 
 5401      73656564 
 5401      00
 5402 33bf 2D       		.byte	0x2d
 5403 33c0 E401     		.word	0x1e4
 5404 33c2 24       		.byte	0x24
 5405 33c3 DB320000 		.long	0x32db
 5406 33c7 01       		.byte	0x1
 5407 33c8 8001     		.uleb128 0x80
 5408 33ca 6D657273 		.ascii "mersenne_twister_engine\0"
 5408      656E6E65 
 5408      5F747769 
 5408      73746572 
 5408      5F656E67 
 5409 33e2 2D       		.byte	0x2d
 5410 33e3 E801     		.word	0x1e8
 5411 33e5 07       		.byte	0x7
 5412 33e6 5F5A4E53 		.ascii "_ZNSt23mersenne_twister_engineIjLy32ELy624ELy397ELy31ELj2567483615ELy11ELj4294967295ELy7EL
GAS LISTING C:\Users\gabri\AppData\Local\Temp\cc5DSkcw.s 			page 133


 5412      7432336D 
 5412      65727365 
 5412      6E6E655F 
 5412      74776973 
 5413 3476 01       		.byte	0x1
 5414 3477 7F340000 		.long	0x347f
 5415 347b 8A340000 		.long	0x348a
 5416 347f 06       		.uleb128 0x6
 5417 3480 696F0000 		.long	0x6f69
 5418 3484 01       		.uleb128 0x1
 5419 3485 C5320000 		.long	0x32c5
 5420 3489 00       		.byte	0
 5421 348a 42       		.uleb128 0x42
 5422 348b 73656564 		.ascii "seed\0"
 5422      00
 5423 3490 2D       		.byte	0x2d
 5424 3491 F901     		.word	0x1f9
 5425 3493 07       		.byte	0x7
 5426 3494 5F5A4E53 		.ascii "_ZNSt23mersenne_twister_engineIjLy32ELy624ELy397ELy31ELj2567483615ELy11ELj4294967295ELy7EL
 5426      7432336D 
 5426      65727365 
 5426      6E6E655F 
 5426      74776973 
 5427 3527 01       		.byte	0x1
 5428 3528 30350000 		.long	0x3530
 5429 352c 3B350000 		.long	0x353b
 5430 3530 06       		.uleb128 0x6
 5431 3531 696F0000 		.long	0x6f69
 5432 3535 01       		.uleb128 0x1
 5433 3536 C5320000 		.long	0x32c5
 5434 353a 00       		.byte	0
 5435 353b 60       		.uleb128 0x60
 5436 353c 6D696E00 		.ascii "min\0"
 5437 3540 2D       		.byte	0x2d
 5438 3541 0302     		.word	0x203
 5439 3543 07       		.byte	0x7
 5440 3544 5F5A4E53 		.ascii "_ZNSt23mersenne_twister_engineIjLy32ELy624ELy397ELy31ELj2567483615ELy11ELj4294967295ELy7EL
 5440      7432336D 
 5440      65727365 
 5440      6E6E655F 
 5440      74776973 
 5441 35d6 C5320000 		.long	0x32c5
 5442 35da 01       		.byte	0x1
 5443 35db 60       		.uleb128 0x60
 5444 35dc 6D617800 		.ascii "max\0"
 5445 35e0 2D       		.byte	0x2d
 5446 35e1 0A02     		.word	0x20a
 5447 35e3 07       		.byte	0x7
 5448 35e4 5F5A4E53 		.ascii "_ZNSt23mersenne_twister_engineIjLy32ELy624ELy397ELy31ELj2567483615ELy11ELj4294967295ELy7EL
 5448      7432336D 
 5448      65727365 
 5448      6E6E655F 
 5448      74776973 
 5449 3676 C5320000 		.long	0x32c5
 5450 367a 01       		.byte	0x1
 5451 367b 42       		.uleb128 0x42
 5452 367c 64697363 		.ascii "discard\0"
GAS LISTING C:\Users\gabri\AppData\Local\Temp\cc5DSkcw.s 			page 134


 5452      61726400 
 5453 3684 2D       		.byte	0x2d
 5454 3685 1102     		.word	0x211
 5455 3687 07       		.byte	0x7
 5456 3688 5F5A4E53 		.ascii "_ZNSt23mersenne_twister_engineIjLy32ELy624ELy397ELy31ELj2567483615ELy11ELj4294967295ELy7EL
 5456      7432336D 
 5456      65727365 
 5456      6E6E655F 
 5456      74776973 
 5457 371e 01       		.byte	0x1
 5458 371f 27370000 		.long	0x3727
 5459 3723 32370000 		.long	0x3732
 5460 3727 06       		.uleb128 0x6
 5461 3728 696F0000 		.long	0x6f69
 5462 372c 01       		.uleb128 0x1
 5463 372d B2450000 		.long	0x45b2
 5464 3731 00       		.byte	0
 5465 3732 8101     		.uleb128 0x81
 5466 3734 8D010000 		.secrel32	.LASF4
 5467 3738 2D       		.byte	0x2d
 5468 3739 1402     		.word	0x214
 5469 373b 07       		.byte	0x7
 5470 373c 5F5A4E53 		.ascii "_ZNSt23mersenne_twister_engineIjLy32ELy624ELy397ELy31ELj2567483615ELy11ELj4294967295ELy7EL
 5470      7432336D 
 5470      65727365 
 5470      6E6E655F 
 5470      74776973 
 5471 37cc C5320000 		.long	0x32c5
 5472 37d0 01       		.byte	0x1
 5473 37d1 D9370000 		.long	0x37d9
 5474 37d5 DF370000 		.long	0x37df
 5475 37d9 06       		.uleb128 0x6
 5476 37da 696F0000 		.long	0x6f69
 5477 37de 00       		.byte	0
 5478 37df 8201     		.uleb128 0x82
 5479 37e1 5F4D5F67 		.ascii "_M_gen_rand\0"
 5479      656E5F72 
 5479      616E6400 
 5480 37ed 2D       		.byte	0x2d
 5481 37ee 5D02     		.word	0x25d
 5482 37f0 0C       		.byte	0xc
 5483 37f1 5F5A4E53 		.ascii "_ZNSt23mersenne_twister_engineIjLy32ELy624ELy397ELy31ELj2567483615ELy11ELj4294967295ELy7EL
 5483      7432336D 
 5483      65727365 
 5483      6E6E655F 
 5483      74776973 
 5484 388c 94380000 		.long	0x3894
 5485 3890 9A380000 		.long	0x389a
 5486 3894 06       		.uleb128 0x6
 5487 3895 696F0000 		.long	0x6f69
 5488 3899 00       		.byte	0
 5489 389a 16       		.uleb128 0x16
 5490 389b 5F4D5F78 		.ascii "_M_x\0"
 5490      00
 5491 38a0 2D       		.byte	0x2d
 5492 38a1 5F02     		.word	0x25f
 5493 38a3 20       		.byte	0x20
GAS LISTING C:\Users\gabri\AppData\Local\Temp\cc5DSkcw.s 			page 135


 5494 38a4 6F6F0000 		.long	0x6f6f
 5495 38a8 00       		.byte	0
 5496 38a9 1F       		.uleb128 0x1f
 5497 38aa 5F4D5F70 		.ascii "_M_p\0"
 5497      00
 5498 38af 2D       		.byte	0x2d
 5499 38b0 6002     		.word	0x260
 5500 38b2 11       		.byte	0x11
 5501 38b3 7C140000 		.long	0x147c
 5502 38b7 C009     		.word	0x9c0
 5503 38b9 1D       		.uleb128 0x1d
 5504 38ba 5F55496E 		.ascii "_UIntType\0"
 5504      74547970 
 5504      6500
 5505 38c4 AB490000 		.long	0x49ab
 5506 38c8 20       		.uleb128 0x20
 5507 38c9 5F5F7700 		.ascii "__w\0"
 5508 38cd B2450000 		.long	0x45b2
 5509 38d1 20       		.byte	0x20
 5510 38d2 48       		.uleb128 0x48
 5511 38d3 5F5F6E00 		.ascii "__n\0"
 5512 38d7 B2450000 		.long	0x45b2
 5513 38db 7002     		.word	0x270
 5514 38dd 48       		.uleb128 0x48
 5515 38de 5F5F6D00 		.ascii "__m\0"
 5516 38e2 B2450000 		.long	0x45b2
 5517 38e6 8D01     		.word	0x18d
 5518 38e8 20       		.uleb128 0x20
 5519 38e9 5F5F7200 		.ascii "__r\0"
 5520 38ed B2450000 		.long	0x45b2
 5521 38f1 1F       		.byte	0x1f
 5522 38f2 32       		.uleb128 0x32
 5523 38f3 5F5F6100 		.ascii "__a\0"
 5524 38f7 AB490000 		.long	0x49ab
 5525 38fb DFB00899 		.long	0x9908b0df
 5526 38ff 20       		.uleb128 0x20
 5527 3900 5F5F7500 		.ascii "__u\0"
 5528 3904 B2450000 		.long	0x45b2
 5529 3908 0B       		.byte	0xb
 5530 3909 32       		.uleb128 0x32
 5531 390a 5F5F6400 		.ascii "__d\0"
 5532 390e AB490000 		.long	0x49ab
 5533 3912 FFFFFFFF 		.long	0xffffffff
 5534 3916 20       		.uleb128 0x20
 5535 3917 5F5F7300 		.ascii "__s\0"
 5536 391b B2450000 		.long	0x45b2
 5537 391f 07       		.byte	0x7
 5538 3920 32       		.uleb128 0x32
 5539 3921 5F5F6200 		.ascii "__b\0"
 5540 3925 AB490000 		.long	0x49ab
 5541 3929 80562C9D 		.long	0x9d2c5680
 5542 392d 20       		.uleb128 0x20
 5543 392e 5F5F7400 		.ascii "__t\0"
 5544 3932 B2450000 		.long	0x45b2
 5545 3936 0F       		.byte	0xf
 5546 3937 32       		.uleb128 0x32
 5547 3938 5F5F6300 		.ascii "__c\0"
GAS LISTING C:\Users\gabri\AppData\Local\Temp\cc5DSkcw.s 			page 136


 5548 393c AB490000 		.long	0x49ab
 5549 3940 0000C6EF 		.long	0xefc60000
 5550 3944 20       		.uleb128 0x20
 5551 3945 5F5F6C00 		.ascii "__l\0"
 5552 3949 B2450000 		.long	0x45b2
 5553 394d 12       		.byte	0x12
 5554 394e 32       		.uleb128 0x32
 5555 394f 5F5F6600 		.ascii "__f\0"
 5556 3953 AB490000 		.long	0x49ab
 5557 3957 6589076C 		.long	0x6c078965
 5558 395b 00       		.byte	0
 5559 395c 37       		.uleb128 0x37
 5560 395d 72656765 		.ascii "regex_constants\0"
 5560      785F636F 
 5560      6E737461 
 5560      6E747300 
 5561 396d 2E       		.byte	0x2e
 5562 396e 30       		.byte	0x30
 5563 396f 0B       		.byte	0xb
 5564 3970 5B3F0000 		.long	0x3f5b
 5565 3974 3E       		.uleb128 0x3e
 5566 3975 5F5F7379 		.ascii "__syntax_option\0"
 5566      6E746178 
 5566      5F6F7074 
 5566      696F6E00 
 5567 3985 07       		.byte	0x7
 5568 3986 04       		.byte	0x4
 5569 3987 AB490000 		.long	0x49ab
 5570 398b 2E       		.byte	0x2e
 5571 398c 36       		.byte	0x36
 5572 398d 08       		.byte	0x8
 5573 398e 2D3A0000 		.long	0x3a2d
 5574 3992 09       		.uleb128 0x9
 5575 3993 5F535F69 		.ascii "_S_icase\0"
 5575      63617365 
 5575      00
 5576 399c 00       		.byte	0
 5577 399d 09       		.uleb128 0x9
 5578 399e 5F535F6E 		.ascii "_S_nosubs\0"
 5578      6F737562 
 5578      7300
 5579 39a8 01       		.byte	0x1
 5580 39a9 09       		.uleb128 0x9
 5581 39aa 5F535F6F 		.ascii "_S_optimize\0"
 5581      7074696D 
 5581      697A6500 
 5582 39b6 02       		.byte	0x2
 5583 39b7 09       		.uleb128 0x9
 5584 39b8 5F535F63 		.ascii "_S_collate\0"
 5584      6F6C6C61 
 5584      746500
 5585 39c3 03       		.byte	0x3
 5586 39c4 09       		.uleb128 0x9
 5587 39c5 5F535F45 		.ascii "_S_ECMAScript\0"
 5587      434D4153 
 5587      63726970 
 5587      7400
GAS LISTING C:\Users\gabri\AppData\Local\Temp\cc5DSkcw.s 			page 137


 5588 39d3 04       		.byte	0x4
 5589 39d4 09       		.uleb128 0x9
 5590 39d5 5F535F62 		.ascii "_S_basic\0"
 5590      61736963 
 5590      00
 5591 39de 05       		.byte	0x5
 5592 39df 09       		.uleb128 0x9
 5593 39e0 5F535F65 		.ascii "_S_extended\0"
 5593      7874656E 
 5593      64656400 
 5594 39ec 06       		.byte	0x6
 5595 39ed 09       		.uleb128 0x9
 5596 39ee 5F535F61 		.ascii "_S_awk\0"
 5596      776B00
 5597 39f5 07       		.byte	0x7
 5598 39f6 09       		.uleb128 0x9
 5599 39f7 5F535F67 		.ascii "_S_grep\0"
 5599      72657000 
 5600 39ff 08       		.byte	0x8
 5601 3a00 09       		.uleb128 0x9
 5602 3a01 5F535F65 		.ascii "_S_egrep\0"
 5602      67726570 
 5602      00
 5603 3a0a 09       		.byte	0x9
 5604 3a0b 09       		.uleb128 0x9
 5605 3a0c 5F535F70 		.ascii "_S_polynomial\0"
 5605      6F6C796E 
 5605      6F6D6961 
 5605      6C00
 5606 3a1a 0A       		.byte	0xa
 5607 3a1b 09       		.uleb128 0x9
 5608 3a1c 5F535F73 		.ascii "_S_syntax_last\0"
 5608      796E7461 
 5608      785F6C61 
 5608      737400
 5609 3a2b 0B       		.byte	0xb
 5610 3a2c 00       		.byte	0
 5611 3a2d 61       		.uleb128 0x61
 5612 3a2e 73796E74 		.ascii "syntax_option_type\0"
 5612      61785F6F 
 5612      7074696F 
 5612      6E5F7479 
 5612      706500
 5613 3a41 07       		.byte	0x7
 5614 3a42 04       		.byte	0x4
 5615 3a43 AB490000 		.long	0x49ab
 5616 3a47 2E       		.byte	0x2e
 5617 3a48 51       		.byte	0x51
 5618 3a49 08       		.byte	0x8
 5619 3a4a 04       		.uleb128 0x4
 5620 3a4b 2D3A0000 		.long	0x3a2d
 5621 3a4f 13       		.uleb128 0x13
 5622 3a50 69636173 		.ascii "icase\0"
 5622      6500
 5623 3a56 2E       		.byte	0x2e
 5624 3a57 57       		.byte	0x57
 5625 3a58 32       		.byte	0x32
GAS LISTING C:\Users\gabri\AppData\Local\Temp\cc5DSkcw.s 			page 138


 5626 3a59 4A3A0000 		.long	0x3a4a
 5627 3a5d 01       		.byte	0x1
 5628 3a5e 13       		.uleb128 0x13
 5629 3a5f 6E6F7375 		.ascii "nosubs\0"
 5629      627300
 5630 3a66 2E       		.byte	0x2e
 5631 3a67 5F       		.byte	0x5f
 5632 3a68 32       		.byte	0x32
 5633 3a69 4A3A0000 		.long	0x3a4a
 5634 3a6d 02       		.byte	0x2
 5635 3a6e 13       		.uleb128 0x13
 5636 3a6f 6F707469 		.ascii "optimize\0"
 5636      6D697A65 
 5636      00
 5637 3a78 2E       		.byte	0x2e
 5638 3a79 68       		.byte	0x68
 5639 3a7a 32       		.byte	0x32
 5640 3a7b 4A3A0000 		.long	0x3a4a
 5641 3a7f 04       		.byte	0x4
 5642 3a80 13       		.uleb128 0x13
 5643 3a81 636F6C6C 		.ascii "collate\0"
 5643      61746500 
 5644 3a89 2E       		.byte	0x2e
 5645 3a8a 6F       		.byte	0x6f
 5646 3a8b 32       		.byte	0x32
 5647 3a8c 4A3A0000 		.long	0x3a4a
 5648 3a90 08       		.byte	0x8
 5649 3a91 13       		.uleb128 0x13
 5650 3a92 45434D41 		.ascii "ECMAScript\0"
 5650      53637269 
 5650      707400
 5651 3a9d 2E       		.byte	0x2e
 5652 3a9e 7A       		.byte	0x7a
 5653 3a9f 32       		.byte	0x32
 5654 3aa0 4A3A0000 		.long	0x3a4a
 5655 3aa4 10       		.byte	0x10
 5656 3aa5 13       		.uleb128 0x13
 5657 3aa6 62617369 		.ascii "basic\0"
 5657      6300
 5658 3aac 2E       		.byte	0x2e
 5659 3aad 84       		.byte	0x84
 5660 3aae 32       		.byte	0x32
 5661 3aaf 4A3A0000 		.long	0x3a4a
 5662 3ab3 20       		.byte	0x20
 5663 3ab4 13       		.uleb128 0x13
 5664 3ab5 65787465 		.ascii "extended\0"
 5664      6E646564 
 5664      00
 5665 3abe 2E       		.byte	0x2e
 5666 3abf 8D       		.byte	0x8d
 5667 3ac0 32       		.byte	0x32
 5668 3ac1 4A3A0000 		.long	0x3a4a
 5669 3ac5 40       		.byte	0x40
 5670 3ac6 13       		.uleb128 0x13
 5671 3ac7 61776B00 		.ascii "awk\0"
 5672 3acb 2E       		.byte	0x2e
 5673 3acc 98       		.byte	0x98
GAS LISTING C:\Users\gabri\AppData\Local\Temp\cc5DSkcw.s 			page 139


 5674 3acd 32       		.byte	0x32
 5675 3ace 4A3A0000 		.long	0x3a4a
 5676 3ad2 80       		.byte	0x80
 5677 3ad3 51       		.uleb128 0x51
 5678 3ad4 67726570 		.ascii "grep\0"
 5678      00
 5679 3ad9 2E       		.byte	0x2e
 5680 3ada A1       		.byte	0xa1
 5681 3adb 32       		.byte	0x32
 5682 3adc 4A3A0000 		.long	0x3a4a
 5683 3ae0 0001     		.word	0x100
 5684 3ae2 51       		.uleb128 0x51
 5685 3ae3 65677265 		.ascii "egrep\0"
 5685      7000
 5686 3ae9 2E       		.byte	0x2e
 5687 3aea AA       		.byte	0xaa
 5688 3aeb 32       		.byte	0x32
 5689 3aec 4A3A0000 		.long	0x3a4a
 5690 3af0 0002     		.word	0x200
 5691 3af2 51       		.uleb128 0x51
 5692 3af3 5F5F706F 		.ascii "__polynomial\0"
 5692      6C796E6F 
 5692      6D69616C 
 5692      00
 5693 3b00 2E       		.byte	0x2e
 5694 3b01 B3       		.byte	0xb3
 5695 3b02 32       		.byte	0x32
 5696 3b03 4A3A0000 		.long	0x3a4a
 5697 3b07 0004     		.word	0x400
 5698 3b09 3E       		.uleb128 0x3e
 5699 3b0a 5F5F6D61 		.ascii "__match_flag\0"
 5699      7463685F 
 5699      666C6167 
 5699      00
 5700 3b17 07       		.byte	0x7
 5701 3b18 04       		.byte	0x4
 5702 3b19 AB490000 		.long	0x49ab
 5703 3b1d 2E       		.byte	0x2e
 5704 3b1e E8       		.byte	0xe8
 5705 3b1f 08       		.byte	0x8
 5706 3b20 CB3B0000 		.long	0x3bcb
 5707 3b24 09       		.uleb128 0x9
 5708 3b25 5F535F6E 		.ascii "_S_not_bol\0"
 5708      6F745F62 
 5708      6F6C00
 5709 3b30 00       		.byte	0
 5710 3b31 09       		.uleb128 0x9
 5711 3b32 5F535F6E 		.ascii "_S_not_eol\0"
 5711      6F745F65 
 5711      6F6C00
 5712 3b3d 01       		.byte	0x1
 5713 3b3e 09       		.uleb128 0x9
 5714 3b3f 5F535F6E 		.ascii "_S_not_bow\0"
 5714      6F745F62 
 5714      6F7700
 5715 3b4a 02       		.byte	0x2
 5716 3b4b 09       		.uleb128 0x9
GAS LISTING C:\Users\gabri\AppData\Local\Temp\cc5DSkcw.s 			page 140


 5717 3b4c 5F535F6E 		.ascii "_S_not_eow\0"
 5717      6F745F65 
 5717      6F7700
 5718 3b57 03       		.byte	0x3
 5719 3b58 09       		.uleb128 0x9
 5720 3b59 5F535F61 		.ascii "_S_any\0"
 5720      6E7900
 5721 3b60 04       		.byte	0x4
 5722 3b61 09       		.uleb128 0x9
 5723 3b62 5F535F6E 		.ascii "_S_not_null\0"
 5723      6F745F6E 
 5723      756C6C00 
 5724 3b6e 05       		.byte	0x5
 5725 3b6f 09       		.uleb128 0x9
 5726 3b70 5F535F63 		.ascii "_S_continuous\0"
 5726      6F6E7469 
 5726      6E756F75 
 5726      7300
 5727 3b7e 06       		.byte	0x6
 5728 3b7f 09       		.uleb128 0x9
 5729 3b80 5F535F70 		.ascii "_S_prev_avail\0"
 5729      7265765F 
 5729      61766169 
 5729      6C00
 5730 3b8e 07       		.byte	0x7
 5731 3b8f 09       		.uleb128 0x9
 5732 3b90 5F535F73 		.ascii "_S_sed\0"
 5732      656400
 5733 3b97 08       		.byte	0x8
 5734 3b98 09       		.uleb128 0x9
 5735 3b99 5F535F6E 		.ascii "_S_no_copy\0"
 5735      6F5F636F 
 5735      707900
 5736 3ba4 09       		.byte	0x9
 5737 3ba5 09       		.uleb128 0x9
 5738 3ba6 5F535F66 		.ascii "_S_first_only\0"
 5738      69727374 
 5738      5F6F6E6C 
 5738      7900
 5739 3bb4 0A       		.byte	0xa
 5740 3bb5 09       		.uleb128 0x9
 5741 3bb6 5F535F6D 		.ascii "_S_match_flag_last\0"
 5741      61746368 
 5741      5F666C61 
 5741      675F6C61 
 5741      737400
 5742 3bc9 0B       		.byte	0xb
 5743 3bca 00       		.byte	0
 5744 3bcb 61       		.uleb128 0x61
 5745 3bcc 6D617463 		.ascii "match_flag_type\0"
 5745      685F666C 
 5745      61675F74 
 5745      79706500 
 5746 3bdc 07       		.byte	0x7
 5747 3bdd 04       		.byte	0x4
 5748 3bde AB490000 		.long	0x49ab
 5749 3be2 2E       		.byte	0x2e
GAS LISTING C:\Users\gabri\AppData\Local\Temp\cc5DSkcw.s 			page 141


 5750 3be3 FF       		.byte	0xff
 5751 3be4 08       		.byte	0x8
 5752 3be5 04       		.uleb128 0x4
 5753 3be6 CB3B0000 		.long	0x3bcb
 5754 3bea 26       		.uleb128 0x26
 5755 3beb 6D617463 		.ascii "match_default\0"
 5755      685F6465 
 5755      6661756C 
 5755      7400
 5756 3bf9 2E       		.byte	0x2e
 5757 3bfa 0401     		.word	0x104
 5758 3bfc 2F       		.byte	0x2f
 5759 3bfd E53B0000 		.long	0x3be5
 5760 3c01 00       		.byte	0
 5761 3c02 26       		.uleb128 0x26
 5762 3c03 6D617463 		.ascii "match_not_bol\0"
 5762      685F6E6F 
 5762      745F626F 
 5762      6C00
 5763 3c11 2E       		.byte	0x2e
 5764 3c12 0C01     		.word	0x10c
 5765 3c14 2F       		.byte	0x2f
 5766 3c15 E53B0000 		.long	0x3be5
 5767 3c19 01       		.byte	0x1
 5768 3c1a 26       		.uleb128 0x26
 5769 3c1b 6D617463 		.ascii "match_not_eol\0"
 5769      685F6E6F 
 5769      745F656F 
 5769      6C00
 5770 3c29 2E       		.byte	0x2e
 5771 3c2a 1401     		.word	0x114
 5772 3c2c 2F       		.byte	0x2f
 5773 3c2d E53B0000 		.long	0x3be5
 5774 3c31 02       		.byte	0x2
 5775 3c32 26       		.uleb128 0x26
 5776 3c33 6D617463 		.ascii "match_not_bow\0"
 5776      685F6E6F 
 5776      745F626F 
 5776      7700
 5777 3c41 2E       		.byte	0x2e
 5778 3c42 1B01     		.word	0x11b
 5779 3c44 2F       		.byte	0x2f
 5780 3c45 E53B0000 		.long	0x3be5
 5781 3c49 04       		.byte	0x4
 5782 3c4a 26       		.uleb128 0x26
 5783 3c4b 6D617463 		.ascii "match_not_eow\0"
 5783      685F6E6F 
 5783      745F656F 
 5783      7700
 5784 3c59 2E       		.byte	0x2e
 5785 3c5a 2201     		.word	0x122
 5786 3c5c 2F       		.byte	0x2f
 5787 3c5d E53B0000 		.long	0x3be5
 5788 3c61 08       		.byte	0x8
 5789 3c62 26       		.uleb128 0x26
 5790 3c63 6D617463 		.ascii "match_any\0"
 5790      685F616E 
GAS LISTING C:\Users\gabri\AppData\Local\Temp\cc5DSkcw.s 			page 142


 5790      7900
 5791 3c6d 2E       		.byte	0x2e
 5792 3c6e 2901     		.word	0x129
 5793 3c70 2F       		.byte	0x2f
 5794 3c71 E53B0000 		.long	0x3be5
 5795 3c75 10       		.byte	0x10
 5796 3c76 26       		.uleb128 0x26
 5797 3c77 6D617463 		.ascii "match_not_null\0"
 5797      685F6E6F 
 5797      745F6E75 
 5797      6C6C00
 5798 3c86 2E       		.byte	0x2e
 5799 3c87 2F01     		.word	0x12f
 5800 3c89 2F       		.byte	0x2f
 5801 3c8a E53B0000 		.long	0x3be5
 5802 3c8e 20       		.byte	0x20
 5803 3c8f 26       		.uleb128 0x26
 5804 3c90 6D617463 		.ascii "match_continuous\0"
 5804      685F636F 
 5804      6E74696E 
 5804      756F7573 
 5804      00
 5805 3ca1 2E       		.byte	0x2e
 5806 3ca2 3501     		.word	0x135
 5807 3ca4 2F       		.byte	0x2f
 5808 3ca5 E53B0000 		.long	0x3be5
 5809 3ca9 40       		.byte	0x40
 5810 3caa 26       		.uleb128 0x26
 5811 3cab 6D617463 		.ascii "match_prev_avail\0"
 5811      685F7072 
 5811      65765F61 
 5811      7661696C 
 5811      00
 5812 3cbc 2E       		.byte	0x2e
 5813 3cbd 3D01     		.word	0x13d
 5814 3cbf 2F       		.byte	0x2f
 5815 3cc0 E53B0000 		.long	0x3be5
 5816 3cc4 80       		.byte	0x80
 5817 3cc5 26       		.uleb128 0x26
 5818 3cc6 666F726D 		.ascii "format_default\0"
 5818      61745F64 
 5818      65666175 
 5818      6C7400
 5819 3cd5 2E       		.byte	0x2e
 5820 3cd6 5A01     		.word	0x15a
 5821 3cd8 2F       		.byte	0x2f
 5822 3cd9 E53B0000 		.long	0x3be5
 5823 3cdd 00       		.byte	0
 5824 3cde 52       		.uleb128 0x52
 5825 3cdf 666F726D 		.ascii "format_sed\0"
 5825      61745F73 
 5825      656400
 5826 3cea 2E       		.byte	0x2e
 5827 3ceb 6301     		.word	0x163
 5828 3ced 2F       		.byte	0x2f
 5829 3cee E53B0000 		.long	0x3be5
 5830 3cf2 0001     		.word	0x100
GAS LISTING C:\Users\gabri\AppData\Local\Temp\cc5DSkcw.s 			page 143


 5831 3cf4 52       		.uleb128 0x52
 5832 3cf5 666F726D 		.ascii "format_no_copy\0"
 5832      61745F6E 
 5832      6F5F636F 
 5832      707900
 5833 3d04 2E       		.byte	0x2e
 5834 3d05 6B01     		.word	0x16b
 5835 3d07 2F       		.byte	0x2f
 5836 3d08 E53B0000 		.long	0x3be5
 5837 3d0c 0002     		.word	0x200
 5838 3d0e 52       		.uleb128 0x52
 5839 3d0f 666F726D 		.ascii "format_first_only\0"
 5839      61745F66 
 5839      69727374 
 5839      5F6F6E6C 
 5839      7900
 5840 3d21 2E       		.byte	0x2e
 5841 3d22 7201     		.word	0x172
 5842 3d24 2F       		.byte	0x2f
 5843 3d25 E53B0000 		.long	0x3be5
 5844 3d29 0004     		.word	0x400
 5845 3d2b 3E       		.uleb128 0x3e
 5846 3d2c 6572726F 		.ascii "error_type\0"
 5846      725F7479 
 5846      706500
 5847 3d37 07       		.byte	0x7
 5848 3d38 04       		.byte	0x4
 5849 3d39 AB490000 		.long	0x49ab
 5850 3d3d 30       		.byte	0x30
 5851 3d3e 31       		.byte	0x31
 5852 3d3f 08       		.byte	0x8
 5853 3d40 333E0000 		.long	0x3e33
 5854 3d44 09       		.uleb128 0x9
 5855 3d45 5F535F65 		.ascii "_S_error_collate\0"
 5855      72726F72 
 5855      5F636F6C 
 5855      6C617465 
 5855      00
 5856 3d56 00       		.byte	0
 5857 3d57 09       		.uleb128 0x9
 5858 3d58 5F535F65 		.ascii "_S_error_ctype\0"
 5858      72726F72 
 5858      5F637479 
 5858      706500
 5859 3d67 01       		.byte	0x1
 5860 3d68 09       		.uleb128 0x9
 5861 3d69 5F535F65 		.ascii "_S_error_escape\0"
 5861      72726F72 
 5861      5F657363 
 5861      61706500 
 5862 3d79 02       		.byte	0x2
 5863 3d7a 09       		.uleb128 0x9
 5864 3d7b 5F535F65 		.ascii "_S_error_backref\0"
 5864      72726F72 
 5864      5F626163 
 5864      6B726566 
 5864      00
GAS LISTING C:\Users\gabri\AppData\Local\Temp\cc5DSkcw.s 			page 144


 5865 3d8c 03       		.byte	0x3
 5866 3d8d 09       		.uleb128 0x9
 5867 3d8e 5F535F65 		.ascii "_S_error_brack\0"
 5867      72726F72 
 5867      5F627261 
 5867      636B00
 5868 3d9d 04       		.byte	0x4
 5869 3d9e 09       		.uleb128 0x9
 5870 3d9f 5F535F65 		.ascii "_S_error_paren\0"
 5870      72726F72 
 5870      5F706172 
 5870      656E00
 5871 3dae 05       		.byte	0x5
 5872 3daf 09       		.uleb128 0x9
 5873 3db0 5F535F65 		.ascii "_S_error_brace\0"
 5873      72726F72 
 5873      5F627261 
 5873      636500
 5874 3dbf 06       		.byte	0x6
 5875 3dc0 09       		.uleb128 0x9
 5876 3dc1 5F535F65 		.ascii "_S_error_badbrace\0"
 5876      72726F72 
 5876      5F626164 
 5876      62726163 
 5876      6500
 5877 3dd3 07       		.byte	0x7
 5878 3dd4 09       		.uleb128 0x9
 5879 3dd5 5F535F65 		.ascii "_S_error_range\0"
 5879      72726F72 
 5879      5F72616E 
 5879      676500
 5880 3de4 08       		.byte	0x8
 5881 3de5 09       		.uleb128 0x9
 5882 3de6 5F535F65 		.ascii "_S_error_space\0"
 5882      72726F72 
 5882      5F737061 
 5882      636500
 5883 3df5 09       		.byte	0x9
 5884 3df6 09       		.uleb128 0x9
 5885 3df7 5F535F65 		.ascii "_S_error_badrepeat\0"
 5885      72726F72 
 5885      5F626164 
 5885      72657065 
 5885      617400
 5886 3e0a 0A       		.byte	0xa
 5887 3e0b 09       		.uleb128 0x9
 5888 3e0c 5F535F65 		.ascii "_S_error_complexity\0"
 5888      72726F72 
 5888      5F636F6D 
 5888      706C6578 
 5888      69747900 
 5889 3e20 0B       		.byte	0xb
 5890 3e21 09       		.uleb128 0x9
 5891 3e22 5F535F65 		.ascii "_S_error_stack\0"
 5891      72726F72 
 5891      5F737461 
 5891      636B00
GAS LISTING C:\Users\gabri\AppData\Local\Temp\cc5DSkcw.s 			page 145


 5892 3e31 0C       		.byte	0xc
 5893 3e32 00       		.byte	0
 5894 3e33 04       		.uleb128 0x4
 5895 3e34 2B3D0000 		.long	0x3d2b
 5896 3e38 13       		.uleb128 0x13
 5897 3e39 6572726F 		.ascii "error_collate\0"
 5897      725F636F 
 5897      6C6C6174 
 5897      6500
 5898 3e47 30       		.byte	0x30
 5899 3e48 43       		.byte	0x43
 5900 3e49 18       		.byte	0x18
 5901 3e4a 333E0000 		.long	0x3e33
 5902 3e4e 00       		.byte	0
 5903 3e4f 13       		.uleb128 0x13
 5904 3e50 6572726F 		.ascii "error_ctype\0"
 5904      725F6374 
 5904      79706500 
 5905 3e5c 30       		.byte	0x30
 5906 3e5d 46       		.byte	0x46
 5907 3e5e 18       		.byte	0x18
 5908 3e5f 333E0000 		.long	0x3e33
 5909 3e63 01       		.byte	0x1
 5910 3e64 13       		.uleb128 0x13
 5911 3e65 6572726F 		.ascii "error_escape\0"
 5911      725F6573 
 5911      63617065 
 5911      00
 5912 3e72 30       		.byte	0x30
 5913 3e73 4C       		.byte	0x4c
 5914 3e74 18       		.byte	0x18
 5915 3e75 333E0000 		.long	0x3e33
 5916 3e79 02       		.byte	0x2
 5917 3e7a 13       		.uleb128 0x13
 5918 3e7b 6572726F 		.ascii "error_backref\0"
 5918      725F6261 
 5918      636B7265 
 5918      6600
 5919 3e89 30       		.byte	0x30
 5920 3e8a 4F       		.byte	0x4f
 5921 3e8b 18       		.byte	0x18
 5922 3e8c 333E0000 		.long	0x3e33
 5923 3e90 03       		.byte	0x3
 5924 3e91 13       		.uleb128 0x13
 5925 3e92 6572726F 		.ascii "error_brack\0"
 5925      725F6272 
 5925      61636B00 
 5926 3e9e 30       		.byte	0x30
 5927 3e9f 52       		.byte	0x52
 5928 3ea0 18       		.byte	0x18
 5929 3ea1 333E0000 		.long	0x3e33
 5930 3ea5 04       		.byte	0x4
 5931 3ea6 13       		.uleb128 0x13
 5932 3ea7 6572726F 		.ascii "error_paren\0"
 5932      725F7061 
 5932      72656E00 
 5933 3eb3 30       		.byte	0x30
GAS LISTING C:\Users\gabri\AppData\Local\Temp\cc5DSkcw.s 			page 146


 5934 3eb4 55       		.byte	0x55
 5935 3eb5 18       		.byte	0x18
 5936 3eb6 333E0000 		.long	0x3e33
 5937 3eba 05       		.byte	0x5
 5938 3ebb 13       		.uleb128 0x13
 5939 3ebc 6572726F 		.ascii "error_brace\0"
 5939      725F6272 
 5939      61636500 
 5940 3ec8 30       		.byte	0x30
 5941 3ec9 58       		.byte	0x58
 5942 3eca 18       		.byte	0x18
 5943 3ecb 333E0000 		.long	0x3e33
 5944 3ecf 06       		.byte	0x6
 5945 3ed0 13       		.uleb128 0x13
 5946 3ed1 6572726F 		.ascii "error_badbrace\0"
 5946      725F6261 
 5946      64627261 
 5946      636500
 5947 3ee0 30       		.byte	0x30
 5948 3ee1 5B       		.byte	0x5b
 5949 3ee2 18       		.byte	0x18
 5950 3ee3 333E0000 		.long	0x3e33
 5951 3ee7 07       		.byte	0x7
 5952 3ee8 13       		.uleb128 0x13
 5953 3ee9 6572726F 		.ascii "error_range\0"
 5953      725F7261 
 5953      6E676500 
 5954 3ef5 30       		.byte	0x30
 5955 3ef6 61       		.byte	0x61
 5956 3ef7 18       		.byte	0x18
 5957 3ef8 333E0000 		.long	0x3e33
 5958 3efc 08       		.byte	0x8
 5959 3efd 13       		.uleb128 0x13
 5960 3efe 6572726F 		.ascii "error_space\0"
 5960      725F7370 
 5960      61636500 
 5961 3f0a 30       		.byte	0x30
 5962 3f0b 67       		.byte	0x67
 5963 3f0c 18       		.byte	0x18
 5964 3f0d 333E0000 		.long	0x3e33
 5965 3f11 09       		.byte	0x9
 5966 3f12 13       		.uleb128 0x13
 5967 3f13 6572726F 		.ascii "error_badrepeat\0"
 5967      725F6261 
 5967      64726570 
 5967      65617400 
 5968 3f23 30       		.byte	0x30
 5969 3f24 6C       		.byte	0x6c
 5970 3f25 18       		.byte	0x18
 5971 3f26 333E0000 		.long	0x3e33
 5972 3f2a 0A       		.byte	0xa
 5973 3f2b 13       		.uleb128 0x13
 5974 3f2c 6572726F 		.ascii "error_complexity\0"
 5974      725F636F 
 5974      6D706C65 
 5974      78697479 
 5974      00
GAS LISTING C:\Users\gabri\AppData\Local\Temp\cc5DSkcw.s 			page 147


 5975 3f3d 30       		.byte	0x30
 5976 3f3e 72       		.byte	0x72
 5977 3f3f 18       		.byte	0x18
 5978 3f40 333E0000 		.long	0x3e33
 5979 3f44 0B       		.byte	0xb
 5980 3f45 13       		.uleb128 0x13
 5981 3f46 6572726F 		.ascii "error_stack\0"
 5981      725F7374 
 5981      61636B00 
 5982 3f52 30       		.byte	0x30
 5983 3f53 78       		.byte	0x78
 5984 3f54 18       		.byte	0x18
 5985 3f55 333E0000 		.long	0x3e33
 5986 3f59 0C       		.byte	0xc
 5987 3f5a 00       		.byte	0
 5988 3f5b 10       		.uleb128 0x10
 5989 3f5c 696E7465 		.ascii "integral_constant<long long unsigned int, 8>\0"
 5989      6772616C 
 5989      5F636F6E 
 5989      7374616E 
 5989      743C6C6F 
 5990 3f89 01       		.byte	0x1
 5991 3f8a 13       		.byte	0x13
 5992 3f8b 45       		.byte	0x45
 5993 3f8c 0C       		.byte	0xc
 5994 3f8d 7F400000 		.long	0x407f
 5995 3f91 23       		.uleb128 0x23
 5996 3f92 2C000000 		.secrel32	.LASF5
 5997 3f96 13       		.byte	0x13
 5998 3f97 47       		.byte	0x47
 5999 3f98 2D       		.byte	0x2d
 6000 3f99 CC450000 		.long	0x45cc
 6001 3f9d 24       		.uleb128 0x24
 6002 3f9e 44010000 		.secrel32	.LASF3
 6003 3fa2 13       		.byte	0x13
 6004 3fa3 48       		.byte	0x48
 6005 3fa4 2D       		.byte	0x2d
 6006 3fa5 B2450000 		.long	0x45b2
 6007 3fa9 21       		.uleb128 0x21
 6008 3faa 6F706572 		.ascii "operator std::integral_constant<long long unsigned int, 8>::value_type\0"
 6008      61746F72 
 6008      20737464 
 6008      3A3A696E 
 6008      74656772 
 6009 3ff1 13       		.byte	0x13
 6010 3ff2 4A       		.byte	0x4a
 6011 3ff3 11       		.byte	0x11
 6012 3ff4 5F5A4E4B 		.ascii "_ZNKSt17integral_constantIyLy8EEcvyEv\0"
 6012      53743137 
 6012      696E7465 
 6012      6772616C 
 6012      5F636F6E 
 6013 401a 9D3F0000 		.long	0x3f9d
 6014 401e 26400000 		.long	0x4026
 6015 4022 2C400000 		.long	0x402c
 6016 4026 06       		.uleb128 0x6
 6017 4027 DE730000 		.long	0x73de
GAS LISTING C:\Users\gabri\AppData\Local\Temp\cc5DSkcw.s 			page 148


 6018 402b 00       		.byte	0
 6019 402c 25       		.uleb128 0x25
 6020 402d 8D010000 		.secrel32	.LASF4
 6021 4031 13       		.byte	0x13
 6022 4032 4F       		.byte	0x4f
 6023 4033 1C       		.byte	0x1c
 6024 4034 5F5A4E4B 		.ascii "_ZNKSt17integral_constantIyLy8EEclEv\0"
 6024      53743137 
 6024      696E7465 
 6024      6772616C 
 6024      5F636F6E 
 6025 4059 9D3F0000 		.long	0x3f9d
 6026 405d 65400000 		.long	0x4065
 6027 4061 6B400000 		.long	0x406b
 6028 4065 06       		.uleb128 0x6
 6029 4066 DE730000 		.long	0x73de
 6030 406a 00       		.byte	0
 6031 406b 1D       		.uleb128 0x1d
 6032 406c 5F547000 		.ascii "_Tp\0"
 6033 4070 B2450000 		.long	0x45b2
 6034 4074 20       		.uleb128 0x20
 6035 4075 5F5F7600 		.ascii "__v\0"
 6036 4079 B2450000 		.long	0x45b2
 6037 407d 08       		.byte	0x8
 6038 407e 00       		.byte	0
 6039 407f 04       		.uleb128 0x4
 6040 4080 5B3F0000 		.long	0x3f5b
 6041 4084 59       		.uleb128 0x59
 6042 4085 65786365 		.ascii "exception\0"
 6042      7074696F 
 6042      6E00
 6043 408f 8301     		.uleb128 0x83
 6044 4091 6D61783C 		.ascii "max<int>\0"
 6044      696E743E 
 6044      00
 6045 409a 03       		.byte	0x3
 6046 409b DB       		.byte	0xdb
 6047 409c 05       		.byte	0x5
 6048 409d 5F5A5374 		.ascii "_ZSt3maxIiERKT_S2_S2_\0"
 6048      336D6178 
 6048      49694552 
 6048      4B545F53 
 6048      325F5332 
 6049 40b3 3F700000 		.long	0x703f
 6050 40b7 1D       		.uleb128 0x1d
 6051 40b8 5F547000 		.ascii "_Tp\0"
 6052 40bc 45460000 		.long	0x4645
 6053 40c0 01       		.uleb128 0x1
 6054 40c1 3F700000 		.long	0x703f
 6055 40c5 01       		.uleb128 0x1
 6056 40c6 3F700000 		.long	0x703f
 6057 40ca 00       		.byte	0
 6058 40cb 00       		.byte	0
 6059 40cc 8401     		.uleb128 0x84
 6060 40ce 5F5F676E 		.ascii "__gnu_cxx\0"
 6060      755F6378 
 6060      7800
GAS LISTING C:\Users\gabri\AppData\Local\Temp\cc5DSkcw.s 			page 149


 6061 40d8 17       		.byte	0x17
 6062 40d9 0601     		.word	0x106
 6063 40db 0B       		.byte	0xb
 6064 40dc 56450000 		.long	0x4556
 6065 40e0 34       		.uleb128 0x34
 6066 40e1 5F5F6378 		.ascii "__cxx11\0"
 6066      78313100 
 6067 40e9 17       		.byte	0x17
 6068 40ea 0801     		.word	0x108
 6069 40ec 41       		.byte	0x41
 6070 40ed 2C       		.uleb128 0x2c
 6071 40ee 17       		.byte	0x17
 6072 40ef 0801     		.word	0x108
 6073 40f1 41       		.byte	0x41
 6074 40f2 E0400000 		.long	0x40e0
 6075 40f6 02       		.uleb128 0x2
 6076 40f7 05       		.byte	0x5
 6077 40f8 C8       		.byte	0xc8
 6078 40f9 0B       		.byte	0xb
 6079 40fa 604E0000 		.long	0x4e60
 6080 40fe 02       		.uleb128 0x2
 6081 40ff 05       		.byte	0x5
 6082 4100 D8       		.byte	0xd8
 6083 4101 0B       		.byte	0xb
 6084 4102 09510000 		.long	0x5109
 6085 4106 02       		.uleb128 0x2
 6086 4107 05       		.byte	0x5
 6087 4108 E3       		.byte	0xe3
 6088 4109 0B       		.byte	0xb
 6089 410a 27510000 		.long	0x5127
 6090 410e 02       		.uleb128 0x2
 6091 410f 05       		.byte	0x5
 6092 4110 E4       		.byte	0xe4
 6093 4111 0B       		.byte	0xb
 6094 4112 40510000 		.long	0x5140
 6095 4116 02       		.uleb128 0x2
 6096 4117 05       		.byte	0x5
 6097 4118 E5       		.byte	0xe5
 6098 4119 0B       		.byte	0xb
 6099 411a 65510000 		.long	0x5165
 6100 411e 02       		.uleb128 0x2
 6101 411f 05       		.byte	0x5
 6102 4120 E7       		.byte	0xe7
 6103 4121 0B       		.byte	0xb
 6104 4122 8B510000 		.long	0x518b
 6105 4126 02       		.uleb128 0x2
 6106 4127 05       		.byte	0x5
 6107 4128 E8       		.byte	0xe8
 6108 4129 0B       		.byte	0xb
 6109 412a AA510000 		.long	0x51aa
 6110 412e 28       		.uleb128 0x28
 6111 412f 64697600 		.ascii "div\0"
 6112 4133 05       		.byte	0x5
 6113 4134 D5       		.byte	0xd5
 6114 4135 03       		.byte	0x3
 6115 4136 5F5A4E39 		.ascii "_ZN9__gnu_cxx3divExx\0"
 6115      5F5F676E 
GAS LISTING C:\Users\gabri\AppData\Local\Temp\cc5DSkcw.s 			page 150


 6115      755F6378 
 6115      78336469 
 6115      76457878 
 6116 414b 604E0000 		.long	0x4e60
 6117 414f 5E410000 		.long	0x415e
 6118 4153 01       		.uleb128 0x1
 6119 4154 D1450000 		.long	0x45d1
 6120 4158 01       		.uleb128 0x1
 6121 4159 D1450000 		.long	0x45d1
 6122 415d 00       		.byte	0
 6123 415e 02       		.uleb128 0x2
 6124 415f 0D       		.byte	0xd
 6125 4160 AF       		.byte	0xaf
 6126 4161 0B       		.byte	0xb
 6127 4162 125C0000 		.long	0x5c12
 6128 4166 02       		.uleb128 0x2
 6129 4167 0D       		.byte	0xd
 6130 4168 B0       		.byte	0xb0
 6131 4169 0B       		.byte	0xb
 6132 416a 4C5C0000 		.long	0x5c4c
 6133 416e 02       		.uleb128 0x2
 6134 416f 0D       		.byte	0xd
 6135 4170 B1       		.byte	0xb1
 6136 4171 0B       		.byte	0xb
 6137 4172 895C0000 		.long	0x5c89
 6138 4176 02       		.uleb128 0x2
 6139 4177 0D       		.byte	0xd
 6140 4178 B2       		.byte	0xb2
 6141 4179 0B       		.byte	0xb
 6142 417a B75C0000 		.long	0x5cb7
 6143 417e 02       		.uleb128 0x2
 6144 417f 0D       		.byte	0xd
 6145 4180 B3       		.byte	0xb3
 6146 4181 0B       		.byte	0xb
 6147 4182 F85C0000 		.long	0x5cf8
 6148 4186 02       		.uleb128 0x2
 6149 4187 10       		.byte	0x10
 6150 4188 F8       		.byte	0xf8
 6151 4189 0B       		.byte	0xb
 6152 418a 65670000 		.long	0x6765
 6153 418e 19       		.uleb128 0x19
 6154 418f 10       		.byte	0x10
 6155 4190 0101     		.word	0x101
 6156 4192 0B       		.byte	0xb
 6157 4193 85670000 		.long	0x6785
 6158 4197 19       		.uleb128 0x19
 6159 4198 10       		.byte	0x10
 6160 4199 0201     		.word	0x102
 6161 419b 0B       		.byte	0xb
 6162 419c AA670000 		.long	0x67aa
 6163 41a0 5B       		.uleb128 0x5b
 6164 41a1 5F5F6F70 		.ascii "__ops\0"
 6164      7300
 6165 41a7 31       		.byte	0x31
 6166 41a8 23       		.byte	0x23
 6167 41a9 0B       		.byte	0xb
 6168 41aa 02       		.uleb128 0x2
GAS LISTING C:\Users\gabri\AppData\Local\Temp\cc5DSkcw.s 			page 151


 6169 41ab 32       		.byte	0x32
 6170 41ac 2C       		.byte	0x2c
 6171 41ad 0E       		.byte	0xe
 6172 41ae 7C140000 		.long	0x147c
 6173 41b2 02       		.uleb128 0x2
 6174 41b3 32       		.byte	0x32
 6175 41b4 2D       		.byte	0x2d
 6176 41b5 0E       		.byte	0xe
 6177 41b6 2E190000 		.long	0x192e
 6178 41ba 10       		.uleb128 0x10
 6179 41bb 5F5F6E75 		.ascii "__numeric_traits_integer<int>\0"
 6179      6D657269 
 6179      635F7472 
 6179      61697473 
 6179      5F696E74 
 6180 41d9 01       		.byte	0x1
 6181 41da 33       		.byte	0x33
 6182 41db 37       		.byte	0x37
 6183 41dc 0C       		.byte	0xc
 6184 41dd 1B420000 		.long	0x421b
 6185 41e1 0D       		.uleb128 0xd
 6186 41e2 A1010000 		.secrel32	.LASF21
 6187 41e6 33       		.byte	0x33
 6188 41e7 3A       		.byte	0x3a
 6189 41e8 1B       		.byte	0x1b
 6190 41e9 4C460000 		.long	0x464c
 6191 41ed 0D       		.uleb128 0xd
 6192 41ee 61010000 		.secrel32	.LASF22
 6193 41f2 33       		.byte	0x33
 6194 41f3 3B       		.byte	0x3b
 6195 41f4 1B       		.byte	0x1b
 6196 41f5 4C460000 		.long	0x464c
 6197 41f9 0D       		.uleb128 0xd
 6198 41fa 8D000000 		.secrel32	.LASF23
 6199 41fe 33       		.byte	0x33
 6200 41ff 3F       		.byte	0x3f
 6201 4200 19       		.byte	0x19
 6202 4201 11680000 		.long	0x6811
 6203 4205 0D       		.uleb128 0xd
 6204 4206 EB010000 		.secrel32	.LASF24
 6205 420a 33       		.byte	0x33
 6206 420b 40       		.byte	0x40
 6207 420c 18       		.byte	0x18
 6208 420d 4C460000 		.long	0x464c
 6209 4211 1A       		.uleb128 0x1a
 6210 4212 25000000 		.secrel32	.LASF25
 6211 4216 45460000 		.long	0x4645
 6212 421a 00       		.byte	0
 6213 421b 10       		.uleb128 0x10
 6214 421c 5F5F6E75 		.ascii "__numeric_traits_floating<float>\0"
 6214      6D657269 
 6214      635F7472 
 6214      61697473 
 6214      5F666C6F 
 6215 423d 01       		.byte	0x1
 6216 423e 33       		.byte	0x33
 6217 423f 64       		.byte	0x64
GAS LISTING C:\Users\gabri\AppData\Local\Temp\cc5DSkcw.s 			page 152


 6218 4240 0C       		.byte	0xc
 6219 4241 7F420000 		.long	0x427f
 6220 4245 0D       		.uleb128 0xd
 6221 4246 0D010000 		.secrel32	.LASF26
 6222 424a 33       		.byte	0x33
 6223 424b 67       		.byte	0x67
 6224 424c 18       		.byte	0x18
 6225 424d 4C460000 		.long	0x464c
 6226 4251 0D       		.uleb128 0xd
 6227 4252 8D000000 		.secrel32	.LASF23
 6228 4256 33       		.byte	0x33
 6229 4257 6A       		.byte	0x6a
 6230 4258 19       		.byte	0x19
 6231 4259 11680000 		.long	0x6811
 6232 425d 0D       		.uleb128 0xd
 6233 425e 7D010000 		.secrel32	.LASF27
 6234 4262 33       		.byte	0x33
 6235 4263 6B       		.byte	0x6b
 6236 4264 18       		.byte	0x18
 6237 4265 4C460000 		.long	0x464c
 6238 4269 0D       		.uleb128 0xd
 6239 426a C9010000 		.secrel32	.LASF28
 6240 426e 33       		.byte	0x33
 6241 426f 6C       		.byte	0x6c
 6242 4270 18       		.byte	0x18
 6243 4271 4C460000 		.long	0x464c
 6244 4275 1A       		.uleb128 0x1a
 6245 4276 25000000 		.secrel32	.LASF25
 6246 427a 7B4C0000 		.long	0x4c7b
 6247 427e 00       		.byte	0
 6248 427f 10       		.uleb128 0x10
 6249 4280 5F5F6E75 		.ascii "__numeric_traits_floating<double>\0"
 6249      6D657269 
 6249      635F7472 
 6249      61697473 
 6249      5F666C6F 
 6250 42a2 01       		.byte	0x1
 6251 42a3 33       		.byte	0x33
 6252 42a4 64       		.byte	0x64
 6253 42a5 0C       		.byte	0xc
 6254 42a6 E4420000 		.long	0x42e4
 6255 42aa 0D       		.uleb128 0xd
 6256 42ab 0D010000 		.secrel32	.LASF26
 6257 42af 33       		.byte	0x33
 6258 42b0 67       		.byte	0x67
 6259 42b1 18       		.byte	0x18
 6260 42b2 4C460000 		.long	0x464c
 6261 42b6 0D       		.uleb128 0xd
 6262 42b7 8D000000 		.secrel32	.LASF23
 6263 42bb 33       		.byte	0x33
 6264 42bc 6A       		.byte	0x6a
 6265 42bd 19       		.byte	0x19
 6266 42be 11680000 		.long	0x6811
 6267 42c2 0D       		.uleb128 0xd
 6268 42c3 7D010000 		.secrel32	.LASF27
 6269 42c7 33       		.byte	0x33
 6270 42c8 6B       		.byte	0x6b
GAS LISTING C:\Users\gabri\AppData\Local\Temp\cc5DSkcw.s 			page 153


 6271 42c9 18       		.byte	0x18
 6272 42ca 4C460000 		.long	0x464c
 6273 42ce 0D       		.uleb128 0xd
 6274 42cf C9010000 		.secrel32	.LASF28
 6275 42d3 33       		.byte	0x33
 6276 42d4 6C       		.byte	0x6c
 6277 42d5 18       		.byte	0x18
 6278 42d6 4C460000 		.long	0x464c
 6279 42da 1A       		.uleb128 0x1a
 6280 42db 25000000 		.secrel32	.LASF25
 6281 42df 714C0000 		.long	0x4c71
 6282 42e3 00       		.byte	0
 6283 42e4 10       		.uleb128 0x10
 6284 42e5 5F5F6E75 		.ascii "__numeric_traits_floating<long double>\0"
 6284      6D657269 
 6284      635F7472 
 6284      61697473 
 6284      5F666C6F 
 6285 430c 01       		.byte	0x1
 6286 430d 33       		.byte	0x33
 6287 430e 64       		.byte	0x64
 6288 430f 0C       		.byte	0xc
 6289 4310 4E430000 		.long	0x434e
 6290 4314 0D       		.uleb128 0xd
 6291 4315 0D010000 		.secrel32	.LASF26
 6292 4319 33       		.byte	0x33
 6293 431a 67       		.byte	0x67
 6294 431b 18       		.byte	0x18
 6295 431c 4C460000 		.long	0x464c
 6296 4320 0D       		.uleb128 0xd
 6297 4321 8D000000 		.secrel32	.LASF23
 6298 4325 33       		.byte	0x33
 6299 4326 6A       		.byte	0x6a
 6300 4327 19       		.byte	0x19
 6301 4328 11680000 		.long	0x6811
 6302 432c 0D       		.uleb128 0xd
 6303 432d 7D010000 		.secrel32	.LASF27
 6304 4331 33       		.byte	0x33
 6305 4332 6B       		.byte	0x6b
 6306 4333 18       		.byte	0x18
 6307 4334 4C460000 		.long	0x464c
 6308 4338 0D       		.uleb128 0xd
 6309 4339 C9010000 		.secrel32	.LASF28
 6310 433d 33       		.byte	0x33
 6311 433e 6C       		.byte	0x6c
 6312 433f 18       		.byte	0x18
 6313 4340 4C460000 		.long	0x464c
 6314 4344 1A       		.uleb128 0x1a
 6315 4345 25000000 		.secrel32	.LASF25
 6316 4349 844C0000 		.long	0x4c84
 6317 434d 00       		.byte	0
 6318 434e 10       		.uleb128 0x10
 6319 434f 5F5F6E75 		.ascii "__numeric_traits_integer<long unsigned int>\0"
 6319      6D657269 
 6319      635F7472 
 6319      61697473 
 6319      5F696E74 
GAS LISTING C:\Users\gabri\AppData\Local\Temp\cc5DSkcw.s 			page 154


 6320 437b 01       		.byte	0x1
 6321 437c 33       		.byte	0x33
 6322 437d 37       		.byte	0x37
 6323 437e 0C       		.byte	0xc
 6324 437f BD430000 		.long	0x43bd
 6325 4383 0D       		.uleb128 0xd
 6326 4384 A1010000 		.secrel32	.LASF21
 6327 4388 33       		.byte	0x33
 6328 4389 3A       		.byte	0x3a
 6329 438a 1B       		.byte	0x1b
 6330 438b E0490000 		.long	0x49e0
 6331 438f 0D       		.uleb128 0xd
 6332 4390 61010000 		.secrel32	.LASF22
 6333 4394 33       		.byte	0x33
 6334 4395 3B       		.byte	0x3b
 6335 4396 1B       		.byte	0x1b
 6336 4397 E0490000 		.long	0x49e0
 6337 439b 0D       		.uleb128 0xd
 6338 439c 8D000000 		.secrel32	.LASF23
 6339 43a0 33       		.byte	0x33
 6340 43a1 3F       		.byte	0x3f
 6341 43a2 19       		.byte	0x19
 6342 43a3 11680000 		.long	0x6811
 6343 43a7 0D       		.uleb128 0xd
 6344 43a8 EB010000 		.secrel32	.LASF24
 6345 43ac 33       		.byte	0x33
 6346 43ad 40       		.byte	0x40
 6347 43ae 18       		.byte	0x18
 6348 43af 4C460000 		.long	0x464c
 6349 43b3 1A       		.uleb128 0x1a
 6350 43b4 25000000 		.secrel32	.LASF25
 6351 43b8 CB490000 		.long	0x49cb
 6352 43bc 00       		.byte	0
 6353 43bd 10       		.uleb128 0x10
 6354 43be 5F5F6E75 		.ascii "__numeric_traits_integer<char>\0"
 6354      6D657269 
 6354      635F7472 
 6354      61697473 
 6354      5F696E74 
 6355 43dd 01       		.byte	0x1
 6356 43de 33       		.byte	0x33
 6357 43df 37       		.byte	0x37
 6358 43e0 0C       		.byte	0xc
 6359 43e1 1F440000 		.long	0x441f
 6360 43e5 0D       		.uleb128 0xd
 6361 43e6 A1010000 		.secrel32	.LASF21
 6362 43ea 33       		.byte	0x33
 6363 43eb 3A       		.byte	0x3a
 6364 43ec 1B       		.byte	0x1b
 6365 43ed 8E450000 		.long	0x458e
 6366 43f1 0D       		.uleb128 0xd
 6367 43f2 61010000 		.secrel32	.LASF22
 6368 43f6 33       		.byte	0x33
 6369 43f7 3B       		.byte	0x3b
 6370 43f8 1B       		.byte	0x1b
 6371 43f9 8E450000 		.long	0x458e
 6372 43fd 0D       		.uleb128 0xd
GAS LISTING C:\Users\gabri\AppData\Local\Temp\cc5DSkcw.s 			page 155


 6373 43fe 8D000000 		.secrel32	.LASF23
 6374 4402 33       		.byte	0x33
 6375 4403 3F       		.byte	0x3f
 6376 4404 19       		.byte	0x19
 6377 4405 11680000 		.long	0x6811
 6378 4409 0D       		.uleb128 0xd
 6379 440a EB010000 		.secrel32	.LASF24
 6380 440e 33       		.byte	0x33
 6381 440f 40       		.byte	0x40
 6382 4410 18       		.byte	0x18
 6383 4411 4C460000 		.long	0x464c
 6384 4415 1A       		.uleb128 0x1a
 6385 4416 25000000 		.secrel32	.LASF25
 6386 441a 86450000 		.long	0x4586
 6387 441e 00       		.byte	0
 6388 441f 10       		.uleb128 0x10
 6389 4420 5F5F6E75 		.ascii "__numeric_traits_integer<short int>\0"
 6389      6D657269 
 6389      635F7472 
 6389      61697473 
 6389      5F696E74 
 6390 4444 01       		.byte	0x1
 6391 4445 33       		.byte	0x33
 6392 4446 37       		.byte	0x37
 6393 4447 0C       		.byte	0xc
 6394 4448 86440000 		.long	0x4486
 6395 444c 0D       		.uleb128 0xd
 6396 444d A1010000 		.secrel32	.LASF21
 6397 4451 33       		.byte	0x33
 6398 4452 3A       		.byte	0x3a
 6399 4453 1B       		.byte	0x1b
 6400 4454 10550000 		.long	0x5510
 6401 4458 0D       		.uleb128 0xd
 6402 4459 61010000 		.secrel32	.LASF22
 6403 445d 33       		.byte	0x33
 6404 445e 3B       		.byte	0x3b
 6405 445f 1B       		.byte	0x1b
 6406 4460 10550000 		.long	0x5510
 6407 4464 0D       		.uleb128 0xd
 6408 4465 8D000000 		.secrel32	.LASF23
 6409 4469 33       		.byte	0x33
 6410 446a 3F       		.byte	0x3f
 6411 446b 19       		.byte	0x19
 6412 446c 11680000 		.long	0x6811
 6413 4470 0D       		.uleb128 0xd
 6414 4471 EB010000 		.secrel32	.LASF24
 6415 4475 33       		.byte	0x33
 6416 4476 40       		.byte	0x40
 6417 4477 18       		.byte	0x18
 6418 4478 4C460000 		.long	0x464c
 6419 447c 1A       		.uleb128 0x1a
 6420 447d 25000000 		.secrel32	.LASF25
 6421 4481 03550000 		.long	0x5503
 6422 4485 00       		.byte	0
 6423 4486 10       		.uleb128 0x10
 6424 4487 5F5F6E75 		.ascii "__numeric_traits_integer<long long int>\0"
 6424      6D657269 
GAS LISTING C:\Users\gabri\AppData\Local\Temp\cc5DSkcw.s 			page 156


 6424      635F7472 
 6424      61697473 
 6424      5F696E74 
 6425 44af 01       		.byte	0x1
 6426 44b0 33       		.byte	0x33
 6427 44b1 37       		.byte	0x37
 6428 44b2 0C       		.byte	0xc
 6429 44b3 F1440000 		.long	0x44f1
 6430 44b7 0D       		.uleb128 0xd
 6431 44b8 A1010000 		.secrel32	.LASF21
 6432 44bc 33       		.byte	0x33
 6433 44bd 3A       		.byte	0x3a
 6434 44be 1B       		.byte	0x1b
 6435 44bf E2450000 		.long	0x45e2
 6436 44c3 0D       		.uleb128 0xd
 6437 44c4 61010000 		.secrel32	.LASF22
 6438 44c8 33       		.byte	0x33
 6439 44c9 3B       		.byte	0x3b
 6440 44ca 1B       		.byte	0x1b
 6441 44cb E2450000 		.long	0x45e2
 6442 44cf 0D       		.uleb128 0xd
 6443 44d0 8D000000 		.secrel32	.LASF23
 6444 44d4 33       		.byte	0x33
 6445 44d5 3F       		.byte	0x3f
 6446 44d6 19       		.byte	0x19
 6447 44d7 11680000 		.long	0x6811
 6448 44db 0D       		.uleb128 0xd
 6449 44dc EB010000 		.secrel32	.LASF24
 6450 44e0 33       		.byte	0x33
 6451 44e1 40       		.byte	0x40
 6452 44e2 18       		.byte	0x18
 6453 44e3 4C460000 		.long	0x464c
 6454 44e7 1A       		.uleb128 0x1a
 6455 44e8 25000000 		.secrel32	.LASF25
 6456 44ec D1450000 		.long	0x45d1
 6457 44f0 00       		.byte	0
 6458 44f1 3E       		.uleb128 0x3e
 6459 44f2 5F4C6F63 		.ascii "_Lock_policy\0"
 6459      6B5F706F 
 6459      6C696379 
 6459      00
 6460 44ff 07       		.byte	0x7
 6461 4500 04       		.byte	0x4
 6462 4501 AB490000 		.long	0x49ab
 6463 4505 34       		.byte	0x34
 6464 4506 31       		.byte	0x31
 6465 4507 08       		.byte	0x8
 6466 4508 30450000 		.long	0x4530
 6467 450c 09       		.uleb128 0x9
 6468 450d 5F535F73 		.ascii "_S_single\0"
 6468      696E676C 
 6468      6500
 6469 4517 00       		.byte	0
 6470 4518 09       		.uleb128 0x9
 6471 4519 5F535F6D 		.ascii "_S_mutex\0"
 6471      75746578 
 6471      00
GAS LISTING C:\Users\gabri\AppData\Local\Temp\cc5DSkcw.s 			page 157


 6472 4522 01       		.byte	0x1
 6473 4523 09       		.uleb128 0x9
 6474 4524 5F535F61 		.ascii "_S_atomic\0"
 6474      746F6D69 
 6474      6300
 6475 452e 02       		.byte	0x2
 6476 452f 00       		.byte	0
 6477 4530 04       		.uleb128 0x4
 6478 4531 F1440000 		.long	0x44f1
 6479 4535 8501     		.uleb128 0x85
 6480 4537 5F5F6465 		.ascii "__default_lock_policy\0"
 6480      6661756C 
 6480      745F6C6F 
 6480      636B5F70 
 6480      6F6C6963 
 6481 454d 34       		.byte	0x34
 6482 454e 35       		.byte	0x35
 6483 454f 1D       		.byte	0x1d
 6484 4550 30450000 		.long	0x4530
 6485 4554 02       		.byte	0x2
 6486 4555 00       		.byte	0
 6487 4556 08       		.uleb128 0x8
 6488 4557 5F5F676E 		.ascii "__gnuc_va_list\0"
 6488      75635F76 
 6488      615F6C69 
 6488      737400
 6489 4566 35       		.byte	0x35
 6490 4567 18       		.byte	0x18
 6491 4568 1D       		.byte	0x1d
 6492 4569 6D450000 		.long	0x456d
 6493 456d 8601     		.uleb128 0x86
 6494 456f 08       		.byte	0x8
 6495 4570 5F5F6275 		.ascii "__builtin_va_list\0"
 6495      696C7469 
 6495      6E5F7661 
 6495      5F6C6973 
 6495      7400
 6496 4582 86450000 		.long	0x4586
 6497 4586 11       		.uleb128 0x11
 6498 4587 01       		.byte	0x1
 6499 4588 06       		.byte	0x6
 6500 4589 63686172 		.ascii "char\0"
 6500      00
 6501 458e 04       		.uleb128 0x4
 6502 458f 86450000 		.long	0x4586
 6503 4593 08       		.uleb128 0x8
 6504 4594 76615F6C 		.ascii "va_list\0"
 6504      69737400 
 6505 459c 35       		.byte	0x35
 6506 459d 1F       		.byte	0x1f
 6507 459e 1A       		.byte	0x1a
 6508 459f 56450000 		.long	0x4556
 6509 45a3 08       		.uleb128 0x8
 6510 45a4 73697A65 		.ascii "size_t\0"
 6510      5F7400
 6511 45ab 36       		.byte	0x36
 6512 45ac 23       		.byte	0x23
GAS LISTING C:\Users\gabri\AppData\Local\Temp\cc5DSkcw.s 			page 158


 6513 45ad 2C       		.byte	0x2c
 6514 45ae B2450000 		.long	0x45b2
 6515 45b2 11       		.uleb128 0x11
 6516 45b3 08       		.byte	0x8
 6517 45b4 07       		.byte	0x7
 6518 45b5 6C6F6E67 		.ascii "long long unsigned int\0"
 6518      206C6F6E 
 6518      6720756E 
 6518      7369676E 
 6518      65642069 
 6519 45cc 04       		.uleb128 0x4
 6520 45cd B2450000 		.long	0x45b2
 6521 45d1 11       		.uleb128 0x11
 6522 45d2 08       		.byte	0x8
 6523 45d3 05       		.byte	0x5
 6524 45d4 6C6F6E67 		.ascii "long long int\0"
 6524      206C6F6E 
 6524      6720696E 
 6524      7400
 6525 45e2 04       		.uleb128 0x4
 6526 45e3 D1450000 		.long	0x45d1
 6527 45e7 08       		.uleb128 0x8
 6528 45e8 696E7470 		.ascii "intptr_t\0"
 6528      74725F74 
 6528      00
 6529 45f1 36       		.byte	0x36
 6530 45f2 3E       		.byte	0x3e
 6531 45f3 23       		.byte	0x23
 6532 45f4 D1450000 		.long	0x45d1
 6533 45f8 08       		.uleb128 0x8
 6534 45f9 75696E74 		.ascii "uintptr_t\0"
 6534      7074725F 
 6534      7400
 6535 4603 36       		.byte	0x36
 6536 4604 4B       		.byte	0x4b
 6537 4605 2C       		.byte	0x2c
 6538 4606 B2450000 		.long	0x45b2
 6539 460a 08       		.uleb128 0x8
 6540 460b 77696E74 		.ascii "wint_t\0"
 6540      5F7400
 6541 4612 36       		.byte	0x36
 6542 4613 6A       		.byte	0x6a
 6543 4614 18       		.byte	0x18
 6544 4615 19460000 		.long	0x4619
 6545 4619 11       		.uleb128 0x11
 6546 461a 02       		.byte	0x2
 6547 461b 07       		.byte	0x7
 6548 461c 73686F72 		.ascii "short unsigned int\0"
 6548      7420756E 
 6548      7369676E 
 6548      65642069 
 6548      6E7400
 6549 462f 04       		.uleb128 0x4
 6550 4630 19460000 		.long	0x4619
 6551 4634 08       		.uleb128 0x8
 6552 4635 77637479 		.ascii "wctype_t\0"
 6552      70655F74 
GAS LISTING C:\Users\gabri\AppData\Local\Temp\cc5DSkcw.s 			page 159


 6552      00
 6553 463e 36       		.byte	0x36
 6554 463f 6B       		.byte	0x6b
 6555 4640 18       		.byte	0x18
 6556 4641 19460000 		.long	0x4619
 6557 4645 11       		.uleb128 0x11
 6558 4646 04       		.byte	0x4
 6559 4647 05       		.byte	0x5
 6560 4648 696E7400 		.ascii "int\0"
 6561 464c 04       		.uleb128 0x4
 6562 464d 45460000 		.long	0x4645
 6563 4651 11       		.uleb128 0x11
 6564 4652 04       		.byte	0x4
 6565 4653 05       		.byte	0x5
 6566 4654 6C6F6E67 		.ascii "long int\0"
 6566      20696E74 
 6566      00
 6567 465d 08       		.uleb128 0x8
 6568 465e 5F5F7469 		.ascii "__time64_t\0"
 6568      6D653634 
 6568      5F7400
 6569 4669 36       		.byte	0x36
 6570 466a 7B       		.byte	0x7b
 6571 466b 23       		.byte	0x23
 6572 466c D1450000 		.long	0x45d1
 6573 4670 08       		.uleb128 0x8
 6574 4671 74696D65 		.ascii "time_t\0"
 6574      5F7400
 6575 4678 36       		.byte	0x36
 6576 4679 8A       		.byte	0x8a
 6577 467a 14       		.byte	0x14
 6578 467b 5D460000 		.long	0x465d
 6579 467f 04       		.uleb128 0x4
 6580 4680 70460000 		.long	0x4670
 6581 4684 2E       		.uleb128 0x2e
 6582 4685 70746872 		.ascii "pthreadlocinfo\0"
 6582      6561646C 
 6582      6F63696E 
 6582      666F00
 6583 4694 36       		.byte	0x36
 6584 4695 A801     		.word	0x1a8
 6585 4697 28       		.byte	0x28
 6586 4698 9C460000 		.long	0x469c
 6587 469c 05       		.uleb128 0x5
 6588 469d 08       		.byte	0x8
 6589 469e A2460000 		.long	0x46a2
 6590 46a2 8701     		.uleb128 0x87
 6591 46a4 74687265 		.ascii "threadlocaleinfostruct\0"
 6591      61646C6F 
 6591      63616C65 
 6591      696E666F 
 6591      73747275 
 6592 46bb 6001     		.word	0x160
 6593 46bd 36       		.byte	0x36
 6594 46be BC01     		.word	0x1bc
 6595 46c0 10       		.byte	0x10
 6596 46c1 9E480000 		.long	0x489e
GAS LISTING C:\Users\gabri\AppData\Local\Temp\cc5DSkcw.s 			page 160


 6597 46c5 8801     		.uleb128 0x88
 6598 46c7 20       		.byte	0x20
 6599 46c8 36       		.byte	0x36
 6600 46c9 C201     		.word	0x1c2
 6601 46cb 0A       		.byte	0xa
 6602 46cc 16470000 		.long	0x4716
 6603 46d0 16       		.uleb128 0x16
 6604 46d1 6C6F6361 		.ascii "locale\0"
 6604      6C6500
 6605 46d8 36       		.byte	0x36
 6606 46d9 C301     		.word	0x1c3
 6607 46db 0B       		.byte	0xb
 6608 46dc 89490000 		.long	0x4989
 6609 46e0 00       		.byte	0
 6610 46e1 16       		.uleb128 0x16
 6611 46e2 776C6F63 		.ascii "wlocale\0"
 6611      616C6500 
 6612 46ea 36       		.byte	0x36
 6613 46eb C401     		.word	0x1c4
 6614 46ed 0E       		.byte	0xe
 6615 46ee 8F490000 		.long	0x498f
 6616 46f2 08       		.byte	0x8
 6617 46f3 62       		.uleb128 0x62
 6618 46f4 3D000000 		.secrel32	.LASF29
 6619 46f8 36       		.byte	0x36
 6620 46f9 C501     		.word	0x1c5
 6621 46fb 0A       		.byte	0xa
 6622 46fc A5490000 		.long	0x49a5
 6623 4700 10       		.byte	0x10
 6624 4701 16       		.uleb128 0x16
 6625 4702 77726566 		.ascii "wrefcount\0"
 6625      636F756E 
 6625      7400
 6626 470c 36       		.byte	0x36
 6627 470d C601     		.word	0x1c6
 6628 470f 0A       		.byte	0xa
 6629 4710 A5490000 		.long	0x49a5
 6630 4714 18       		.byte	0x18
 6631 4715 00       		.byte	0
 6632 4716 62       		.uleb128 0x62
 6633 4717 3D000000 		.secrel32	.LASF29
 6634 471b 36       		.byte	0x36
 6635 471c BD01     		.word	0x1bd
 6636 471e 07       		.byte	0x7
 6637 471f 45460000 		.long	0x4645
 6638 4723 00       		.byte	0
 6639 4724 16       		.uleb128 0x16
 6640 4725 6C635F63 		.ascii "lc_codepage\0"
 6640      6F646570 
 6640      61676500 
 6641 4731 36       		.byte	0x36
 6642 4732 BE01     		.word	0x1be
 6643 4734 10       		.byte	0x10
 6644 4735 AB490000 		.long	0x49ab
 6645 4739 04       		.byte	0x4
 6646 473a 16       		.uleb128 0x16
 6647 473b 6C635F63 		.ascii "lc_collate_cp\0"
GAS LISTING C:\Users\gabri\AppData\Local\Temp\cc5DSkcw.s 			page 161


 6647      6F6C6C61 
 6647      74655F63 
 6647      7000
 6648 4749 36       		.byte	0x36
 6649 474a BF01     		.word	0x1bf
 6650 474c 10       		.byte	0x10
 6651 474d AB490000 		.long	0x49ab
 6652 4751 08       		.byte	0x8
 6653 4752 16       		.uleb128 0x16
 6654 4753 6C635F68 		.ascii "lc_handle\0"
 6654      616E646C 
 6654      6500
 6655 475d 36       		.byte	0x36
 6656 475e C001     		.word	0x1c0
 6657 4760 1C       		.byte	0x1c
 6658 4761 BB490000 		.long	0x49bb
 6659 4765 0C       		.byte	0xc
 6660 4766 16       		.uleb128 0x16
 6661 4767 6C635F69 		.ascii "lc_id\0"
 6661      6400
 6662 476d 36       		.byte	0x36
 6663 476e C101     		.word	0x1c1
 6664 4770 10       		.byte	0x10
 6665 4771 E5490000 		.long	0x49e5
 6666 4775 24       		.byte	0x24
 6667 4776 16       		.uleb128 0x16
 6668 4777 6C635F63 		.ascii "lc_category\0"
 6668      61746567 
 6668      6F727900 
 6669 4783 36       		.byte	0x36
 6670 4784 C701     		.word	0x1c7
 6671 4786 12       		.byte	0x12
 6672 4787 F5490000 		.long	0x49f5
 6673 478b 48       		.byte	0x48
 6674 478c 1F       		.uleb128 0x1f
 6675 478d 6C635F63 		.ascii "lc_clike\0"
 6675      6C696B65 
 6675      00
 6676 4796 36       		.byte	0x36
 6677 4797 C801     		.word	0x1c8
 6678 4799 07       		.byte	0x7
 6679 479a 45460000 		.long	0x4645
 6680 479e 0801     		.word	0x108
 6681 47a0 1F       		.uleb128 0x1f
 6682 47a1 6D625F63 		.ascii "mb_cur_max\0"
 6682      75725F6D 
 6682      617800
 6683 47ac 36       		.byte	0x36
 6684 47ad C901     		.word	0x1c9
 6685 47af 07       		.byte	0x7
 6686 47b0 45460000 		.long	0x4645
 6687 47b4 0C01     		.word	0x10c
 6688 47b6 1F       		.uleb128 0x1f
 6689 47b7 6C636F6E 		.ascii "lconv_intl_refcount\0"
 6689      765F696E 
 6689      746C5F72 
 6689      6566636F 
GAS LISTING C:\Users\gabri\AppData\Local\Temp\cc5DSkcw.s 			page 162


 6689      756E7400 
 6690 47cb 36       		.byte	0x36
 6691 47cc CA01     		.word	0x1ca
 6692 47ce 08       		.byte	0x8
 6693 47cf A5490000 		.long	0x49a5
 6694 47d3 1001     		.word	0x110
 6695 47d5 1F       		.uleb128 0x1f
 6696 47d6 6C636F6E 		.ascii "lconv_num_refcount\0"
 6696      765F6E75 
 6696      6D5F7265 
 6696      66636F75 
 6696      6E7400
 6697 47e9 36       		.byte	0x36
 6698 47ea CB01     		.word	0x1cb
 6699 47ec 08       		.byte	0x8
 6700 47ed A5490000 		.long	0x49a5
 6701 47f1 1801     		.word	0x118
 6702 47f3 1F       		.uleb128 0x1f
 6703 47f4 6C636F6E 		.ascii "lconv_mon_refcount\0"
 6703      765F6D6F 
 6703      6E5F7265 
 6703      66636F75 
 6703      6E7400
 6704 4807 36       		.byte	0x36
 6705 4808 CC01     		.word	0x1cc
 6706 480a 08       		.byte	0x8
 6707 480b A5490000 		.long	0x49a5
 6708 480f 2001     		.word	0x120
 6709 4811 1F       		.uleb128 0x1f
 6710 4812 6C636F6E 		.ascii "lconv\0"
 6710      7600
 6711 4818 36       		.byte	0x36
 6712 4819 CD01     		.word	0x1cd
 6713 481b 11       		.byte	0x11
 6714 481c B74B0000 		.long	0x4bb7
 6715 4820 2801     		.word	0x128
 6716 4822 1F       		.uleb128 0x1f
 6717 4823 63747970 		.ascii "ctype1_refcount\0"
 6717      65315F72 
 6717      6566636F 
 6717      756E7400 
 6718 4833 36       		.byte	0x36
 6719 4834 CE01     		.word	0x1ce
 6720 4836 08       		.byte	0x8
 6721 4837 A5490000 		.long	0x49a5
 6722 483b 3001     		.word	0x130
 6723 483d 1F       		.uleb128 0x1f
 6724 483e 63747970 		.ascii "ctype1\0"
 6724      653100
 6725 4845 36       		.byte	0x36
 6726 4846 CF01     		.word	0x1cf
 6727 4848 13       		.byte	0x13
 6728 4849 BD4B0000 		.long	0x4bbd
 6729 484d 3801     		.word	0x138
 6730 484f 1F       		.uleb128 0x1f
 6731 4850 70637479 		.ascii "pctype\0"
 6731      706500
GAS LISTING C:\Users\gabri\AppData\Local\Temp\cc5DSkcw.s 			page 163


 6732 4857 36       		.byte	0x36
 6733 4858 D001     		.word	0x1d0
 6734 485a 19       		.byte	0x19
 6735 485b C34B0000 		.long	0x4bc3
 6736 485f 4001     		.word	0x140
 6737 4861 1F       		.uleb128 0x1f
 6738 4862 70636C6D 		.ascii "pclmap\0"
 6738      617000
 6739 4869 36       		.byte	0x36
 6740 486a D101     		.word	0x1d1
 6741 486c 18       		.byte	0x18
 6742 486d C94B0000 		.long	0x4bc9
 6743 4871 4801     		.word	0x148
 6744 4873 1F       		.uleb128 0x1f
 6745 4874 7063756D 		.ascii "pcumap\0"
 6745      617000
 6746 487b 36       		.byte	0x36
 6747 487c D201     		.word	0x1d2
 6748 487e 18       		.byte	0x18
 6749 487f C94B0000 		.long	0x4bc9
 6750 4883 5001     		.word	0x150
 6751 4885 1F       		.uleb128 0x1f
 6752 4886 6C635F74 		.ascii "lc_time_curr\0"
 6752      696D655F 
 6752      63757272 
 6752      00
 6753 4893 36       		.byte	0x36
 6754 4894 D301     		.word	0x1d3
 6755 4896 1A       		.byte	0x1a
 6756 4897 F54B0000 		.long	0x4bf5
 6757 489b 5801     		.word	0x158
 6758 489d 00       		.byte	0
 6759 489e 2E       		.uleb128 0x2e
 6760 489f 70746872 		.ascii "pthreadmbcinfo\0"
 6760      6561646D 
 6760      6263696E 
 6760      666F00
 6761 48ae 36       		.byte	0x36
 6762 48af A901     		.word	0x1a9
 6763 48b1 25       		.byte	0x25
 6764 48b2 B6480000 		.long	0x48b6
 6765 48b6 05       		.uleb128 0x5
 6766 48b7 08       		.byte	0x8
 6767 48b8 BC480000 		.long	0x48bc
 6768 48bc 0E       		.uleb128 0xe
 6769 48bd 74687265 		.ascii "threadmbcinfostruct\0"
 6769      61646D62 
 6769      63696E66 
 6769      6F737472 
 6769      75637400 
 6770 48d1 18       		.uleb128 0x18
 6771 48d2 6C6F6361 		.ascii "localeinfo_struct\0"
 6771      6C65696E 
 6771      666F5F73 
 6771      74727563 
 6771      7400
 6772 48e4 10       		.byte	0x10
GAS LISTING C:\Users\gabri\AppData\Local\Temp\cc5DSkcw.s 			page 164


 6773 48e5 36       		.byte	0x36
 6774 48e6 AC01     		.word	0x1ac
 6775 48e8 10       		.byte	0x10
 6776 48e9 12490000 		.long	0x4912
 6777 48ed 16       		.uleb128 0x16
 6778 48ee 6C6F6369 		.ascii "locinfo\0"
 6778      6E666F00 
 6779 48f6 36       		.byte	0x36
 6780 48f7 AD01     		.word	0x1ad
 6781 48f9 12       		.byte	0x12
 6782 48fa 84460000 		.long	0x4684
 6783 48fe 00       		.byte	0
 6784 48ff 16       		.uleb128 0x16
 6785 4900 6D626369 		.ascii "mbcinfo\0"
 6785      6E666F00 
 6786 4908 36       		.byte	0x36
 6787 4909 AE01     		.word	0x1ae
 6788 490b 12       		.byte	0x12
 6789 490c 9E480000 		.long	0x489e
 6790 4910 08       		.byte	0x8
 6791 4911 00       		.byte	0
 6792 4912 2E       		.uleb128 0x2e
 6793 4913 5F6C6F63 		.ascii "_locale_tstruct\0"
 6793      616C655F 
 6793      74737472 
 6793      75637400 
 6794 4923 36       		.byte	0x36
 6795 4924 AF01     		.word	0x1af
 6796 4926 03       		.byte	0x3
 6797 4927 D1480000 		.long	0x48d1
 6798 492b 18       		.uleb128 0x18
 6799 492c 7461674C 		.ascii "tagLC_ID\0"
 6799      435F4944 
 6799      00
 6800 4935 06       		.byte	0x6
 6801 4936 36       		.byte	0x36
 6802 4937 B301     		.word	0x1b3
 6803 4939 10       		.byte	0x10
 6804 493a 7A490000 		.long	0x497a
 6805 493e 16       		.uleb128 0x16
 6806 493f 774C616E 		.ascii "wLanguage\0"
 6806      67756167 
 6806      6500
 6807 4949 36       		.byte	0x36
 6808 494a B401     		.word	0x1b4
 6809 494c 12       		.byte	0x12
 6810 494d 19460000 		.long	0x4619
 6811 4951 00       		.byte	0
 6812 4952 16       		.uleb128 0x16
 6813 4953 77436F75 		.ascii "wCountry\0"
 6813      6E747279 
 6813      00
 6814 495c 36       		.byte	0x36
 6815 495d B501     		.word	0x1b5
 6816 495f 12       		.byte	0x12
 6817 4960 19460000 		.long	0x4619
 6818 4964 02       		.byte	0x2
GAS LISTING C:\Users\gabri\AppData\Local\Temp\cc5DSkcw.s 			page 165


 6819 4965 16       		.uleb128 0x16
 6820 4966 77436F64 		.ascii "wCodePage\0"
 6820      65506167 
 6820      6500
 6821 4970 36       		.byte	0x36
 6822 4971 B601     		.word	0x1b6
 6823 4973 12       		.byte	0x12
 6824 4974 19460000 		.long	0x4619
 6825 4978 04       		.byte	0x4
 6826 4979 00       		.byte	0
 6827 497a 2E       		.uleb128 0x2e
 6828 497b 4C435F49 		.ascii "LC_ID\0"
 6828      4400
 6829 4981 36       		.byte	0x36
 6830 4982 B701     		.word	0x1b7
 6831 4984 03       		.byte	0x3
 6832 4985 2B490000 		.long	0x492b
 6833 4989 05       		.uleb128 0x5
 6834 498a 08       		.byte	0x8
 6835 498b 86450000 		.long	0x4586
 6836 498f 05       		.uleb128 0x5
 6837 4990 08       		.byte	0x8
 6838 4991 95490000 		.long	0x4995
 6839 4995 11       		.uleb128 0x11
 6840 4996 02       		.byte	0x2
 6841 4997 07       		.byte	0x7
 6842 4998 77636861 		.ascii "wchar_t\0"
 6842      725F7400 
 6843 49a0 04       		.uleb128 0x4
 6844 49a1 95490000 		.long	0x4995
 6845 49a5 05       		.uleb128 0x5
 6846 49a6 08       		.byte	0x8
 6847 49a7 45460000 		.long	0x4645
 6848 49ab 11       		.uleb128 0x11
 6849 49ac 04       		.byte	0x4
 6850 49ad 07       		.byte	0x7
 6851 49ae 756E7369 		.ascii "unsigned int\0"
 6851      676E6564 
 6851      20696E74 
 6851      00
 6852 49bb 29       		.uleb128 0x29
 6853 49bc CB490000 		.long	0x49cb
 6854 49c0 CB490000 		.long	0x49cb
 6855 49c4 2F       		.uleb128 0x2f
 6856 49c5 B2450000 		.long	0x45b2
 6857 49c9 05       		.byte	0x5
 6858 49ca 00       		.byte	0
 6859 49cb 11       		.uleb128 0x11
 6860 49cc 04       		.byte	0x4
 6861 49cd 07       		.byte	0x7
 6862 49ce 6C6F6E67 		.ascii "long unsigned int\0"
 6862      20756E73 
 6862      69676E65 
 6862      6420696E 
 6862      7400
 6863 49e0 04       		.uleb128 0x4
 6864 49e1 CB490000 		.long	0x49cb
GAS LISTING C:\Users\gabri\AppData\Local\Temp\cc5DSkcw.s 			page 166


 6865 49e5 29       		.uleb128 0x29
 6866 49e6 7A490000 		.long	0x497a
 6867 49ea F5490000 		.long	0x49f5
 6868 49ee 2F       		.uleb128 0x2f
 6869 49ef B2450000 		.long	0x45b2
 6870 49f3 05       		.byte	0x5
 6871 49f4 00       		.byte	0
 6872 49f5 29       		.uleb128 0x29
 6873 49f6 C5460000 		.long	0x46c5
 6874 49fa 054A0000 		.long	0x4a05
 6875 49fe 2F       		.uleb128 0x2f
 6876 49ff B2450000 		.long	0x45b2
 6877 4a03 05       		.byte	0x5
 6878 4a04 00       		.byte	0
 6879 4a05 10       		.uleb128 0x10
 6880 4a06 6C636F6E 		.ascii "lconv\0"
 6880      7600
 6881 4a0c 58       		.byte	0x58
 6882 4a0d 37       		.byte	0x37
 6883 4a0e 2D       		.byte	0x2d
 6884 4a0f 0A       		.byte	0xa
 6885 4a10 B74B0000 		.long	0x4bb7
 6886 4a14 07       		.uleb128 0x7
 6887 4a15 64656369 		.ascii "decimal_point\0"
 6887      6D616C5F 
 6887      706F696E 
 6887      7400
 6888 4a23 37       		.byte	0x37
 6889 4a24 2E       		.byte	0x2e
 6890 4a25 0B       		.byte	0xb
 6891 4a26 89490000 		.long	0x4989
 6892 4a2a 00       		.byte	0
 6893 4a2b 07       		.uleb128 0x7
 6894 4a2c 74686F75 		.ascii "thousands_sep\0"
 6894      73616E64 
 6894      735F7365 
 6894      7000
 6895 4a3a 37       		.byte	0x37
 6896 4a3b 2F       		.byte	0x2f
 6897 4a3c 0B       		.byte	0xb
 6898 4a3d 89490000 		.long	0x4989
 6899 4a41 08       		.byte	0x8
 6900 4a42 07       		.uleb128 0x7
 6901 4a43 67726F75 		.ascii "grouping\0"
 6901      70696E67 
 6901      00
 6902 4a4c 37       		.byte	0x37
 6903 4a4d 30       		.byte	0x30
 6904 4a4e 0B       		.byte	0xb
 6905 4a4f 89490000 		.long	0x4989
 6906 4a53 10       		.byte	0x10
 6907 4a54 07       		.uleb128 0x7
 6908 4a55 696E745F 		.ascii "int_curr_symbol\0"
 6908      63757272 
 6908      5F73796D 
 6908      626F6C00 
 6909 4a65 37       		.byte	0x37
GAS LISTING C:\Users\gabri\AppData\Local\Temp\cc5DSkcw.s 			page 167


 6910 4a66 31       		.byte	0x31
 6911 4a67 0B       		.byte	0xb
 6912 4a68 89490000 		.long	0x4989
 6913 4a6c 18       		.byte	0x18
 6914 4a6d 07       		.uleb128 0x7
 6915 4a6e 63757272 		.ascii "currency_symbol\0"
 6915      656E6379 
 6915      5F73796D 
 6915      626F6C00 
 6916 4a7e 37       		.byte	0x37
 6917 4a7f 32       		.byte	0x32
 6918 4a80 0B       		.byte	0xb
 6919 4a81 89490000 		.long	0x4989
 6920 4a85 20       		.byte	0x20
 6921 4a86 07       		.uleb128 0x7
 6922 4a87 6D6F6E5F 		.ascii "mon_decimal_point\0"
 6922      64656369 
 6922      6D616C5F 
 6922      706F696E 
 6922      7400
 6923 4a99 37       		.byte	0x37
 6924 4a9a 33       		.byte	0x33
 6925 4a9b 0B       		.byte	0xb
 6926 4a9c 89490000 		.long	0x4989
 6927 4aa0 28       		.byte	0x28
 6928 4aa1 07       		.uleb128 0x7
 6929 4aa2 6D6F6E5F 		.ascii "mon_thousands_sep\0"
 6929      74686F75 
 6929      73616E64 
 6929      735F7365 
 6929      7000
 6930 4ab4 37       		.byte	0x37
 6931 4ab5 34       		.byte	0x34
 6932 4ab6 0B       		.byte	0xb
 6933 4ab7 89490000 		.long	0x4989
 6934 4abb 30       		.byte	0x30
 6935 4abc 07       		.uleb128 0x7
 6936 4abd 6D6F6E5F 		.ascii "mon_grouping\0"
 6936      67726F75 
 6936      70696E67 
 6936      00
 6937 4aca 37       		.byte	0x37
 6938 4acb 35       		.byte	0x35
 6939 4acc 0B       		.byte	0xb
 6940 4acd 89490000 		.long	0x4989
 6941 4ad1 38       		.byte	0x38
 6942 4ad2 07       		.uleb128 0x7
 6943 4ad3 706F7369 		.ascii "positive_sign\0"
 6943      74697665 
 6943      5F736967 
 6943      6E00
 6944 4ae1 37       		.byte	0x37
 6945 4ae2 36       		.byte	0x36
 6946 4ae3 0B       		.byte	0xb
 6947 4ae4 89490000 		.long	0x4989
 6948 4ae8 40       		.byte	0x40
 6949 4ae9 07       		.uleb128 0x7
GAS LISTING C:\Users\gabri\AppData\Local\Temp\cc5DSkcw.s 			page 168


 6950 4aea 6E656761 		.ascii "negative_sign\0"
 6950      74697665 
 6950      5F736967 
 6950      6E00
 6951 4af8 37       		.byte	0x37
 6952 4af9 37       		.byte	0x37
 6953 4afa 0B       		.byte	0xb
 6954 4afb 89490000 		.long	0x4989
 6955 4aff 48       		.byte	0x48
 6956 4b00 07       		.uleb128 0x7
 6957 4b01 696E745F 		.ascii "int_frac_digits\0"
 6957      66726163 
 6957      5F646967 
 6957      69747300 
 6958 4b11 37       		.byte	0x37
 6959 4b12 38       		.byte	0x38
 6960 4b13 0A       		.byte	0xa
 6961 4b14 86450000 		.long	0x4586
 6962 4b18 50       		.byte	0x50
 6963 4b19 07       		.uleb128 0x7
 6964 4b1a 66726163 		.ascii "frac_digits\0"
 6964      5F646967 
 6964      69747300 
 6965 4b26 37       		.byte	0x37
 6966 4b27 39       		.byte	0x39
 6967 4b28 0A       		.byte	0xa
 6968 4b29 86450000 		.long	0x4586
 6969 4b2d 51       		.byte	0x51
 6970 4b2e 07       		.uleb128 0x7
 6971 4b2f 705F6373 		.ascii "p_cs_precedes\0"
 6971      5F707265 
 6971      63656465 
 6971      7300
 6972 4b3d 37       		.byte	0x37
 6973 4b3e 3A       		.byte	0x3a
 6974 4b3f 0A       		.byte	0xa
 6975 4b40 86450000 		.long	0x4586
 6976 4b44 52       		.byte	0x52
 6977 4b45 07       		.uleb128 0x7
 6978 4b46 705F7365 		.ascii "p_sep_by_space\0"
 6978      705F6279 
 6978      5F737061 
 6978      636500
 6979 4b55 37       		.byte	0x37
 6980 4b56 3B       		.byte	0x3b
 6981 4b57 0A       		.byte	0xa
 6982 4b58 86450000 		.long	0x4586
 6983 4b5c 53       		.byte	0x53
 6984 4b5d 07       		.uleb128 0x7
 6985 4b5e 6E5F6373 		.ascii "n_cs_precedes\0"
 6985      5F707265 
 6985      63656465 
 6985      7300
 6986 4b6c 37       		.byte	0x37
 6987 4b6d 3C       		.byte	0x3c
 6988 4b6e 0A       		.byte	0xa
 6989 4b6f 86450000 		.long	0x4586
GAS LISTING C:\Users\gabri\AppData\Local\Temp\cc5DSkcw.s 			page 169


 6990 4b73 54       		.byte	0x54
 6991 4b74 07       		.uleb128 0x7
 6992 4b75 6E5F7365 		.ascii "n_sep_by_space\0"
 6992      705F6279 
 6992      5F737061 
 6992      636500
 6993 4b84 37       		.byte	0x37
 6994 4b85 3D       		.byte	0x3d
 6995 4b86 0A       		.byte	0xa
 6996 4b87 86450000 		.long	0x4586
 6997 4b8b 55       		.byte	0x55
 6998 4b8c 07       		.uleb128 0x7
 6999 4b8d 705F7369 		.ascii "p_sign_posn\0"
 6999      676E5F70 
 6999      6F736E00 
 7000 4b99 37       		.byte	0x37
 7001 4b9a 3E       		.byte	0x3e
 7002 4b9b 0A       		.byte	0xa
 7003 4b9c 86450000 		.long	0x4586
 7004 4ba0 56       		.byte	0x56
 7005 4ba1 07       		.uleb128 0x7
 7006 4ba2 6E5F7369 		.ascii "n_sign_posn\0"
 7006      676E5F70 
 7006      6F736E00 
 7007 4bae 37       		.byte	0x37
 7008 4baf 3F       		.byte	0x3f
 7009 4bb0 0A       		.byte	0xa
 7010 4bb1 86450000 		.long	0x4586
 7011 4bb5 57       		.byte	0x57
 7012 4bb6 00       		.byte	0
 7013 4bb7 05       		.uleb128 0x5
 7014 4bb8 08       		.byte	0x8
 7015 4bb9 054A0000 		.long	0x4a05
 7016 4bbd 05       		.uleb128 0x5
 7017 4bbe 08       		.byte	0x8
 7018 4bbf 19460000 		.long	0x4619
 7019 4bc3 05       		.uleb128 0x5
 7020 4bc4 08       		.byte	0x8
 7021 4bc5 2F460000 		.long	0x462f
 7022 4bc9 05       		.uleb128 0x5
 7023 4bca 08       		.byte	0x8
 7024 4bcb E04B0000 		.long	0x4be0
 7025 4bcf 11       		.uleb128 0x11
 7026 4bd0 01       		.byte	0x1
 7027 4bd1 08       		.byte	0x8
 7028 4bd2 756E7369 		.ascii "unsigned char\0"
 7028      676E6564 
 7028      20636861 
 7028      7200
 7029 4be0 04       		.uleb128 0x4
 7030 4be1 CF4B0000 		.long	0x4bcf
 7031 4be5 0E       		.uleb128 0xe
 7032 4be6 5F5F6C63 		.ascii "__lc_time_data\0"
 7032      5F74696D 
 7032      655F6461 
 7032      746100
 7033 4bf5 05       		.uleb128 0x5
GAS LISTING C:\Users\gabri\AppData\Local\Temp\cc5DSkcw.s 			page 170


 7034 4bf6 08       		.byte	0x8
 7035 4bf7 E54B0000 		.long	0x4be5
 7036 4bfb 10       		.uleb128 0x10
 7037 4bfc 5F646976 		.ascii "_div_t\0"
 7037      5F7400
 7038 4c03 08       		.byte	0x8
 7039 4c04 38       		.byte	0x38
 7040 4c05 3B       		.byte	0x3b
 7041 4c06 12       		.byte	0x12
 7042 4c07 274C0000 		.long	0x4c27
 7043 4c0b 07       		.uleb128 0x7
 7044 4c0c 71756F74 		.ascii "quot\0"
 7044      00
 7045 4c11 38       		.byte	0x38
 7046 4c12 3C       		.byte	0x3c
 7047 4c13 09       		.byte	0x9
 7048 4c14 45460000 		.long	0x4645
 7049 4c18 00       		.byte	0
 7050 4c19 07       		.uleb128 0x7
 7051 4c1a 72656D00 		.ascii "rem\0"
 7052 4c1e 38       		.byte	0x38
 7053 4c1f 3D       		.byte	0x3d
 7054 4c20 09       		.byte	0x9
 7055 4c21 45460000 		.long	0x4645
 7056 4c25 04       		.byte	0x4
 7057 4c26 00       		.byte	0
 7058 4c27 08       		.uleb128 0x8
 7059 4c28 6469765F 		.ascii "div_t\0"
 7059      7400
 7060 4c2e 38       		.byte	0x38
 7061 4c2f 3E       		.byte	0x3e
 7062 4c30 05       		.byte	0x5
 7063 4c31 FB4B0000 		.long	0x4bfb
 7064 4c35 10       		.uleb128 0x10
 7065 4c36 5F6C6469 		.ascii "_ldiv_t\0"
 7065      765F7400 
 7066 4c3e 08       		.byte	0x8
 7067 4c3f 38       		.byte	0x38
 7068 4c40 40       		.byte	0x40
 7069 4c41 12       		.byte	0x12
 7070 4c42 624C0000 		.long	0x4c62
 7071 4c46 07       		.uleb128 0x7
 7072 4c47 71756F74 		.ascii "quot\0"
 7072      00
 7073 4c4c 38       		.byte	0x38
 7074 4c4d 41       		.byte	0x41
 7075 4c4e 0A       		.byte	0xa
 7076 4c4f 51460000 		.long	0x4651
 7077 4c53 00       		.byte	0
 7078 4c54 07       		.uleb128 0x7
 7079 4c55 72656D00 		.ascii "rem\0"
 7080 4c59 38       		.byte	0x38
 7081 4c5a 42       		.byte	0x42
 7082 4c5b 0A       		.byte	0xa
 7083 4c5c 51460000 		.long	0x4651
 7084 4c60 04       		.byte	0x4
 7085 4c61 00       		.byte	0
GAS LISTING C:\Users\gabri\AppData\Local\Temp\cc5DSkcw.s 			page 171


 7086 4c62 08       		.uleb128 0x8
 7087 4c63 6C646976 		.ascii "ldiv_t\0"
 7087      5F7400
 7088 4c6a 38       		.byte	0x38
 7089 4c6b 43       		.byte	0x43
 7090 4c6c 05       		.byte	0x5
 7091 4c6d 354C0000 		.long	0x4c35
 7092 4c71 11       		.uleb128 0x11
 7093 4c72 08       		.byte	0x8
 7094 4c73 04       		.byte	0x4
 7095 4c74 646F7562 		.ascii "double\0"
 7095      6C6500
 7096 4c7b 11       		.uleb128 0x11
 7097 4c7c 04       		.byte	0x4
 7098 4c7d 04       		.byte	0x4
 7099 4c7e 666C6F61 		.ascii "float\0"
 7099      7400
 7100 4c84 11       		.uleb128 0x11
 7101 4c85 10       		.byte	0x10
 7102 4c86 04       		.byte	0x4
 7103 4c87 6C6F6E67 		.ascii "long double\0"
 7103      20646F75 
 7103      626C6500 
 7104 4c93 14       		.uleb128 0x14
 7105 4c94 5F5F696D 		.ascii "__imp___mb_cur_max\0"
 7105      705F5F5F 
 7105      6D625F63 
 7105      75725F6D 
 7105      617800
 7106 4ca7 38       		.byte	0x38
 7107 4ca8 73       		.byte	0x73
 7108 4ca9 10       		.byte	0x10
 7109 4caa A5490000 		.long	0x49a5
 7110 4cae 05       		.uleb128 0x5
 7111 4caf 08       		.byte	0x8
 7112 4cb0 B44C0000 		.long	0x4cb4
 7113 4cb4 8901     		.uleb128 0x89
 7114 4cb6 05       		.uleb128 0x5
 7115 4cb7 08       		.byte	0x8
 7116 4cb8 A0490000 		.long	0x49a0
 7117 4cbc 29       		.uleb128 0x29
 7118 4cbd 89490000 		.long	0x4989
 7119 4cc1 CC4C0000 		.long	0x4ccc
 7120 4cc5 2F       		.uleb128 0x2f
 7121 4cc6 B2450000 		.long	0x45b2
 7122 4cca 00       		.byte	0
 7123 4ccb 00       		.byte	0
 7124 4ccc 14       		.uleb128 0x14
 7125 4ccd 5F737973 		.ascii "_sys_errlist\0"
 7125      5F657272 
 7125      6C697374 
 7125      00
 7126 4cda 38       		.byte	0x38
 7127 4cdb AC       		.byte	0xac
 7128 4cdc 26       		.byte	0x26
 7129 4cdd BC4C0000 		.long	0x4cbc
 7130 4ce1 14       		.uleb128 0x14
GAS LISTING C:\Users\gabri\AppData\Local\Temp\cc5DSkcw.s 			page 172


 7131 4ce2 5F737973 		.ascii "_sys_nerr\0"
 7131      5F6E6572 
 7131      7200
 7132 4cec 38       		.byte	0x38
 7133 4ced AD       		.byte	0xad
 7134 4cee 24       		.byte	0x24
 7135 4cef 45460000 		.long	0x4645
 7136 4cf3 15       		.uleb128 0x15
 7137 4cf4 5F5F696D 		.ascii "__imp___argc\0"
 7137      705F5F5F 
 7137      61726763 
 7137      00
 7138 4d01 38       		.byte	0x38
 7139 4d02 1901     		.word	0x119
 7140 4d04 10       		.byte	0x10
 7141 4d05 A5490000 		.long	0x49a5
 7142 4d09 15       		.uleb128 0x15
 7143 4d0a 5F5F696D 		.ascii "__imp___argv\0"
 7143      705F5F5F 
 7143      61726776 
 7143      00
 7144 4d17 38       		.byte	0x38
 7145 4d18 1D01     		.word	0x11d
 7146 4d1a 13       		.byte	0x13
 7147 4d1b 1F4D0000 		.long	0x4d1f
 7148 4d1f 05       		.uleb128 0x5
 7149 4d20 08       		.byte	0x8
 7150 4d21 254D0000 		.long	0x4d25
 7151 4d25 05       		.uleb128 0x5
 7152 4d26 08       		.byte	0x8
 7153 4d27 89490000 		.long	0x4989
 7154 4d2b 15       		.uleb128 0x15
 7155 4d2c 5F5F696D 		.ascii "__imp___wargv\0"
 7155      705F5F5F 
 7155      77617267 
 7155      7600
 7156 4d3a 38       		.byte	0x38
 7157 4d3b 2101     		.word	0x121
 7158 4d3d 16       		.byte	0x16
 7159 4d3e 424D0000 		.long	0x4d42
 7160 4d42 05       		.uleb128 0x5
 7161 4d43 08       		.byte	0x8
 7162 4d44 484D0000 		.long	0x4d48
 7163 4d48 05       		.uleb128 0x5
 7164 4d49 08       		.byte	0x8
 7165 4d4a 8F490000 		.long	0x498f
 7166 4d4e 15       		.uleb128 0x15
 7167 4d4f 5F5F696D 		.ascii "__imp__environ\0"
 7167      705F5F65 
 7167      6E766972 
 7167      6F6E00
 7168 4d5e 38       		.byte	0x38
 7169 4d5f 2701     		.word	0x127
 7170 4d61 13       		.byte	0x13
 7171 4d62 1F4D0000 		.long	0x4d1f
 7172 4d66 15       		.uleb128 0x15
 7173 4d67 5F5F696D 		.ascii "__imp__wenviron\0"
GAS LISTING C:\Users\gabri\AppData\Local\Temp\cc5DSkcw.s 			page 173


 7173      705F5F77 
 7173      656E7669 
 7173      726F6E00 
 7174 4d77 38       		.byte	0x38
 7175 4d78 2C01     		.word	0x12c
 7176 4d7a 16       		.byte	0x16
 7177 4d7b 424D0000 		.long	0x4d42
 7178 4d7f 15       		.uleb128 0x15
 7179 4d80 5F5F696D 		.ascii "__imp__pgmptr\0"
 7179      705F5F70 
 7179      676D7074 
 7179      7200
 7180 4d8e 38       		.byte	0x38
 7181 4d8f 3201     		.word	0x132
 7182 4d91 12       		.byte	0x12
 7183 4d92 254D0000 		.long	0x4d25
 7184 4d96 15       		.uleb128 0x15
 7185 4d97 5F5F696D 		.ascii "__imp__wpgmptr\0"
 7185      705F5F77 
 7185      70676D70 
 7185      747200
 7186 4da6 38       		.byte	0x38
 7187 4da7 3701     		.word	0x137
 7188 4da9 15       		.byte	0x15
 7189 4daa 484D0000 		.long	0x4d48
 7190 4dae 15       		.uleb128 0x15
 7191 4daf 5F5F696D 		.ascii "__imp__osplatform\0"
 7191      705F5F6F 
 7191      73706C61 
 7191      74666F72 
 7191      6D00
 7192 4dc1 38       		.byte	0x38
 7193 4dc2 3C01     		.word	0x13c
 7194 4dc4 19       		.byte	0x19
 7195 4dc5 C94D0000 		.long	0x4dc9
 7196 4dc9 05       		.uleb128 0x5
 7197 4dca 08       		.byte	0x8
 7198 4dcb AB490000 		.long	0x49ab
 7199 4dcf 15       		.uleb128 0x15
 7200 4dd0 5F5F696D 		.ascii "__imp__osver\0"
 7200      705F5F6F 
 7200      73766572 
 7200      00
 7201 4ddd 38       		.byte	0x38
 7202 4dde 4101     		.word	0x141
 7203 4de0 19       		.byte	0x19
 7204 4de1 C94D0000 		.long	0x4dc9
 7205 4de5 15       		.uleb128 0x15
 7206 4de6 5F5F696D 		.ascii "__imp__winver\0"
 7206      705F5F77 
 7206      696E7665 
 7206      7200
 7207 4df4 38       		.byte	0x38
 7208 4df5 4601     		.word	0x146
 7209 4df7 19       		.byte	0x19
 7210 4df8 C94D0000 		.long	0x4dc9
 7211 4dfc 15       		.uleb128 0x15
GAS LISTING C:\Users\gabri\AppData\Local\Temp\cc5DSkcw.s 			page 174


 7212 4dfd 5F5F696D 		.ascii "__imp__winmajor\0"
 7212      705F5F77 
 7212      696E6D61 
 7212      6A6F7200 
 7213 4e0d 38       		.byte	0x38
 7214 4e0e 4B01     		.word	0x14b
 7215 4e10 19       		.byte	0x19
 7216 4e11 C94D0000 		.long	0x4dc9
 7217 4e15 15       		.uleb128 0x15
 7218 4e16 5F5F696D 		.ascii "__imp__winminor\0"
 7218      705F5F77 
 7218      696E6D69 
 7218      6E6F7200 
 7219 4e26 38       		.byte	0x38
 7220 4e27 5001     		.word	0x150
 7221 4e29 19       		.byte	0x19
 7222 4e2a C94D0000 		.long	0x4dc9
 7223 4e2e 8A01     		.uleb128 0x8a
 7224 4e30 10       		.byte	0x10
 7225 4e31 38       		.byte	0x38
 7226 4e32 BB02     		.word	0x2bb
 7227 4e34 12       		.byte	0x12
 7228 4e35 376C6C64 		.ascii "7lldiv_t\0"
 7228      69765F74 
 7228      00
 7229 4e3e 604E0000 		.long	0x4e60
 7230 4e42 16       		.uleb128 0x16
 7231 4e43 71756F74 		.ascii "quot\0"
 7231      00
 7232 4e48 38       		.byte	0x38
 7233 4e49 BB02     		.word	0x2bb
 7234 4e4b 30       		.byte	0x30
 7235 4e4c D1450000 		.long	0x45d1
 7236 4e50 00       		.byte	0
 7237 4e51 16       		.uleb128 0x16
 7238 4e52 72656D00 		.ascii "rem\0"
 7239 4e56 38       		.byte	0x38
 7240 4e57 BB02     		.word	0x2bb
 7241 4e59 36       		.byte	0x36
 7242 4e5a D1450000 		.long	0x45d1
 7243 4e5e 08       		.byte	0x8
 7244 4e5f 00       		.byte	0
 7245 4e60 2E       		.uleb128 0x2e
 7246 4e61 6C6C6469 		.ascii "lldiv_t\0"
 7246      765F7400 
 7247 4e69 38       		.byte	0x38
 7248 4e6a BB02     		.word	0x2bb
 7249 4e6c 3D       		.byte	0x3d
 7250 4e6d 2E4E0000 		.long	0x4e2e
 7251 4e71 14       		.uleb128 0x14
 7252 4e72 5F616D62 		.ascii "_amblksiz\0"
 7252      6C6B7369 
 7252      7A00
 7253 4e7c 39       		.byte	0x39
 7254 4e7d 35       		.byte	0x35
 7255 4e7e 17       		.byte	0x17
 7256 4e7f AB490000 		.long	0x49ab
GAS LISTING C:\Users\gabri\AppData\Local\Temp\cc5DSkcw.s 			page 175


 7257 4e83 03       		.uleb128 0x3
 7258 4e84 61746578 		.ascii "atexit\0"
 7258      697400
 7259 4e8b 38       		.byte	0x38
 7260 4e8c 8A01     		.word	0x18a
 7261 4e8e 0F       		.byte	0xf
 7262 4e8f 45460000 		.long	0x4645
 7263 4e93 9D4E0000 		.long	0x4e9d
 7264 4e97 01       		.uleb128 0x1
 7265 4e98 AE4C0000 		.long	0x4cae
 7266 4e9c 00       		.byte	0
 7267 4e9d 03       		.uleb128 0x3
 7268 4e9e 61746F66 		.ascii "atof\0"
 7268      00
 7269 4ea3 38       		.byte	0x38
 7270 4ea4 8D01     		.word	0x18d
 7271 4ea6 12       		.byte	0x12
 7272 4ea7 714C0000 		.long	0x4c71
 7273 4eab B54E0000 		.long	0x4eb5
 7274 4eaf 01       		.uleb128 0x1
 7275 4eb0 B54E0000 		.long	0x4eb5
 7276 4eb4 00       		.byte	0
 7277 4eb5 05       		.uleb128 0x5
 7278 4eb6 08       		.byte	0x8
 7279 4eb7 8E450000 		.long	0x458e
 7280 4ebb 03       		.uleb128 0x3
 7281 4ebc 61746F69 		.ascii "atoi\0"
 7281      00
 7282 4ec1 38       		.byte	0x38
 7283 4ec2 9001     		.word	0x190
 7284 4ec4 0F       		.byte	0xf
 7285 4ec5 45460000 		.long	0x4645
 7286 4ec9 D34E0000 		.long	0x4ed3
 7287 4ecd 01       		.uleb128 0x1
 7288 4ece B54E0000 		.long	0x4eb5
 7289 4ed2 00       		.byte	0
 7290 4ed3 03       		.uleb128 0x3
 7291 4ed4 61746F6C 		.ascii "atol\0"
 7291      00
 7292 4ed9 38       		.byte	0x38
 7293 4eda 9201     		.word	0x192
 7294 4edc 10       		.byte	0x10
 7295 4edd 51460000 		.long	0x4651
 7296 4ee1 EB4E0000 		.long	0x4eeb
 7297 4ee5 01       		.uleb128 0x1
 7298 4ee6 B54E0000 		.long	0x4eb5
 7299 4eea 00       		.byte	0
 7300 4eeb 03       		.uleb128 0x3
 7301 4eec 62736561 		.ascii "bsearch\0"
 7301      72636800 
 7302 4ef4 38       		.byte	0x38
 7303 4ef5 9601     		.word	0x196
 7304 4ef7 11       		.byte	0x11
 7305 4ef8 1A4F0000 		.long	0x4f1a
 7306 4efc 1A4F0000 		.long	0x4f1a
 7307 4f00 01       		.uleb128 0x1
 7308 4f01 1D4F0000 		.long	0x4f1d
GAS LISTING C:\Users\gabri\AppData\Local\Temp\cc5DSkcw.s 			page 176


 7309 4f05 01       		.uleb128 0x1
 7310 4f06 1D4F0000 		.long	0x4f1d
 7311 4f0a 01       		.uleb128 0x1
 7312 4f0b A3450000 		.long	0x45a3
 7313 4f0f 01       		.uleb128 0x1
 7314 4f10 A3450000 		.long	0x45a3
 7315 4f14 01       		.uleb128 0x1
 7316 4f15 254F0000 		.long	0x4f25
 7317 4f19 00       		.byte	0
 7318 4f1a 8B01     		.uleb128 0x8b
 7319 4f1c 08       		.byte	0x8
 7320 4f1d 05       		.uleb128 0x5
 7321 4f1e 08       		.byte	0x8
 7322 4f1f 234F0000 		.long	0x4f23
 7323 4f23 8C01     		.uleb128 0x8c
 7324 4f25 05       		.uleb128 0x5
 7325 4f26 08       		.byte	0x8
 7326 4f27 2B4F0000 		.long	0x4f2b
 7327 4f2b 8D01     		.uleb128 0x8d
 7328 4f2d 45460000 		.long	0x4645
 7329 4f31 404F0000 		.long	0x4f40
 7330 4f35 01       		.uleb128 0x1
 7331 4f36 1D4F0000 		.long	0x4f1d
 7332 4f3a 01       		.uleb128 0x1
 7333 4f3b 1D4F0000 		.long	0x4f1d
 7334 4f3f 00       		.byte	0
 7335 4f40 03       		.uleb128 0x3
 7336 4f41 64697600 		.ascii "div\0"
 7337 4f45 38       		.byte	0x38
 7338 4f46 9C01     		.word	0x19c
 7339 4f48 11       		.byte	0x11
 7340 4f49 274C0000 		.long	0x4c27
 7341 4f4d 5C4F0000 		.long	0x4f5c
 7342 4f51 01       		.uleb128 0x1
 7343 4f52 45460000 		.long	0x4645
 7344 4f56 01       		.uleb128 0x1
 7345 4f57 45460000 		.long	0x4645
 7346 4f5b 00       		.byte	0
 7347 4f5c 03       		.uleb128 0x3
 7348 4f5d 67657465 		.ascii "getenv\0"
 7348      6E7600
 7349 4f64 38       		.byte	0x38
 7350 4f65 9D01     		.word	0x19d
 7351 4f67 11       		.byte	0x11
 7352 4f68 89490000 		.long	0x4989
 7353 4f6c 764F0000 		.long	0x4f76
 7354 4f70 01       		.uleb128 0x1
 7355 4f71 B54E0000 		.long	0x4eb5
 7356 4f75 00       		.byte	0
 7357 4f76 03       		.uleb128 0x3
 7358 4f77 6C646976 		.ascii "ldiv\0"
 7358      00
 7359 4f7c 38       		.byte	0x38
 7360 4f7d A701     		.word	0x1a7
 7361 4f7f 12       		.byte	0x12
 7362 4f80 624C0000 		.long	0x4c62
 7363 4f84 934F0000 		.long	0x4f93
GAS LISTING C:\Users\gabri\AppData\Local\Temp\cc5DSkcw.s 			page 177


 7364 4f88 01       		.uleb128 0x1
 7365 4f89 51460000 		.long	0x4651
 7366 4f8d 01       		.uleb128 0x1
 7367 4f8e 51460000 		.long	0x4651
 7368 4f92 00       		.byte	0
 7369 4f93 03       		.uleb128 0x3
 7370 4f94 6D626C65 		.ascii "mblen\0"
 7370      6E00
 7371 4f9a 38       		.byte	0x38
 7372 4f9b A901     		.word	0x1a9
 7373 4f9d 0F       		.byte	0xf
 7374 4f9e 45460000 		.long	0x4645
 7375 4fa2 B14F0000 		.long	0x4fb1
 7376 4fa6 01       		.uleb128 0x1
 7377 4fa7 B54E0000 		.long	0x4eb5
 7378 4fab 01       		.uleb128 0x1
 7379 4fac A3450000 		.long	0x45a3
 7380 4fb0 00       		.byte	0
 7381 4fb1 03       		.uleb128 0x3
 7382 4fb2 6D627374 		.ascii "mbstowcs\0"
 7382      6F776373 
 7382      00
 7383 4fbb 38       		.byte	0x38
 7384 4fbc B101     		.word	0x1b1
 7385 4fbe 12       		.byte	0x12
 7386 4fbf A3450000 		.long	0x45a3
 7387 4fc3 D74F0000 		.long	0x4fd7
 7388 4fc7 01       		.uleb128 0x1
 7389 4fc8 8F490000 		.long	0x498f
 7390 4fcc 01       		.uleb128 0x1
 7391 4fcd B54E0000 		.long	0x4eb5
 7392 4fd1 01       		.uleb128 0x1
 7393 4fd2 A3450000 		.long	0x45a3
 7394 4fd6 00       		.byte	0
 7395 4fd7 03       		.uleb128 0x3
 7396 4fd8 6D62746F 		.ascii "mbtowc\0"
 7396      776300
 7397 4fdf 38       		.byte	0x38
 7398 4fe0 AF01     		.word	0x1af
 7399 4fe2 0F       		.byte	0xf
 7400 4fe3 45460000 		.long	0x4645
 7401 4fe7 FB4F0000 		.long	0x4ffb
 7402 4feb 01       		.uleb128 0x1
 7403 4fec 8F490000 		.long	0x498f
 7404 4ff0 01       		.uleb128 0x1
 7405 4ff1 B54E0000 		.long	0x4eb5
 7406 4ff5 01       		.uleb128 0x1
 7407 4ff6 A3450000 		.long	0x45a3
 7408 4ffa 00       		.byte	0
 7409 4ffb 38       		.uleb128 0x38
 7410 4ffc 71736F72 		.ascii "qsort\0"
 7410      7400
 7411 5002 38       		.byte	0x38
 7412 5003 9701     		.word	0x197
 7413 5005 10       		.byte	0x10
 7414 5006 1F500000 		.long	0x501f
 7415 500a 01       		.uleb128 0x1
GAS LISTING C:\Users\gabri\AppData\Local\Temp\cc5DSkcw.s 			page 178


 7416 500b 1A4F0000 		.long	0x4f1a
 7417 500f 01       		.uleb128 0x1
 7418 5010 A3450000 		.long	0x45a3
 7419 5014 01       		.uleb128 0x1
 7420 5015 A3450000 		.long	0x45a3
 7421 5019 01       		.uleb128 0x1
 7422 501a 254F0000 		.long	0x4f25
 7423 501e 00       		.byte	0
 7424 501f 49       		.uleb128 0x49
 7425 5020 72616E64 		.ascii "rand\0"
 7425      00
 7426 5025 38       		.byte	0x38
 7427 5026 B401     		.word	0x1b4
 7428 5028 0F       		.byte	0xf
 7429 5029 45460000 		.long	0x4645
 7430 502d 38       		.uleb128 0x38
 7431 502e 7372616E 		.ascii "srand\0"
 7431      6400
 7432 5034 38       		.byte	0x38
 7433 5035 B601     		.word	0x1b6
 7434 5037 10       		.byte	0x10
 7435 5038 42500000 		.long	0x5042
 7436 503c 01       		.uleb128 0x1
 7437 503d AB490000 		.long	0x49ab
 7438 5041 00       		.byte	0
 7439 5042 03       		.uleb128 0x3
 7440 5043 73747274 		.ascii "strtod\0"
 7440      6F6400
 7441 504a 38       		.byte	0x38
 7442 504b C201     		.word	0x1c2
 7443 504d 20       		.byte	0x20
 7444 504e 714C0000 		.long	0x4c71
 7445 5052 61500000 		.long	0x5061
 7446 5056 01       		.uleb128 0x1
 7447 5057 B54E0000 		.long	0x4eb5
 7448 505b 01       		.uleb128 0x1
 7449 505c 254D0000 		.long	0x4d25
 7450 5060 00       		.byte	0
 7451 5061 03       		.uleb128 0x3
 7452 5062 73747274 		.ascii "strtol\0"
 7452      6F6C00
 7453 5069 38       		.byte	0x38
 7454 506a E501     		.word	0x1e5
 7455 506c 10       		.byte	0x10
 7456 506d 51460000 		.long	0x4651
 7457 5071 85500000 		.long	0x5085
 7458 5075 01       		.uleb128 0x1
 7459 5076 B54E0000 		.long	0x4eb5
 7460 507a 01       		.uleb128 0x1
 7461 507b 254D0000 		.long	0x4d25
 7462 507f 01       		.uleb128 0x1
 7463 5080 45460000 		.long	0x4645
 7464 5084 00       		.byte	0
 7465 5085 03       		.uleb128 0x3
 7466 5086 73747274 		.ascii "strtoul\0"
 7466      6F756C00 
 7467 508e 38       		.byte	0x38
GAS LISTING C:\Users\gabri\AppData\Local\Temp\cc5DSkcw.s 			page 179


 7468 508f E701     		.word	0x1e7
 7469 5091 19       		.byte	0x19
 7470 5092 CB490000 		.long	0x49cb
 7471 5096 AA500000 		.long	0x50aa
 7472 509a 01       		.uleb128 0x1
 7473 509b B54E0000 		.long	0x4eb5
 7474 509f 01       		.uleb128 0x1
 7475 50a0 254D0000 		.long	0x4d25
 7476 50a4 01       		.uleb128 0x1
 7477 50a5 45460000 		.long	0x4645
 7478 50a9 00       		.byte	0
 7479 50aa 03       		.uleb128 0x3
 7480 50ab 73797374 		.ascii "system\0"
 7480      656D00
 7481 50b2 38       		.byte	0x38
 7482 50b3 EB01     		.word	0x1eb
 7483 50b5 0F       		.byte	0xf
 7484 50b6 45460000 		.long	0x4645
 7485 50ba C4500000 		.long	0x50c4
 7486 50be 01       		.uleb128 0x1
 7487 50bf B54E0000 		.long	0x4eb5
 7488 50c3 00       		.byte	0
 7489 50c4 03       		.uleb128 0x3
 7490 50c5 77637374 		.ascii "wcstombs\0"
 7490      6F6D6273 
 7490      00
 7491 50ce 38       		.byte	0x38
 7492 50cf F001     		.word	0x1f0
 7493 50d1 12       		.byte	0x12
 7494 50d2 A3450000 		.long	0x45a3
 7495 50d6 EA500000 		.long	0x50ea
 7496 50da 01       		.uleb128 0x1
 7497 50db 89490000 		.long	0x4989
 7498 50df 01       		.uleb128 0x1
 7499 50e0 B64C0000 		.long	0x4cb6
 7500 50e4 01       		.uleb128 0x1
 7501 50e5 A3450000 		.long	0x45a3
 7502 50e9 00       		.byte	0
 7503 50ea 03       		.uleb128 0x3
 7504 50eb 7763746F 		.ascii "wctomb\0"
 7504      6D6200
 7505 50f2 38       		.byte	0x38
 7506 50f3 EE01     		.word	0x1ee
 7507 50f5 0F       		.byte	0xf
 7508 50f6 45460000 		.long	0x4645
 7509 50fa 09510000 		.long	0x5109
 7510 50fe 01       		.uleb128 0x1
 7511 50ff 89490000 		.long	0x4989
 7512 5103 01       		.uleb128 0x1
 7513 5104 95490000 		.long	0x4995
 7514 5108 00       		.byte	0
 7515 5109 03       		.uleb128 0x3
 7516 510a 6C6C6469 		.ascii "lldiv\0"
 7516      7600
 7517 5110 38       		.byte	0x38
 7518 5111 BD02     		.word	0x2bd
 7519 5113 25       		.byte	0x25
GAS LISTING C:\Users\gabri\AppData\Local\Temp\cc5DSkcw.s 			page 180


 7520 5114 604E0000 		.long	0x4e60
 7521 5118 27510000 		.long	0x5127
 7522 511c 01       		.uleb128 0x1
 7523 511d D1450000 		.long	0x45d1
 7524 5121 01       		.uleb128 0x1
 7525 5122 D1450000 		.long	0x45d1
 7526 5126 00       		.byte	0
 7527 5127 03       		.uleb128 0x3
 7528 5128 61746F6C 		.ascii "atoll\0"
 7528      6C00
 7529 512e 38       		.byte	0x38
 7530 512f C802     		.word	0x2c8
 7531 5131 28       		.byte	0x28
 7532 5132 D1450000 		.long	0x45d1
 7533 5136 40510000 		.long	0x5140
 7534 513a 01       		.uleb128 0x1
 7535 513b B54E0000 		.long	0x4eb5
 7536 513f 00       		.byte	0
 7537 5140 03       		.uleb128 0x3
 7538 5141 73747274 		.ascii "strtoll\0"
 7538      6F6C6C00 
 7539 5149 38       		.byte	0x38
 7540 514a C402     		.word	0x2c4
 7541 514c 28       		.byte	0x28
 7542 514d D1450000 		.long	0x45d1
 7543 5151 65510000 		.long	0x5165
 7544 5155 01       		.uleb128 0x1
 7545 5156 B54E0000 		.long	0x4eb5
 7546 515a 01       		.uleb128 0x1
 7547 515b 254D0000 		.long	0x4d25
 7548 515f 01       		.uleb128 0x1
 7549 5160 45460000 		.long	0x4645
 7550 5164 00       		.byte	0
 7551 5165 03       		.uleb128 0x3
 7552 5166 73747274 		.ascii "strtoull\0"
 7552      6F756C6C 
 7552      00
 7553 516f 38       		.byte	0x38
 7554 5170 C502     		.word	0x2c5
 7555 5172 31       		.byte	0x31
 7556 5173 B2450000 		.long	0x45b2
 7557 5177 8B510000 		.long	0x518b
 7558 517b 01       		.uleb128 0x1
 7559 517c B54E0000 		.long	0x4eb5
 7560 5180 01       		.uleb128 0x1
 7561 5181 254D0000 		.long	0x4d25
 7562 5185 01       		.uleb128 0x1
 7563 5186 45460000 		.long	0x4645
 7564 518a 00       		.byte	0
 7565 518b 03       		.uleb128 0x3
 7566 518c 73747274 		.ascii "strtof\0"
 7566      6F6600
 7567 5193 38       		.byte	0x38
 7568 5194 C901     		.word	0x1c9
 7569 5196 1F       		.byte	0x1f
 7570 5197 7B4C0000 		.long	0x4c7b
 7571 519b AA510000 		.long	0x51aa
GAS LISTING C:\Users\gabri\AppData\Local\Temp\cc5DSkcw.s 			page 181


 7572 519f 01       		.uleb128 0x1
 7573 51a0 B54E0000 		.long	0x4eb5
 7574 51a4 01       		.uleb128 0x1
 7575 51a5 254D0000 		.long	0x4d25
 7576 51a9 00       		.byte	0
 7577 51aa 03       		.uleb128 0x3
 7578 51ab 73747274 		.ascii "strtold\0"
 7578      6F6C6400 
 7579 51b3 38       		.byte	0x38
 7580 51b4 D401     		.word	0x1d4
 7581 51b6 27       		.byte	0x27
 7582 51b7 844C0000 		.long	0x4c84
 7583 51bb CA510000 		.long	0x51ca
 7584 51bf 01       		.uleb128 0x1
 7585 51c0 B54E0000 		.long	0x4eb5
 7586 51c4 01       		.uleb128 0x1
 7587 51c5 254D0000 		.long	0x4d25
 7588 51c9 00       		.byte	0
 7589 51ca 02       		.uleb128 0x2
 7590 51cb 3A       		.byte	0x3a
 7591 51cc 27       		.byte	0x27
 7592 51cd 0C       		.byte	0xc
 7593 51ce 834E0000 		.long	0x4e83
 7594 51d2 02       		.uleb128 0x2
 7595 51d3 3A       		.byte	0x3a
 7596 51d4 33       		.byte	0x33
 7597 51d5 0C       		.byte	0xc
 7598 51d6 274C0000 		.long	0x4c27
 7599 51da 02       		.uleb128 0x2
 7600 51db 3A       		.byte	0x3a
 7601 51dc 34       		.byte	0x34
 7602 51dd 0C       		.byte	0xc
 7603 51de 624C0000 		.long	0x4c62
 7604 51e2 03       		.uleb128 0x3
 7605 51e3 61627300 		.ascii "abs\0"
 7606 51e7 38       		.byte	0x38
 7607 51e8 7F01     		.word	0x17f
 7608 51ea 0F       		.byte	0xf
 7609 51eb 45460000 		.long	0x4645
 7610 51ef F9510000 		.long	0x51f9
 7611 51f3 01       		.uleb128 0x1
 7612 51f4 45460000 		.long	0x4645
 7613 51f8 00       		.byte	0
 7614 51f9 02       		.uleb128 0x2
 7615 51fa 3A       		.byte	0x3a
 7616 51fb 36       		.byte	0x36
 7617 51fc 0C       		.byte	0xc
 7618 51fd E2510000 		.long	0x51e2
 7619 5201 11       		.uleb128 0x11
 7620 5202 10       		.byte	0x10
 7621 5203 04       		.byte	0x4
 7622 5204 5F5F666C 		.ascii "__float128\0"
 7622      6F617431 
 7622      323800
 7623 520f 02       		.uleb128 0x2
 7624 5210 3A       		.byte	0x3a
 7625 5211 36       		.byte	0x36
GAS LISTING C:\Users\gabri\AppData\Local\Temp\cc5DSkcw.s 			page 182


 7626 5212 0C       		.byte	0xc
 7627 5213 0A020000 		.long	0x20a
 7628 5217 11       		.uleb128 0x11
 7629 5218 10       		.byte	0x10
 7630 5219 05       		.byte	0x5
 7631 521a 5F5F696E 		.ascii "__int128\0"
 7631      74313238 
 7631      00
 7632 5223 02       		.uleb128 0x2
 7633 5224 3A       		.byte	0x3a
 7634 5225 36       		.byte	0x36
 7635 5226 0C       		.byte	0xc
 7636 5227 2A020000 		.long	0x22a
 7637 522b 02       		.uleb128 0x2
 7638 522c 3A       		.byte	0x3a
 7639 522d 36       		.byte	0x36
 7640 522e 0C       		.byte	0xc
 7641 522f 4A020000 		.long	0x24a
 7642 5233 02       		.uleb128 0x2
 7643 5234 3A       		.byte	0x3a
 7644 5235 36       		.byte	0x36
 7645 5236 0C       		.byte	0xc
 7646 5237 6A020000 		.long	0x26a
 7647 523b 02       		.uleb128 0x2
 7648 523c 3A       		.byte	0x3a
 7649 523d 36       		.byte	0x36
 7650 523e 0C       		.byte	0xc
 7651 523f 8A020000 		.long	0x28a
 7652 5243 02       		.uleb128 0x2
 7653 5244 3A       		.byte	0x3a
 7654 5245 36       		.byte	0x36
 7655 5246 0C       		.byte	0xc
 7656 5247 AA020000 		.long	0x2aa
 7657 524b 02       		.uleb128 0x2
 7658 524c 3A       		.byte	0x3a
 7659 524d 36       		.byte	0x36
 7660 524e 0C       		.byte	0xc
 7661 524f CA020000 		.long	0x2ca
 7662 5253 02       		.uleb128 0x2
 7663 5254 3A       		.byte	0x3a
 7664 5255 37       		.byte	0x37
 7665 5256 0C       		.byte	0xc
 7666 5257 9D4E0000 		.long	0x4e9d
 7667 525b 02       		.uleb128 0x2
 7668 525c 3A       		.byte	0x3a
 7669 525d 38       		.byte	0x38
 7670 525e 0C       		.byte	0xc
 7671 525f BB4E0000 		.long	0x4ebb
 7672 5263 02       		.uleb128 0x2
 7673 5264 3A       		.byte	0x3a
 7674 5265 39       		.byte	0x39
 7675 5266 0C       		.byte	0xc
 7676 5267 D34E0000 		.long	0x4ed3
 7677 526b 02       		.uleb128 0x2
 7678 526c 3A       		.byte	0x3a
 7679 526d 3A       		.byte	0x3a
 7680 526e 0C       		.byte	0xc
GAS LISTING C:\Users\gabri\AppData\Local\Temp\cc5DSkcw.s 			page 183


 7681 526f EB4E0000 		.long	0x4eeb
 7682 5273 02       		.uleb128 0x2
 7683 5274 3A       		.byte	0x3a
 7684 5275 3C       		.byte	0x3c
 7685 5276 0C       		.byte	0xc
 7686 5277 2E410000 		.long	0x412e
 7687 527b 02       		.uleb128 0x2
 7688 527c 3A       		.byte	0x3a
 7689 527d 3C       		.byte	0x3c
 7690 527e 0C       		.byte	0xc
 7691 527f 404F0000 		.long	0x4f40
 7692 5283 02       		.uleb128 0x2
 7693 5284 3A       		.byte	0x3a
 7694 5285 3C       		.byte	0x3c
 7695 5286 0C       		.byte	0xc
 7696 5287 EA020000 		.long	0x2ea
 7697 528b 02       		.uleb128 0x2
 7698 528c 3A       		.byte	0x3a
 7699 528d 3E       		.byte	0x3e
 7700 528e 0C       		.byte	0xc
 7701 528f 5C4F0000 		.long	0x4f5c
 7702 5293 02       		.uleb128 0x2
 7703 5294 3A       		.byte	0x3a
 7704 5295 40       		.byte	0x40
 7705 5296 0C       		.byte	0xc
 7706 5297 764F0000 		.long	0x4f76
 7707 529b 02       		.uleb128 0x2
 7708 529c 3A       		.byte	0x3a
 7709 529d 43       		.byte	0x43
 7710 529e 0C       		.byte	0xc
 7711 529f 934F0000 		.long	0x4f93
 7712 52a3 02       		.uleb128 0x2
 7713 52a4 3A       		.byte	0x3a
 7714 52a5 44       		.byte	0x44
 7715 52a6 0C       		.byte	0xc
 7716 52a7 B14F0000 		.long	0x4fb1
 7717 52ab 02       		.uleb128 0x2
 7718 52ac 3A       		.byte	0x3a
 7719 52ad 45       		.byte	0x45
 7720 52ae 0C       		.byte	0xc
 7721 52af D74F0000 		.long	0x4fd7
 7722 52b3 02       		.uleb128 0x2
 7723 52b4 3A       		.byte	0x3a
 7724 52b5 47       		.byte	0x47
 7725 52b6 0C       		.byte	0xc
 7726 52b7 FB4F0000 		.long	0x4ffb
 7727 52bb 02       		.uleb128 0x2
 7728 52bc 3A       		.byte	0x3a
 7729 52bd 48       		.byte	0x48
 7730 52be 0C       		.byte	0xc
 7731 52bf 1F500000 		.long	0x501f
 7732 52c3 02       		.uleb128 0x2
 7733 52c4 3A       		.byte	0x3a
 7734 52c5 4A       		.byte	0x4a
 7735 52c6 0C       		.byte	0xc
 7736 52c7 2D500000 		.long	0x502d
 7737 52cb 02       		.uleb128 0x2
GAS LISTING C:\Users\gabri\AppData\Local\Temp\cc5DSkcw.s 			page 184


 7738 52cc 3A       		.byte	0x3a
 7739 52cd 4B       		.byte	0x4b
 7740 52ce 0C       		.byte	0xc
 7741 52cf 42500000 		.long	0x5042
 7742 52d3 02       		.uleb128 0x2
 7743 52d4 3A       		.byte	0x3a
 7744 52d5 4C       		.byte	0x4c
 7745 52d6 0C       		.byte	0xc
 7746 52d7 61500000 		.long	0x5061
 7747 52db 02       		.uleb128 0x2
 7748 52dc 3A       		.byte	0x3a
 7749 52dd 4D       		.byte	0x4d
 7750 52de 0C       		.byte	0xc
 7751 52df 85500000 		.long	0x5085
 7752 52e3 02       		.uleb128 0x2
 7753 52e4 3A       		.byte	0x3a
 7754 52e5 4E       		.byte	0x4e
 7755 52e6 0C       		.byte	0xc
 7756 52e7 AA500000 		.long	0x50aa
 7757 52eb 02       		.uleb128 0x2
 7758 52ec 3A       		.byte	0x3a
 7759 52ed 50       		.byte	0x50
 7760 52ee 0C       		.byte	0xc
 7761 52ef C4500000 		.long	0x50c4
 7762 52f3 02       		.uleb128 0x2
 7763 52f4 3A       		.byte	0x3a
 7764 52f5 51       		.byte	0x51
 7765 52f6 0C       		.byte	0xc
 7766 52f7 EA500000 		.long	0x50ea
 7767 52fb 14       		.uleb128 0x14
 7768 52fc 5F5F696D 		.ascii "__imp__pctype\0"
 7768      705F5F70 
 7768      63747970 
 7768      6500
 7769 530a 3B       		.byte	0x3b
 7770 530b 2B       		.byte	0x2b
 7771 530c 1C       		.byte	0x1c
 7772 530d 11530000 		.long	0x5311
 7773 5311 05       		.uleb128 0x5
 7774 5312 08       		.byte	0x8
 7775 5313 BD4B0000 		.long	0x4bbd
 7776 5317 14       		.uleb128 0x14
 7777 5318 5F5F696D 		.ascii "__imp__wctype\0"
 7777      705F5F77 
 7777      63747970 
 7777      6500
 7778 5326 3B       		.byte	0x3b
 7779 5327 3B       		.byte	0x3b
 7780 5328 1C       		.byte	0x1c
 7781 5329 11530000 		.long	0x5311
 7782 532d 14       		.uleb128 0x14
 7783 532e 5F5F696D 		.ascii "__imp__pwctype\0"
 7783      705F5F70 
 7783      77637479 
 7783      706500
 7784 533d 3B       		.byte	0x3b
 7785 533e 47       		.byte	0x47
GAS LISTING C:\Users\gabri\AppData\Local\Temp\cc5DSkcw.s 			page 185


 7786 533f 1C       		.byte	0x1c
 7787 5340 11530000 		.long	0x5311
 7788 5344 29       		.uleb128 0x29
 7789 5345 E04B0000 		.long	0x4be0
 7790 5349 50530000 		.long	0x5350
 7791 534d 8E01     		.uleb128 0x8e
 7792 534f 00       		.byte	0
 7793 5350 14       		.uleb128 0x14
 7794 5351 5F5F6E65 		.ascii "__newclmap\0"
 7794      77636C6D 
 7794      617000
 7795 535c 3B       		.byte	0x3b
 7796 535d 50       		.byte	0x50
 7797 535e 1E       		.byte	0x1e
 7798 535f 44530000 		.long	0x5344
 7799 5363 14       		.uleb128 0x14
 7800 5364 5F5F6E65 		.ascii "__newcumap\0"
 7800      7763756D 
 7800      617000
 7801 536f 3B       		.byte	0x3b
 7802 5370 51       		.byte	0x51
 7803 5371 1E       		.byte	0x1e
 7804 5372 44530000 		.long	0x5344
 7805 5376 14       		.uleb128 0x14
 7806 5377 5F5F7074 		.ascii "__ptlocinfo\0"
 7806      6C6F6369 
 7806      6E666F00 
 7807 5383 3B       		.byte	0x3b
 7808 5384 52       		.byte	0x52
 7809 5385 19       		.byte	0x19
 7810 5386 84460000 		.long	0x4684
 7811 538a 14       		.uleb128 0x14
 7812 538b 5F5F7074 		.ascii "__ptmbcinfo\0"
 7812      6D626369 
 7812      6E666F00 
 7813 5397 3B       		.byte	0x3b
 7814 5398 53       		.byte	0x53
 7815 5399 19       		.byte	0x19
 7816 539a 9E480000 		.long	0x489e
 7817 539e 14       		.uleb128 0x14
 7818 539f 5F5F676C 		.ascii "__globallocalestatus\0"
 7818      6F62616C 
 7818      6C6F6361 
 7818      6C657374 
 7818      61747573 
 7819 53b4 3B       		.byte	0x3b
 7820 53b5 54       		.byte	0x54
 7821 53b6 0E       		.byte	0xe
 7822 53b7 45460000 		.long	0x4645
 7823 53bb 14       		.uleb128 0x14
 7824 53bc 5F5F6C6F 		.ascii "__locale_changed\0"
 7824      63616C65 
 7824      5F636861 
 7824      6E676564 
 7824      00
 7825 53cd 3B       		.byte	0x3b
 7826 53ce 55       		.byte	0x55
GAS LISTING C:\Users\gabri\AppData\Local\Temp\cc5DSkcw.s 			page 186


 7827 53cf 0E       		.byte	0xe
 7828 53d0 45460000 		.long	0x4645
 7829 53d4 14       		.uleb128 0x14
 7830 53d5 5F5F696E 		.ascii "__initiallocinfo\0"
 7830      69746961 
 7830      6C6C6F63 
 7830      696E666F 
 7830      00
 7831 53e6 3B       		.byte	0x3b
 7832 53e7 56       		.byte	0x56
 7833 53e8 28       		.byte	0x28
 7834 53e9 A2460000 		.long	0x46a2
 7835 53ed 14       		.uleb128 0x14
 7836 53ee 5F5F696E 		.ascii "__initiallocalestructinfo\0"
 7836      69746961 
 7836      6C6C6F63 
 7836      616C6573 
 7836      74727563 
 7837 5408 3B       		.byte	0x3b
 7838 5409 57       		.byte	0x57
 7839 540a 1A       		.byte	0x1a
 7840 540b 12490000 		.long	0x4912
 7841 540f 10       		.uleb128 0x10
 7842 5410 5F696F62 		.ascii "_iobuf\0"
 7842      756600
 7843 5417 30       		.byte	0x30
 7844 5418 01       		.byte	0x1
 7845 5419 1A       		.byte	0x1a
 7846 541a 0A       		.byte	0xa
 7847 541b 9F540000 		.long	0x549f
 7848 541f 07       		.uleb128 0x7
 7849 5420 5F707472 		.ascii "_ptr\0"
 7849      00
 7850 5425 01       		.byte	0x1
 7851 5426 1B       		.byte	0x1b
 7852 5427 0B       		.byte	0xb
 7853 5428 89490000 		.long	0x4989
 7854 542c 00       		.byte	0
 7855 542d 07       		.uleb128 0x7
 7856 542e 5F636E74 		.ascii "_cnt\0"
 7856      00
 7857 5433 01       		.byte	0x1
 7858 5434 1C       		.byte	0x1c
 7859 5435 09       		.byte	0x9
 7860 5436 45460000 		.long	0x4645
 7861 543a 08       		.byte	0x8
 7862 543b 07       		.uleb128 0x7
 7863 543c 5F626173 		.ascii "_base\0"
 7863      6500
 7864 5442 01       		.byte	0x1
 7865 5443 1D       		.byte	0x1d
 7866 5444 0B       		.byte	0xb
 7867 5445 89490000 		.long	0x4989
 7868 5449 10       		.byte	0x10
 7869 544a 07       		.uleb128 0x7
 7870 544b 5F666C61 		.ascii "_flag\0"
 7870      6700
GAS LISTING C:\Users\gabri\AppData\Local\Temp\cc5DSkcw.s 			page 187


 7871 5451 01       		.byte	0x1
 7872 5452 1E       		.byte	0x1e
 7873 5453 09       		.byte	0x9
 7874 5454 45460000 		.long	0x4645
 7875 5458 18       		.byte	0x18
 7876 5459 07       		.uleb128 0x7
 7877 545a 5F66696C 		.ascii "_file\0"
 7877      6500
 7878 5460 01       		.byte	0x1
 7879 5461 1F       		.byte	0x1f
 7880 5462 09       		.byte	0x9
 7881 5463 45460000 		.long	0x4645
 7882 5467 1C       		.byte	0x1c
 7883 5468 07       		.uleb128 0x7
 7884 5469 5F636861 		.ascii "_charbuf\0"
 7884      72627566 
 7884      00
 7885 5472 01       		.byte	0x1
 7886 5473 20       		.byte	0x20
 7887 5474 09       		.byte	0x9
 7888 5475 45460000 		.long	0x4645
 7889 5479 20       		.byte	0x20
 7890 547a 07       		.uleb128 0x7
 7891 547b 5F627566 		.ascii "_bufsiz\0"
 7891      73697A00 
 7892 5483 01       		.byte	0x1
 7893 5484 21       		.byte	0x21
 7894 5485 09       		.byte	0x9
 7895 5486 45460000 		.long	0x4645
 7896 548a 24       		.byte	0x24
 7897 548b 07       		.uleb128 0x7
 7898 548c 5F746D70 		.ascii "_tmpfname\0"
 7898      666E616D 
 7898      6500
 7899 5496 01       		.byte	0x1
 7900 5497 22       		.byte	0x22
 7901 5498 0B       		.byte	0xb
 7902 5499 89490000 		.long	0x4989
 7903 549d 28       		.byte	0x28
 7904 549e 00       		.byte	0
 7905 549f 08       		.uleb128 0x8
 7906 54a0 46494C45 		.ascii "FILE\0"
 7906      00
 7907 54a5 01       		.byte	0x1
 7908 54a6 24       		.byte	0x24
 7909 54a7 19       		.byte	0x19
 7910 54a8 0F540000 		.long	0x540f
 7911 54ac 08       		.uleb128 0x8
 7912 54ad 66706F73 		.ascii "fpos_t\0"
 7912      5F7400
 7913 54b4 01       		.byte	0x1
 7914 54b5 68       		.byte	0x68
 7915 54b6 25       		.byte	0x25
 7916 54b7 D1450000 		.long	0x45d1
 7917 54bb 04       		.uleb128 0x4
 7918 54bc AC540000 		.long	0x54ac
 7919 54c0 0B       		.uleb128 0xb
GAS LISTING C:\Users\gabri\AppData\Local\Temp\cc5DSkcw.s 			page 188


 7920 54c1 7365746C 		.ascii "setlocale\0"
 7920      6F63616C 
 7920      6500
 7921 54cb 37       		.byte	0x37
 7922 54cc 50       		.byte	0x50
 7923 54cd 11       		.byte	0x11
 7924 54ce 89490000 		.long	0x4989
 7925 54d2 E1540000 		.long	0x54e1
 7926 54d6 01       		.uleb128 0x1
 7927 54d7 45460000 		.long	0x4645
 7928 54db 01       		.uleb128 0x1
 7929 54dc B54E0000 		.long	0x4eb5
 7930 54e0 00       		.byte	0
 7931 54e1 63       		.uleb128 0x63
 7932 54e2 6C6F6361 		.ascii "localeconv\0"
 7932      6C65636F 
 7932      6E7600
 7933 54ed 37       		.byte	0x37
 7934 54ee 51       		.byte	0x51
 7935 54ef 21       		.byte	0x21
 7936 54f0 B74B0000 		.long	0x4bb7
 7937 54f4 11       		.uleb128 0x11
 7938 54f5 01       		.byte	0x1
 7939 54f6 06       		.byte	0x6
 7940 54f7 7369676E 		.ascii "signed char\0"
 7940      65642063 
 7940      68617200 
 7941 5503 11       		.uleb128 0x11
 7942 5504 02       		.byte	0x2
 7943 5505 05       		.byte	0x5
 7944 5506 73686F72 		.ascii "short int\0"
 7944      7420696E 
 7944      7400
 7945 5510 04       		.uleb128 0x4
 7946 5511 03550000 		.long	0x5503
 7947 5515 05       		.uleb128 0x5
 7948 5516 08       		.byte	0x8
 7949 5517 714C0000 		.long	0x4c71
 7950 551b 14       		.uleb128 0x14
 7951 551c 5F5F696D 		.ascii "__imp__HUGE\0"
 7951      705F5F48 
 7951      55474500 
 7952 5528 3C       		.byte	0x3c
 7953 5529 9C       		.byte	0x9c
 7954 552a 13       		.byte	0x13
 7955 552b 15550000 		.long	0x5515
 7956 552f 2E       		.uleb128 0x2e
 7957 5530 666C6F61 		.ascii "float_t\0"
 7957      745F7400 
 7958 5538 3C       		.byte	0x3c
 7959 5539 7401     		.word	0x174
 7960 553b 0F       		.byte	0xf
 7961 553c 7B4C0000 		.long	0x4c7b
 7962 5540 2E       		.uleb128 0x2e
 7963 5541 646F7562 		.ascii "double_t\0"
 7963      6C655F74 
 7963      00
GAS LISTING C:\Users\gabri\AppData\Local\Temp\cc5DSkcw.s 			page 189


 7964 554a 3C       		.byte	0x3c
 7965 554b 7501     		.word	0x175
 7966 554d 10       		.byte	0x10
 7967 554e 714C0000 		.long	0x4c71
 7968 5552 15       		.uleb128 0x15
 7969 5553 7369676E 		.ascii "signgam\0"
 7969      67616D00 
 7970 555b 3C       		.byte	0x3c
 7971 555c 9303     		.word	0x393
 7972 555e 0E       		.byte	0xe
 7973 555f 45460000 		.long	0x4645
 7974 5563 10       		.uleb128 0x10
 7975 5564 5F534554 		.ascii "_SETJMP_FLOAT128\0"
 7975      4A4D505F 
 7975      464C4F41 
 7975      54313238 
 7975      00
 7976 5575 10       		.byte	0x10
 7977 5576 3D       		.byte	0x3d
 7978 5577 70       		.byte	0x70
 7979 5578 21       		.byte	0x21
 7980 5579 8C550000 		.long	0x558c
 7981 557d 07       		.uleb128 0x7
 7982 557e 50617274 		.ascii "Part\0"
 7982      00
 7983 5583 3D       		.byte	0x3d
 7984 5584 71       		.byte	0x71
 7985 5585 2E       		.byte	0x2e
 7986 5586 8C550000 		.long	0x558c
 7987 558a 00       		.byte	0
 7988 558b 00       		.byte	0
 7989 558c 29       		.uleb128 0x29
 7990 558d B2450000 		.long	0x45b2
 7991 5591 9C550000 		.long	0x559c
 7992 5595 2F       		.uleb128 0x2f
 7993 5596 B2450000 		.long	0x45b2
 7994 559a 01       		.byte	0x1
 7995 559b 00       		.byte	0
 7996 559c 53       		.uleb128 0x53
 7997 559d 5345544A 		.ascii "SETJMP_FLOAT128\0"
 7997      4D505F46 
 7997      4C4F4154 
 7997      31323800 
 7998 55ad 3D       		.byte	0x3d
 7999 55ae 72       		.byte	0x72
 8000 55af 05       		.byte	0x5
 8001 55b0 63550000 		.long	0x5563
 8002 55b4 10       		.byte	0x10
 8003 55b5 53       		.uleb128 0x53
 8004 55b6 5F4A4254 		.ascii "_JBTYPE\0"
 8004      59504500 
 8005 55be 3D       		.byte	0x3d
 8006 55bf 75       		.byte	0x75
 8007 55c0 1B       		.byte	0x1b
 8008 55c1 9C550000 		.long	0x559c
 8009 55c5 10       		.byte	0x10
 8010 55c6 53       		.uleb128 0x53
GAS LISTING C:\Users\gabri\AppData\Local\Temp\cc5DSkcw.s 			page 190


 8011 55c7 6A6D705F 		.ascii "jmp_buf\0"
 8011      62756600 
 8012 55cf 3D       		.byte	0x3d
 8013 55d0 C7       		.byte	0xc7
 8014 55d1 13       		.byte	0x13
 8015 55d2 D7550000 		.long	0x55d7
 8016 55d6 10       		.byte	0x10
 8017 55d7 8F01     		.uleb128 0x8f
 8018 55d9 B5550000 		.long	0x55b5
 8019 55dd 10       		.byte	0x10
 8020 55de E9550000 		.long	0x55e9
 8021 55e2 2F       		.uleb128 0x2f
 8022 55e3 B2450000 		.long	0x45b2
 8023 55e7 0F       		.byte	0xf
 8024 55e8 00       		.byte	0
 8025 55e9 9001     		.uleb128 0x90
 8026 55eb 6C6F6E67 		.ascii "longjmp\0"
 8026      6A6D7000 
 8027 55f3 3D       		.byte	0x3d
 8028 55f4 0001     		.word	0x100
 8029 55f6 46       		.byte	0x46
 8030 55f7 06560000 		.long	0x5606
 8031 55fb 01       		.uleb128 0x1
 8032 55fc 06560000 		.long	0x5606
 8033 5600 01       		.uleb128 0x1
 8034 5601 45460000 		.long	0x4645
 8035 5605 00       		.byte	0
 8036 5606 05       		.uleb128 0x5
 8037 5607 08       		.byte	0x8
 8038 5608 B5550000 		.long	0x55b5
 8039 560c 08       		.uleb128 0x8
 8040 560d 7369675F 		.ascii "sig_atomic_t\0"
 8040      61746F6D 
 8040      69635F74 
 8040      00
 8041 561a 3E       		.byte	0x3e
 8042 561b 12       		.byte	0x12
 8043 561c 0F       		.byte	0xf
 8044 561d 45460000 		.long	0x4645
 8045 5621 08       		.uleb128 0x8
 8046 5622 5F5F705F 		.ascii "__p_sig_fn_t\0"
 8046      7369675F 
 8046      666E5F74 
 8046      00
 8047 562f 3E       		.byte	0x3e
 8048 5630 30       		.byte	0x30
 8049 5631 12       		.byte	0x12
 8050 5632 36560000 		.long	0x5636
 8051 5636 05       		.uleb128 0x5
 8052 5637 08       		.byte	0x8
 8053 5638 3C560000 		.long	0x563c
 8054 563c 64       		.uleb128 0x64
 8055 563d 47560000 		.long	0x5647
 8056 5641 01       		.uleb128 0x1
 8057 5642 45460000 		.long	0x4645
 8058 5646 00       		.byte	0
 8059 5647 0B       		.uleb128 0xb
GAS LISTING C:\Users\gabri\AppData\Local\Temp\cc5DSkcw.s 			page 191


 8060 5648 7369676E 		.ascii "signal\0"
 8060      616C00
 8061 564f 3E       		.byte	0x3e
 8062 5650 3C       		.byte	0x3c
 8063 5651 18       		.byte	0x18
 8064 5652 21560000 		.long	0x5621
 8065 5656 65560000 		.long	0x5665
 8066 565a 01       		.uleb128 0x1
 8067 565b 45460000 		.long	0x4645
 8068 565f 01       		.uleb128 0x1
 8069 5660 21560000 		.long	0x5621
 8070 5664 00       		.byte	0
 8071 5665 0B       		.uleb128 0xb
 8072 5666 72616973 		.ascii "raise\0"
 8072      6500
 8073 566c 3E       		.byte	0x3e
 8074 566d 3D       		.byte	0x3d
 8075 566e 0F       		.byte	0xf
 8076 566f 45460000 		.long	0x4645
 8077 5673 7D560000 		.long	0x567d
 8078 5677 01       		.uleb128 0x1
 8079 5678 45460000 		.long	0x4645
 8080 567c 00       		.byte	0
 8081 567d 9101     		.uleb128 0x91
 8082 567f 20       		.byte	0x20
 8083 5680 10       		.byte	0x10
 8084 5681 3F       		.byte	0x3f
 8085 5682 A701     		.word	0x1a7
 8086 5684 10       		.byte	0x10
 8087 5685 31316D61 		.ascii "11max_align_t\0"
 8087      785F616C 
 8087      69676E5F 
 8087      7400
 8088 5693 CC560000 		.long	0x56cc
 8089 5697 65       		.uleb128 0x65
 8090 5698 5F5F6D61 		.ascii "__max_align_ll\0"
 8090      785F616C 
 8090      69676E5F 
 8090      6C6C00
 8091 56a7 3F       		.byte	0x3f
 8092 56a8 A801     		.word	0x1a8
 8093 56aa 4F       		.byte	0x4f
 8094 56ab D1450000 		.long	0x45d1
 8095 56af 08       		.byte	0x8
 8096 56b0 00       		.byte	0
 8097 56b1 65       		.uleb128 0x65
 8098 56b2 5F5F6D61 		.ascii "__max_align_ld\0"
 8098      785F616C 
 8098      69676E5F 
 8098      6C6400
 8099 56c1 3F       		.byte	0x3f
 8100 56c2 A901     		.word	0x1a9
 8101 56c4 53       		.byte	0x53
 8102 56c5 844C0000 		.long	0x4c84
 8103 56c9 10       		.byte	0x10
 8104 56ca 10       		.byte	0x10
 8105 56cb 00       		.byte	0
GAS LISTING C:\Users\gabri\AppData\Local\Temp\cc5DSkcw.s 			page 192


 8106 56cc 9201     		.uleb128 0x92
 8107 56ce 6D61785F 		.ascii "max_align_t\0"
 8107      616C6967 
 8107      6E5F7400 
 8108 56da 3F       		.byte	0x3f
 8109 56db AA01     		.word	0x1aa
 8110 56dd 03       		.byte	0x3
 8111 56de 7D560000 		.long	0x567d
 8112 56e2 10       		.byte	0x10
 8113 56e3 38       		.uleb128 0x38
 8114 56e4 636C6561 		.ascii "clearerr\0"
 8114      72657272 
 8114      00
 8115 56ed 01       		.byte	0x1
 8116 56ee 4202     		.word	0x242
 8117 56f0 10       		.byte	0x10
 8118 56f1 FB560000 		.long	0x56fb
 8119 56f5 01       		.uleb128 0x1
 8120 56f6 FB560000 		.long	0x56fb
 8121 56fa 00       		.byte	0
 8122 56fb 05       		.uleb128 0x5
 8123 56fc 08       		.byte	0x8
 8124 56fd 9F540000 		.long	0x549f
 8125 5701 03       		.uleb128 0x3
 8126 5702 66636C6F 		.ascii "fclose\0"
 8126      736500
 8127 5709 01       		.byte	0x1
 8128 570a 4302     		.word	0x243
 8129 570c 0F       		.byte	0xf
 8130 570d 45460000 		.long	0x4645
 8131 5711 1B570000 		.long	0x571b
 8132 5715 01       		.uleb128 0x1
 8133 5716 FB560000 		.long	0x56fb
 8134 571a 00       		.byte	0
 8135 571b 03       		.uleb128 0x3
 8136 571c 66656F66 		.ascii "feof\0"
 8136      00
 8137 5721 01       		.byte	0x1
 8138 5722 4A02     		.word	0x24a
 8139 5724 0F       		.byte	0xf
 8140 5725 45460000 		.long	0x4645
 8141 5729 33570000 		.long	0x5733
 8142 572d 01       		.uleb128 0x1
 8143 572e FB560000 		.long	0x56fb
 8144 5732 00       		.byte	0
 8145 5733 03       		.uleb128 0x3
 8146 5734 66657272 		.ascii "ferror\0"
 8146      6F7200
 8147 573b 01       		.byte	0x1
 8148 573c 4B02     		.word	0x24b
 8149 573e 0F       		.byte	0xf
 8150 573f 45460000 		.long	0x4645
 8151 5743 4D570000 		.long	0x574d
 8152 5747 01       		.uleb128 0x1
 8153 5748 FB560000 		.long	0x56fb
 8154 574c 00       		.byte	0
 8155 574d 03       		.uleb128 0x3
GAS LISTING C:\Users\gabri\AppData\Local\Temp\cc5DSkcw.s 			page 193


 8156 574e 66666C75 		.ascii "fflush\0"
 8156      736800
 8157 5755 01       		.byte	0x1
 8158 5756 4C02     		.word	0x24c
 8159 5758 0F       		.byte	0xf
 8160 5759 45460000 		.long	0x4645
 8161 575d 67570000 		.long	0x5767
 8162 5761 01       		.uleb128 0x1
 8163 5762 FB560000 		.long	0x56fb
 8164 5766 00       		.byte	0
 8165 5767 03       		.uleb128 0x3
 8166 5768 66676574 		.ascii "fgetc\0"
 8166      6300
 8167 576e 01       		.byte	0x1
 8168 576f 4D02     		.word	0x24d
 8169 5771 0F       		.byte	0xf
 8170 5772 45460000 		.long	0x4645
 8171 5776 80570000 		.long	0x5780
 8172 577a 01       		.uleb128 0x1
 8173 577b FB560000 		.long	0x56fb
 8174 577f 00       		.byte	0
 8175 5780 03       		.uleb128 0x3
 8176 5781 66676574 		.ascii "fgetpos\0"
 8176      706F7300 
 8177 5789 01       		.byte	0x1
 8178 578a 4F02     		.word	0x24f
 8179 578c 0F       		.byte	0xf
 8180 578d 45460000 		.long	0x4645
 8181 5791 A0570000 		.long	0x57a0
 8182 5795 01       		.uleb128 0x1
 8183 5796 FB560000 		.long	0x56fb
 8184 579a 01       		.uleb128 0x1
 8185 579b A0570000 		.long	0x57a0
 8186 579f 00       		.byte	0
 8187 57a0 05       		.uleb128 0x5
 8188 57a1 08       		.byte	0x8
 8189 57a2 AC540000 		.long	0x54ac
 8190 57a6 03       		.uleb128 0x3
 8191 57a7 66676574 		.ascii "fgets\0"
 8191      7300
 8192 57ad 01       		.byte	0x1
 8193 57ae 5102     		.word	0x251
 8194 57b0 11       		.byte	0x11
 8195 57b1 89490000 		.long	0x4989
 8196 57b5 C9570000 		.long	0x57c9
 8197 57b9 01       		.uleb128 0x1
 8198 57ba 89490000 		.long	0x4989
 8199 57be 01       		.uleb128 0x1
 8200 57bf 45460000 		.long	0x4645
 8201 57c3 01       		.uleb128 0x1
 8202 57c4 FB560000 		.long	0x56fb
 8203 57c8 00       		.byte	0
 8204 57c9 03       		.uleb128 0x3
 8205 57ca 666F7065 		.ascii "fopen\0"
 8205      6E00
 8206 57d0 01       		.byte	0x1
 8207 57d1 5802     		.word	0x258
GAS LISTING C:\Users\gabri\AppData\Local\Temp\cc5DSkcw.s 			page 194


 8208 57d3 11       		.byte	0x11
 8209 57d4 FB560000 		.long	0x56fb
 8210 57d8 E7570000 		.long	0x57e7
 8211 57dc 01       		.uleb128 0x1
 8212 57dd B54E0000 		.long	0x4eb5
 8213 57e1 01       		.uleb128 0x1
 8214 57e2 B54E0000 		.long	0x4eb5
 8215 57e6 00       		.byte	0
 8216 57e7 0F       		.uleb128 0xf
 8217 57e8 66707269 		.ascii "fprintf\0"
 8217      6E746600 
 8218 57f0 01       		.byte	0x1
 8219 57f1 4E01     		.word	0x14e
 8220 57f3 05       		.byte	0x5
 8221 57f4 5F5A3766 		.ascii "_Z7fprintfP6_iobufPKcz\0"
 8221      7072696E 
 8221      74665036 
 8221      5F696F62 
 8221      7566504B 
 8222 580b 45460000 		.long	0x4645
 8223 580f 1F580000 		.long	0x581f
 8224 5813 01       		.uleb128 0x1
 8225 5814 FB560000 		.long	0x56fb
 8226 5818 01       		.uleb128 0x1
 8227 5819 B54E0000 		.long	0x4eb5
 8228 581d 17       		.uleb128 0x17
 8229 581e 00       		.byte	0
 8230 581f 03       		.uleb128 0x3
 8231 5820 66726561 		.ascii "fread\0"
 8231      6400
 8232 5826 01       		.byte	0x1
 8233 5827 5D02     		.word	0x25d
 8234 5829 12       		.byte	0x12
 8235 582a A3450000 		.long	0x45a3
 8236 582e 47580000 		.long	0x5847
 8237 5832 01       		.uleb128 0x1
 8238 5833 1A4F0000 		.long	0x4f1a
 8239 5837 01       		.uleb128 0x1
 8240 5838 A3450000 		.long	0x45a3
 8241 583c 01       		.uleb128 0x1
 8242 583d A3450000 		.long	0x45a3
 8243 5841 01       		.uleb128 0x1
 8244 5842 FB560000 		.long	0x56fb
 8245 5846 00       		.byte	0
 8246 5847 03       		.uleb128 0x3
 8247 5848 6672656F 		.ascii "freopen\0"
 8247      70656E00 
 8248 5850 01       		.byte	0x1
 8249 5851 5E02     		.word	0x25e
 8250 5853 11       		.byte	0x11
 8251 5854 FB560000 		.long	0x56fb
 8252 5858 6C580000 		.long	0x586c
 8253 585c 01       		.uleb128 0x1
 8254 585d B54E0000 		.long	0x4eb5
 8255 5861 01       		.uleb128 0x1
 8256 5862 B54E0000 		.long	0x4eb5
 8257 5866 01       		.uleb128 0x1
GAS LISTING C:\Users\gabri\AppData\Local\Temp\cc5DSkcw.s 			page 195


 8258 5867 FB560000 		.long	0x56fb
 8259 586b 00       		.byte	0
 8260 586c 0F       		.uleb128 0xf
 8261 586d 66736361 		.ascii "fscanf\0"
 8261      6E6600
 8262 5874 01       		.byte	0x1
 8263 5875 2101     		.word	0x121
 8264 5877 05       		.byte	0x5
 8265 5878 5F5A3666 		.ascii "_Z6fscanfP6_iobufPKcz\0"
 8265      7363616E 
 8265      6650365F 
 8265      696F6275 
 8265      66504B63 
 8266 588e 45460000 		.long	0x4645
 8267 5892 A2580000 		.long	0x58a2
 8268 5896 01       		.uleb128 0x1
 8269 5897 FB560000 		.long	0x56fb
 8270 589b 01       		.uleb128 0x1
 8271 589c B54E0000 		.long	0x4eb5
 8272 58a0 17       		.uleb128 0x17
 8273 58a1 00       		.byte	0
 8274 58a2 03       		.uleb128 0x3
 8275 58a3 66736565 		.ascii "fseek\0"
 8275      6B00
 8276 58a9 01       		.byte	0x1
 8277 58aa 6102     		.word	0x261
 8278 58ac 0F       		.byte	0xf
 8279 58ad 45460000 		.long	0x4645
 8280 58b1 C5580000 		.long	0x58c5
 8281 58b5 01       		.uleb128 0x1
 8282 58b6 FB560000 		.long	0x56fb
 8283 58ba 01       		.uleb128 0x1
 8284 58bb 51460000 		.long	0x4651
 8285 58bf 01       		.uleb128 0x1
 8286 58c0 45460000 		.long	0x4645
 8287 58c4 00       		.byte	0
 8288 58c5 03       		.uleb128 0x3
 8289 58c6 66736574 		.ascii "fsetpos\0"
 8289      706F7300 
 8290 58ce 01       		.byte	0x1
 8291 58cf 5F02     		.word	0x25f
 8292 58d1 0F       		.byte	0xf
 8293 58d2 45460000 		.long	0x4645
 8294 58d6 E5580000 		.long	0x58e5
 8295 58da 01       		.uleb128 0x1
 8296 58db FB560000 		.long	0x56fb
 8297 58df 01       		.uleb128 0x1
 8298 58e0 E5580000 		.long	0x58e5
 8299 58e4 00       		.byte	0
 8300 58e5 05       		.uleb128 0x5
 8301 58e6 08       		.byte	0x8
 8302 58e7 BB540000 		.long	0x54bb
 8303 58eb 03       		.uleb128 0x3
 8304 58ec 6674656C 		.ascii "ftell\0"
 8304      6C00
 8305 58f2 01       		.byte	0x1
 8306 58f3 6202     		.word	0x262
GAS LISTING C:\Users\gabri\AppData\Local\Temp\cc5DSkcw.s 			page 196


 8307 58f5 10       		.byte	0x10
 8308 58f6 51460000 		.long	0x4651
 8309 58fa 04590000 		.long	0x5904
 8310 58fe 01       		.uleb128 0x1
 8311 58ff FB560000 		.long	0x56fb
 8312 5903 00       		.byte	0
 8313 5904 03       		.uleb128 0x3
 8314 5905 67657463 		.ascii "getc\0"
 8314      00
 8315 590a 01       		.byte	0x1
 8316 590b 8F02     		.word	0x28f
 8317 590d 0F       		.byte	0xf
 8318 590e 45460000 		.long	0x4645
 8319 5912 1C590000 		.long	0x591c
 8320 5916 01       		.uleb128 0x1
 8321 5917 FB560000 		.long	0x56fb
 8322 591b 00       		.byte	0
 8323 591c 49       		.uleb128 0x49
 8324 591d 67657463 		.ascii "getchar\0"
 8324      68617200 
 8325 5925 01       		.byte	0x1
 8326 5926 9002     		.word	0x290
 8327 5928 0F       		.byte	0xf
 8328 5929 45460000 		.long	0x4645
 8329 592d 38       		.uleb128 0x38
 8330 592e 70657272 		.ascii "perror\0"
 8330      6F7200
 8331 5935 38       		.byte	0x38
 8332 5936 6D02     		.word	0x26d
 8333 5938 10       		.byte	0x10
 8334 5939 43590000 		.long	0x5943
 8335 593d 01       		.uleb128 0x1
 8336 593e B54E0000 		.long	0x4eb5
 8337 5942 00       		.byte	0
 8338 5943 66       		.uleb128 0x66
 8339 5944 7072696E 		.ascii "printf\0"
 8339      746600
 8340 594b 01       		.byte	0x1
 8341 594c 5901     		.word	0x159
 8342 594e 05       		.byte	0x5
 8343 594f 5F5A3670 		.ascii "_Z6printfPKcz\0"
 8343      72696E74 
 8343      66504B63 
 8343      7A00
 8344 595d 45460000 		.long	0x4645
 8345 5961 00000000 		.quad	.LFB27
 8345      00000000 
 8346 5969 54000000 		.quad	.LFE27-.LFB27
 8346      00000000 
 8347 5971 01       		.uleb128 0x1
 8348 5972 9C       		.byte	0x9c
 8349 5973 B7590000 		.long	0x59b7
 8350 5977 17       		.uleb128 0x17
 8351 5978 67       		.uleb128 0x67
 8352 5979 C0010000 		.secrel32	.LASF32
 8353 597d 01       		.byte	0x1
 8354 597e 5901     		.word	0x159
GAS LISTING C:\Users\gabri\AppData\Local\Temp\cc5DSkcw.s 			page 197


 8355 5980 19       		.byte	0x19
 8356 5981 B54E0000 		.long	0x4eb5
 8357 5985 02       		.uleb128 0x2
 8358 5986 91       		.byte	0x91
 8359 5987 00       		.sleb128 0
 8360 5988 17       		.uleb128 0x17
 8361 5989 4A       		.uleb128 0x4a
 8362 598a 67010000 		.secrel32	.LASF30
 8363 598e 01       		.byte	0x1
 8364 598f 5B01     		.word	0x15b
 8365 5991 07       		.byte	0x7
 8366 5992 45460000 		.long	0x4645
 8367 5996 02       		.uleb128 0x2
 8368 5997 91       		.byte	0x91
 8369 5998 5C       		.sleb128 -36
 8370 5999 4A       		.uleb128 0x4a
 8371 599a B3010000 		.secrel32	.LASF31
 8372 599e 01       		.byte	0x1
 8373 599f 5C01     		.word	0x15c
 8374 59a1 15       		.byte	0x15
 8375 59a2 6D450000 		.long	0x456d
 8376 59a6 02       		.uleb128 0x2
 8377 59a7 91       		.byte	0x91
 8378 59a8 50       		.sleb128 -48
 8379 59a9 68       		.uleb128 0x68
 8380 59aa 38000000 		.quad	.LVL1
 8380      00000000 
 8381 59b2 FC810000 		.long	0x81fc
 8382 59b6 00       		.byte	0
 8383 59b7 03       		.uleb128 0x3
 8384 59b8 72656D6F 		.ascii "remove\0"
 8384      766500
 8385 59bf 01       		.byte	0x1
 8386 59c0 A402     		.word	0x2a4
 8387 59c2 0F       		.byte	0xf
 8388 59c3 45460000 		.long	0x4645
 8389 59c7 D1590000 		.long	0x59d1
 8390 59cb 01       		.uleb128 0x1
 8391 59cc B54E0000 		.long	0x4eb5
 8392 59d0 00       		.byte	0
 8393 59d1 03       		.uleb128 0x3
 8394 59d2 72656E61 		.ascii "rename\0"
 8394      6D6500
 8395 59d9 01       		.byte	0x1
 8396 59da A502     		.word	0x2a5
 8397 59dc 0F       		.byte	0xf
 8398 59dd 45460000 		.long	0x4645
 8399 59e1 F0590000 		.long	0x59f0
 8400 59e5 01       		.uleb128 0x1
 8401 59e6 B54E0000 		.long	0x4eb5
 8402 59ea 01       		.uleb128 0x1
 8403 59eb B54E0000 		.long	0x4eb5
 8404 59ef 00       		.byte	0
 8405 59f0 38       		.uleb128 0x38
 8406 59f1 72657769 		.ascii "rewind\0"
 8406      6E6400
 8407 59f8 01       		.byte	0x1
GAS LISTING C:\Users\gabri\AppData\Local\Temp\cc5DSkcw.s 			page 198


 8408 59f9 AB02     		.word	0x2ab
 8409 59fb 10       		.byte	0x10
 8410 59fc 065A0000 		.long	0x5a06
 8411 5a00 01       		.uleb128 0x1
 8412 5a01 FB560000 		.long	0x56fb
 8413 5a05 00       		.byte	0
 8414 5a06 66       		.uleb128 0x66
 8415 5a07 7363616E 		.ascii "scanf\0"
 8415      6600
 8416 5a0d 01       		.byte	0x1
 8417 5a0e 1601     		.word	0x116
 8418 5a10 05       		.byte	0x5
 8419 5a11 5F5A3573 		.ascii "_Z5scanfPKcz\0"
 8419      63616E66 
 8419      504B637A 
 8419      00
 8420 5a1e 45460000 		.long	0x4645
 8421 5a22 00000000 		.quad	.LFB21
 8421      00000000 
 8422 5a2a 54000000 		.quad	.LFE21-.LFB21
 8422      00000000 
 8423 5a32 01       		.uleb128 0x1
 8424 5a33 9C       		.byte	0x9c
 8425 5a34 785A0000 		.long	0x5a78
 8426 5a38 17       		.uleb128 0x17
 8427 5a39 67       		.uleb128 0x67
 8428 5a3a C0010000 		.secrel32	.LASF32
 8429 5a3e 01       		.byte	0x1
 8430 5a3f 1601     		.word	0x116
 8431 5a41 17       		.byte	0x17
 8432 5a42 B54E0000 		.long	0x4eb5
 8433 5a46 02       		.uleb128 0x2
 8434 5a47 91       		.byte	0x91
 8435 5a48 00       		.sleb128 0
 8436 5a49 17       		.uleb128 0x17
 8437 5a4a 4A       		.uleb128 0x4a
 8438 5a4b 67010000 		.secrel32	.LASF30
 8439 5a4f 01       		.byte	0x1
 8440 5a50 1801     		.word	0x118
 8441 5a52 07       		.byte	0x7
 8442 5a53 45460000 		.long	0x4645
 8443 5a57 02       		.uleb128 0x2
 8444 5a58 91       		.byte	0x91
 8445 5a59 5C       		.sleb128 -36
 8446 5a5a 4A       		.uleb128 0x4a
 8447 5a5b B3010000 		.secrel32	.LASF31
 8448 5a5f 01       		.byte	0x1
 8449 5a60 1901     		.word	0x119
 8450 5a62 15       		.byte	0x15
 8451 5a63 6D450000 		.long	0x456d
 8452 5a67 02       		.uleb128 0x2
 8453 5a68 91       		.byte	0x91
 8454 5a69 50       		.sleb128 -48
 8455 5a6a 68       		.uleb128 0x68
 8456 5a6b 38000000 		.quad	.LVL0
 8456      00000000 
 8457 5a73 FC810000 		.long	0x81fc
GAS LISTING C:\Users\gabri\AppData\Local\Temp\cc5DSkcw.s 			page 199


 8458 5a77 00       		.byte	0
 8459 5a78 38       		.uleb128 0x38
 8460 5a79 73657462 		.ascii "setbuf\0"
 8460      756600
 8461 5a80 01       		.byte	0x1
 8462 5a81 AD02     		.word	0x2ad
 8463 5a83 10       		.byte	0x10
 8464 5a84 935A0000 		.long	0x5a93
 8465 5a88 01       		.uleb128 0x1
 8466 5a89 FB560000 		.long	0x56fb
 8467 5a8d 01       		.uleb128 0x1
 8468 5a8e 89490000 		.long	0x4989
 8469 5a92 00       		.byte	0
 8470 5a93 03       		.uleb128 0x3
 8471 5a94 73657476 		.ascii "setvbuf\0"
 8471      62756600 
 8472 5a9c 01       		.byte	0x1
 8473 5a9d B102     		.word	0x2b1
 8474 5a9f 0F       		.byte	0xf
 8475 5aa0 45460000 		.long	0x4645
 8476 5aa4 BD5A0000 		.long	0x5abd
 8477 5aa8 01       		.uleb128 0x1
 8478 5aa9 FB560000 		.long	0x56fb
 8479 5aad 01       		.uleb128 0x1
 8480 5aae 89490000 		.long	0x4989
 8481 5ab2 01       		.uleb128 0x1
 8482 5ab3 45460000 		.long	0x4645
 8483 5ab7 01       		.uleb128 0x1
 8484 5ab8 A3450000 		.long	0x45a3
 8485 5abc 00       		.byte	0
 8486 5abd 0F       		.uleb128 0xf
 8487 5abe 73707269 		.ascii "sprintf\0"
 8487      6E746600 
 8488 5ac6 01       		.byte	0x1
 8489 5ac7 6401     		.word	0x164
 8490 5ac9 05       		.byte	0x5
 8491 5aca 5F5A3773 		.ascii "_Z7sprintfPcPKcz\0"
 8491      7072696E 
 8491      74665063 
 8491      504B637A 
 8491      00
 8492 5adb 45460000 		.long	0x4645
 8493 5adf EF5A0000 		.long	0x5aef
 8494 5ae3 01       		.uleb128 0x1
 8495 5ae4 89490000 		.long	0x4989
 8496 5ae8 01       		.uleb128 0x1
 8497 5ae9 B54E0000 		.long	0x4eb5
 8498 5aed 17       		.uleb128 0x17
 8499 5aee 00       		.byte	0
 8500 5aef 0F       		.uleb128 0xf
 8501 5af0 73736361 		.ascii "sscanf\0"
 8501      6E6600
 8502 5af7 01       		.byte	0x1
 8503 5af8 0B01     		.word	0x10b
 8504 5afa 05       		.byte	0x5
 8505 5afb 5F5A3673 		.ascii "_Z6sscanfPKcS0_z\0"
 8505      7363616E 
GAS LISTING C:\Users\gabri\AppData\Local\Temp\cc5DSkcw.s 			page 200


 8505      66504B63 
 8505      53305F7A 
 8505      00
 8506 5b0c 45460000 		.long	0x4645
 8507 5b10 205B0000 		.long	0x5b20
 8508 5b14 01       		.uleb128 0x1
 8509 5b15 B54E0000 		.long	0x4eb5
 8510 5b19 01       		.uleb128 0x1
 8511 5b1a B54E0000 		.long	0x4eb5
 8512 5b1e 17       		.uleb128 0x17
 8513 5b1f 00       		.byte	0
 8514 5b20 49       		.uleb128 0x49
 8515 5b21 746D7066 		.ascii "tmpfile\0"
 8515      696C6500 
 8516 5b29 01       		.byte	0x1
 8517 5b2a CB02     		.word	0x2cb
 8518 5b2c 11       		.byte	0x11
 8519 5b2d FB560000 		.long	0x56fb
 8520 5b31 03       		.uleb128 0x3
 8521 5b32 746D706E 		.ascii "tmpnam\0"
 8521      616D00
 8522 5b39 01       		.byte	0x1
 8523 5b3a CC02     		.word	0x2cc
 8524 5b3c 11       		.byte	0x11
 8525 5b3d 89490000 		.long	0x4989
 8526 5b41 4B5B0000 		.long	0x5b4b
 8527 5b45 01       		.uleb128 0x1
 8528 5b46 89490000 		.long	0x4989
 8529 5b4a 00       		.byte	0
 8530 5b4b 03       		.uleb128 0x3
 8531 5b4c 756E6765 		.ascii "ungetc\0"
 8531      746300
 8532 5b53 01       		.byte	0x1
 8533 5b54 CD02     		.word	0x2cd
 8534 5b56 0F       		.byte	0xf
 8535 5b57 45460000 		.long	0x4645
 8536 5b5b 6A5B0000 		.long	0x5b6a
 8537 5b5f 01       		.uleb128 0x1
 8538 5b60 45460000 		.long	0x4645
 8539 5b64 01       		.uleb128 0x1
 8540 5b65 FB560000 		.long	0x56fb
 8541 5b69 00       		.byte	0
 8542 5b6a 0F       		.uleb128 0xf
 8543 5b6b 76667072 		.ascii "vfprintf\0"
 8543      696E7466 
 8543      00
 8544 5b74 01       		.byte	0x1
 8545 5b75 6F01     		.word	0x16f
 8546 5b77 05       		.byte	0x5
 8547 5b78 5F5A3876 		.ascii "_Z8vfprintfP6_iobufPKcPc\0"
 8547      66707269 
 8547      6E746650 
 8547      365F696F 
 8547      62756650 
 8548 5b91 45460000 		.long	0x4645
 8549 5b95 A95B0000 		.long	0x5ba9
 8550 5b99 01       		.uleb128 0x1
GAS LISTING C:\Users\gabri\AppData\Local\Temp\cc5DSkcw.s 			page 201


 8551 5b9a FB560000 		.long	0x56fb
 8552 5b9e 01       		.uleb128 0x1
 8553 5b9f B54E0000 		.long	0x4eb5
 8554 5ba3 01       		.uleb128 0x1
 8555 5ba4 6D450000 		.long	0x456d
 8556 5ba8 00       		.byte	0
 8557 5ba9 0F       		.uleb128 0xf
 8558 5baa 76707269 		.ascii "vprintf\0"
 8558      6E746600 
 8559 5bb2 01       		.byte	0x1
 8560 5bb3 7601     		.word	0x176
 8561 5bb5 05       		.byte	0x5
 8562 5bb6 5F5A3776 		.ascii "_Z7vprintfPKcPc\0"
 8562      7072696E 
 8562      7466504B 
 8562      63506300 
 8563 5bc6 45460000 		.long	0x4645
 8564 5bca D95B0000 		.long	0x5bd9
 8565 5bce 01       		.uleb128 0x1
 8566 5bcf B54E0000 		.long	0x4eb5
 8567 5bd3 01       		.uleb128 0x1
 8568 5bd4 6D450000 		.long	0x456d
 8569 5bd8 00       		.byte	0
 8570 5bd9 0F       		.uleb128 0xf
 8571 5bda 76737072 		.ascii "vsprintf\0"
 8571      696E7466 
 8571      00
 8572 5be3 01       		.byte	0x1
 8573 5be4 7D01     		.word	0x17d
 8574 5be6 05       		.byte	0x5
 8575 5be7 5F5A3876 		.ascii "_Z8vsprintfPcPKcS_\0"
 8575      73707269 
 8575      6E746650 
 8575      63504B63 
 8575      535F00
 8576 5bfa 45460000 		.long	0x4645
 8577 5bfe 125C0000 		.long	0x5c12
 8578 5c02 01       		.uleb128 0x1
 8579 5c03 89490000 		.long	0x4989
 8580 5c07 01       		.uleb128 0x1
 8581 5c08 B54E0000 		.long	0x4eb5
 8582 5c0c 01       		.uleb128 0x1
 8583 5c0d 6D450000 		.long	0x456d
 8584 5c11 00       		.byte	0
 8585 5c12 0F       		.uleb128 0xf
 8586 5c13 736E7072 		.ascii "snprintf\0"
 8586      696E7466 
 8586      00
 8587 5c1c 01       		.byte	0x1
 8588 5c1d 8401     		.word	0x184
 8589 5c1f 05       		.byte	0x5
 8590 5c20 5F5A3873 		.ascii "_Z8snprintfPcyPKcz\0"
 8590      6E707269 
 8590      6E746650 
 8590      6379504B 
 8590      637A00
 8591 5c33 45460000 		.long	0x4645
GAS LISTING C:\Users\gabri\AppData\Local\Temp\cc5DSkcw.s 			page 202


 8592 5c37 4C5C0000 		.long	0x5c4c
 8593 5c3b 01       		.uleb128 0x1
 8594 5c3c 89490000 		.long	0x4989
 8595 5c40 01       		.uleb128 0x1
 8596 5c41 A3450000 		.long	0x45a3
 8597 5c45 01       		.uleb128 0x1
 8598 5c46 B54E0000 		.long	0x4eb5
 8599 5c4a 17       		.uleb128 0x17
 8600 5c4b 00       		.byte	0
 8601 5c4c 0F       		.uleb128 0xf
 8602 5c4d 76667363 		.ascii "vfscanf\0"
 8602      616E6600 
 8603 5c55 01       		.byte	0x1
 8604 5c56 4001     		.word	0x140
 8605 5c58 05       		.byte	0x5
 8606 5c59 5F5A3776 		.ascii "_Z7vfscanfP6_iobufPKcPc\0"
 8606      66736361 
 8606      6E665036 
 8606      5F696F62 
 8606      7566504B 
 8607 5c71 45460000 		.long	0x4645
 8608 5c75 895C0000 		.long	0x5c89
 8609 5c79 01       		.uleb128 0x1
 8610 5c7a FB560000 		.long	0x56fb
 8611 5c7e 01       		.uleb128 0x1
 8612 5c7f B54E0000 		.long	0x4eb5
 8613 5c83 01       		.uleb128 0x1
 8614 5c84 6D450000 		.long	0x456d
 8615 5c88 00       		.byte	0
 8616 5c89 0F       		.uleb128 0xf
 8617 5c8a 76736361 		.ascii "vscanf\0"
 8617      6E6600
 8618 5c91 01       		.byte	0x1
 8619 5c92 3901     		.word	0x139
 8620 5c94 05       		.byte	0x5
 8621 5c95 5F5A3676 		.ascii "_Z6vscanfPKcPc\0"
 8621      7363616E 
 8621      66504B63 
 8621      506300
 8622 5ca4 45460000 		.long	0x4645
 8623 5ca8 B75C0000 		.long	0x5cb7
 8624 5cac 01       		.uleb128 0x1
 8625 5cad B54E0000 		.long	0x4eb5
 8626 5cb1 01       		.uleb128 0x1
 8627 5cb2 6D450000 		.long	0x456d
 8628 5cb6 00       		.byte	0
 8629 5cb7 0F       		.uleb128 0xf
 8630 5cb8 76736E70 		.ascii "vsnprintf\0"
 8630      72696E74 
 8630      6600
 8631 5cc2 01       		.byte	0x1
 8632 5cc3 8F01     		.word	0x18f
 8633 5cc5 05       		.byte	0x5
 8634 5cc6 5F5A3976 		.ascii "_Z9vsnprintfPcyPKcS_\0"
 8634      736E7072 
 8634      696E7466 
 8634      50637950 
GAS LISTING C:\Users\gabri\AppData\Local\Temp\cc5DSkcw.s 			page 203


 8634      4B63535F 
 8635 5cdb 45460000 		.long	0x4645
 8636 5cdf F85C0000 		.long	0x5cf8
 8637 5ce3 01       		.uleb128 0x1
 8638 5ce4 89490000 		.long	0x4989
 8639 5ce8 01       		.uleb128 0x1
 8640 5ce9 A3450000 		.long	0x45a3
 8641 5ced 01       		.uleb128 0x1
 8642 5cee B54E0000 		.long	0x4eb5
 8643 5cf2 01       		.uleb128 0x1
 8644 5cf3 6D450000 		.long	0x456d
 8645 5cf7 00       		.byte	0
 8646 5cf8 0F       		.uleb128 0xf
 8647 5cf9 76737363 		.ascii "vsscanf\0"
 8647      616E6600 
 8648 5d01 01       		.byte	0x1
 8649 5d02 3201     		.word	0x132
 8650 5d04 05       		.byte	0x5
 8651 5d05 5F5A3776 		.ascii "_Z7vsscanfPKcS0_Pc\0"
 8651      73736361 
 8651      6E66504B 
 8651      6353305F 
 8651      506300
 8652 5d18 45460000 		.long	0x4645
 8653 5d1c 305D0000 		.long	0x5d30
 8654 5d20 01       		.uleb128 0x1
 8655 5d21 B54E0000 		.long	0x4eb5
 8656 5d25 01       		.uleb128 0x1
 8657 5d26 B54E0000 		.long	0x4eb5
 8658 5d2a 01       		.uleb128 0x1
 8659 5d2b 6D450000 		.long	0x456d
 8660 5d2f 00       		.byte	0
 8661 5d30 0B       		.uleb128 0xb
 8662 5d31 73747263 		.ascii "strcoll\0"
 8662      6F6C6C00 
 8663 5d39 40       		.byte	0x40
 8664 5d3a 48       		.byte	0x48
 8665 5d3b 0F       		.byte	0xf
 8666 5d3c 45460000 		.long	0x4645
 8667 5d40 4F5D0000 		.long	0x5d4f
 8668 5d44 01       		.uleb128 0x1
 8669 5d45 B54E0000 		.long	0x4eb5
 8670 5d49 01       		.uleb128 0x1
 8671 5d4a B54E0000 		.long	0x4eb5
 8672 5d4e 00       		.byte	0
 8673 5d4f 0B       		.uleb128 0xb
 8674 5d50 73747265 		.ascii "strerror\0"
 8674      72726F72 
 8674      00
 8675 5d59 40       		.byte	0x40
 8676 5d5a 52       		.byte	0x52
 8677 5d5b 11       		.byte	0x11
 8678 5d5c 89490000 		.long	0x4989
 8679 5d60 6A5D0000 		.long	0x5d6a
 8680 5d64 01       		.uleb128 0x1
 8681 5d65 45460000 		.long	0x4645
 8682 5d69 00       		.byte	0
GAS LISTING C:\Users\gabri\AppData\Local\Temp\cc5DSkcw.s 			page 204


 8683 5d6a 0B       		.uleb128 0xb
 8684 5d6b 73747274 		.ascii "strtok\0"
 8684      6F6B00
 8685 5d72 40       		.byte	0x40
 8686 5d73 61       		.byte	0x61
 8687 5d74 11       		.byte	0x11
 8688 5d75 89490000 		.long	0x4989
 8689 5d79 885D0000 		.long	0x5d88
 8690 5d7d 01       		.uleb128 0x1
 8691 5d7e 89490000 		.long	0x4989
 8692 5d82 01       		.uleb128 0x1
 8693 5d83 B54E0000 		.long	0x4eb5
 8694 5d87 00       		.byte	0
 8695 5d88 0B       		.uleb128 0xb
 8696 5d89 73747278 		.ascii "strxfrm\0"
 8696      66726D00 
 8697 5d91 40       		.byte	0x40
 8698 5d92 68       		.byte	0x68
 8699 5d93 12       		.byte	0x12
 8700 5d94 A3450000 		.long	0x45a3
 8701 5d98 AC5D0000 		.long	0x5dac
 8702 5d9c 01       		.uleb128 0x1
 8703 5d9d 89490000 		.long	0x4989
 8704 5da1 01       		.uleb128 0x1
 8705 5da2 B54E0000 		.long	0x4eb5
 8706 5da6 01       		.uleb128 0x1
 8707 5da7 A3450000 		.long	0x45a3
 8708 5dab 00       		.byte	0
 8709 5dac 08       		.uleb128 0x8
 8710 5dad 636C6F63 		.ascii "clock_t\0"
 8710      6B5F7400 
 8711 5db5 41       		.byte	0x41
 8712 5db6 3C       		.byte	0x3c
 8713 5db7 10       		.byte	0x10
 8714 5db8 51460000 		.long	0x4651
 8715 5dbc 10       		.uleb128 0x10
 8716 5dbd 746D00   		.ascii "tm\0"
 8717 5dc0 24       		.byte	0x24
 8718 5dc1 41       		.byte	0x41
 8719 5dc2 61       		.byte	0x61
 8720 5dc3 0A       		.byte	0xa
 8721 5dc4 605E0000 		.long	0x5e60
 8722 5dc8 07       		.uleb128 0x7
 8723 5dc9 746D5F73 		.ascii "tm_sec\0"
 8723      656300
 8724 5dd0 41       		.byte	0x41
 8725 5dd1 62       		.byte	0x62
 8726 5dd2 09       		.byte	0x9
 8727 5dd3 45460000 		.long	0x4645
 8728 5dd7 00       		.byte	0
 8729 5dd8 07       		.uleb128 0x7
 8730 5dd9 746D5F6D 		.ascii "tm_min\0"
 8730      696E00
 8731 5de0 41       		.byte	0x41
 8732 5de1 63       		.byte	0x63
 8733 5de2 09       		.byte	0x9
 8734 5de3 45460000 		.long	0x4645
GAS LISTING C:\Users\gabri\AppData\Local\Temp\cc5DSkcw.s 			page 205


 8735 5de7 04       		.byte	0x4
 8736 5de8 07       		.uleb128 0x7
 8737 5de9 746D5F68 		.ascii "tm_hour\0"
 8737      6F757200 
 8738 5df1 41       		.byte	0x41
 8739 5df2 64       		.byte	0x64
 8740 5df3 09       		.byte	0x9
 8741 5df4 45460000 		.long	0x4645
 8742 5df8 08       		.byte	0x8
 8743 5df9 07       		.uleb128 0x7
 8744 5dfa 746D5F6D 		.ascii "tm_mday\0"
 8744      64617900 
 8745 5e02 41       		.byte	0x41
 8746 5e03 65       		.byte	0x65
 8747 5e04 09       		.byte	0x9
 8748 5e05 45460000 		.long	0x4645
 8749 5e09 0C       		.byte	0xc
 8750 5e0a 07       		.uleb128 0x7
 8751 5e0b 746D5F6D 		.ascii "tm_mon\0"
 8751      6F6E00
 8752 5e12 41       		.byte	0x41
 8753 5e13 66       		.byte	0x66
 8754 5e14 09       		.byte	0x9
 8755 5e15 45460000 		.long	0x4645
 8756 5e19 10       		.byte	0x10
 8757 5e1a 07       		.uleb128 0x7
 8758 5e1b 746D5F79 		.ascii "tm_year\0"
 8758      65617200 
 8759 5e23 41       		.byte	0x41
 8760 5e24 67       		.byte	0x67
 8761 5e25 09       		.byte	0x9
 8762 5e26 45460000 		.long	0x4645
 8763 5e2a 14       		.byte	0x14
 8764 5e2b 07       		.uleb128 0x7
 8765 5e2c 746D5F77 		.ascii "tm_wday\0"
 8765      64617900 
 8766 5e34 41       		.byte	0x41
 8767 5e35 68       		.byte	0x68
 8768 5e36 09       		.byte	0x9
 8769 5e37 45460000 		.long	0x4645
 8770 5e3b 18       		.byte	0x18
 8771 5e3c 07       		.uleb128 0x7
 8772 5e3d 746D5F79 		.ascii "tm_yday\0"
 8772      64617900 
 8773 5e45 41       		.byte	0x41
 8774 5e46 69       		.byte	0x69
 8775 5e47 09       		.byte	0x9
 8776 5e48 45460000 		.long	0x4645
 8777 5e4c 1C       		.byte	0x1c
 8778 5e4d 07       		.uleb128 0x7
 8779 5e4e 746D5F69 		.ascii "tm_isdst\0"
 8779      73647374 
 8779      00
 8780 5e57 41       		.byte	0x41
 8781 5e58 6A       		.byte	0x6a
 8782 5e59 09       		.byte	0x9
 8783 5e5a 45460000 		.long	0x4645
GAS LISTING C:\Users\gabri\AppData\Local\Temp\cc5DSkcw.s 			page 206


 8784 5e5e 20       		.byte	0x20
 8785 5e5f 00       		.byte	0
 8786 5e60 04       		.uleb128 0x4
 8787 5e61 BC5D0000 		.long	0x5dbc
 8788 5e65 14       		.uleb128 0x14
 8789 5e66 5F646179 		.ascii "_daylight\0"
 8789      6C696768 
 8789      7400
 8790 5e70 41       		.byte	0x41
 8791 5e71 7A       		.byte	0x7a
 8792 5e72 16       		.byte	0x16
 8793 5e73 45460000 		.long	0x4645
 8794 5e77 14       		.uleb128 0x14
 8795 5e78 5F647374 		.ascii "_dstbias\0"
 8795      62696173 
 8795      00
 8796 5e81 41       		.byte	0x41
 8797 5e82 7B       		.byte	0x7b
 8798 5e83 17       		.byte	0x17
 8799 5e84 51460000 		.long	0x4651
 8800 5e88 14       		.uleb128 0x14
 8801 5e89 5F74696D 		.ascii "_timezone\0"
 8801      657A6F6E 
 8801      6500
 8802 5e93 41       		.byte	0x41
 8803 5e94 7C       		.byte	0x7c
 8804 5e95 17       		.byte	0x17
 8805 5e96 51460000 		.long	0x4651
 8806 5e9a 29       		.uleb128 0x29
 8807 5e9b 89490000 		.long	0x4989
 8808 5e9f AA5E0000 		.long	0x5eaa
 8809 5ea3 2F       		.uleb128 0x2f
 8810 5ea4 B2450000 		.long	0x45b2
 8811 5ea8 01       		.byte	0x1
 8812 5ea9 00       		.byte	0
 8813 5eaa 14       		.uleb128 0x14
 8814 5eab 5F747A6E 		.ascii "_tzname\0"
 8814      616D6500 
 8815 5eb3 41       		.byte	0x41
 8816 5eb4 7D       		.byte	0x7d
 8817 5eb5 19       		.byte	0x19
 8818 5eb6 9A5E0000 		.long	0x5e9a
 8819 5eba 15       		.uleb128 0x15
 8820 5ebb 6461796C 		.ascii "daylight\0"
 8820      69676874 
 8820      00
 8821 5ec4 41       		.byte	0x41
 8822 5ec5 1601     		.word	0x116
 8823 5ec7 16       		.byte	0x16
 8824 5ec8 45460000 		.long	0x4645
 8825 5ecc 15       		.uleb128 0x15
 8826 5ecd 74696D65 		.ascii "timezone\0"
 8826      7A6F6E65 
 8826      00
 8827 5ed6 41       		.byte	0x41
 8828 5ed7 1901     		.word	0x119
 8829 5ed9 17       		.byte	0x17
GAS LISTING C:\Users\gabri\AppData\Local\Temp\cc5DSkcw.s 			page 207


 8830 5eda 51460000 		.long	0x4651
 8831 5ede 15       		.uleb128 0x15
 8832 5edf 747A6E61 		.ascii "tzname\0"
 8832      6D6500
 8833 5ee6 41       		.byte	0x41
 8834 5ee7 1A01     		.word	0x11a
 8835 5ee9 18       		.byte	0x18
 8836 5eea 9A5E0000 		.long	0x5e9a
 8837 5eee 63       		.uleb128 0x63
 8838 5eef 636C6F63 		.ascii "clock\0"
 8838      6B00
 8839 5ef5 41       		.byte	0x41
 8840 5ef6 88       		.byte	0x88
 8841 5ef7 13       		.byte	0x13
 8842 5ef8 AC5D0000 		.long	0x5dac
 8843 5efc 0B       		.uleb128 0xb
 8844 5efd 64696666 		.ascii "difftime\0"
 8844      74696D65 
 8844      00
 8845 5f06 41       		.byte	0x41
 8846 5f07 DA       		.byte	0xda
 8847 5f08 10       		.byte	0x10
 8848 5f09 714C0000 		.long	0x4c71
 8849 5f0d 1C5F0000 		.long	0x5f1c
 8850 5f11 01       		.uleb128 0x1
 8851 5f12 70460000 		.long	0x4670
 8852 5f16 01       		.uleb128 0x1
 8853 5f17 70460000 		.long	0x4670
 8854 5f1b 00       		.byte	0
 8855 5f1c 0B       		.uleb128 0xb
 8856 5f1d 6D6B7469 		.ascii "mktime\0"
 8856      6D6500
 8857 5f24 41       		.byte	0x41
 8858 5f25 DF       		.byte	0xdf
 8859 5f26 10       		.byte	0x10
 8860 5f27 70460000 		.long	0x4670
 8861 5f2b 355F0000 		.long	0x5f35
 8862 5f2f 01       		.uleb128 0x1
 8863 5f30 355F0000 		.long	0x5f35
 8864 5f34 00       		.byte	0
 8865 5f35 05       		.uleb128 0x5
 8866 5f36 08       		.byte	0x8
 8867 5f37 BC5D0000 		.long	0x5dbc
 8868 5f3b 0B       		.uleb128 0xb
 8869 5f3c 74696D65 		.ascii "time\0"
 8869      00
 8870 5f41 41       		.byte	0x41
 8871 5f42 E1       		.byte	0xe1
 8872 5f43 10       		.byte	0x10
 8873 5f44 70460000 		.long	0x4670
 8874 5f48 525F0000 		.long	0x5f52
 8875 5f4c 01       		.uleb128 0x1
 8876 5f4d 525F0000 		.long	0x5f52
 8877 5f51 00       		.byte	0
 8878 5f52 05       		.uleb128 0x5
 8879 5f53 08       		.byte	0x8
 8880 5f54 70460000 		.long	0x4670
GAS LISTING C:\Users\gabri\AppData\Local\Temp\cc5DSkcw.s 			page 208


 8881 5f58 0B       		.uleb128 0xb
 8882 5f59 61736374 		.ascii "asctime\0"
 8882      696D6500 
 8883 5f61 41       		.byte	0x41
 8884 5f62 84       		.byte	0x84
 8885 5f63 11       		.byte	0x11
 8886 5f64 89490000 		.long	0x4989
 8887 5f68 725F0000 		.long	0x5f72
 8888 5f6c 01       		.uleb128 0x1
 8889 5f6d 725F0000 		.long	0x5f72
 8890 5f71 00       		.byte	0
 8891 5f72 05       		.uleb128 0x5
 8892 5f73 08       		.byte	0x8
 8893 5f74 605E0000 		.long	0x5e60
 8894 5f78 0B       		.uleb128 0xb
 8895 5f79 6374696D 		.ascii "ctime\0"
 8895      6500
 8896 5f7f 41       		.byte	0x41
 8897 5f80 DB       		.byte	0xdb
 8898 5f81 0F       		.byte	0xf
 8899 5f82 89490000 		.long	0x4989
 8900 5f86 905F0000 		.long	0x5f90
 8901 5f8a 01       		.uleb128 0x1
 8902 5f8b 905F0000 		.long	0x5f90
 8903 5f8f 00       		.byte	0
 8904 5f90 05       		.uleb128 0x5
 8905 5f91 08       		.byte	0x8
 8906 5f92 7F460000 		.long	0x467f
 8907 5f96 0B       		.uleb128 0xb
 8908 5f97 676D7469 		.ascii "gmtime\0"
 8908      6D6500
 8909 5f9e 41       		.byte	0x41
 8910 5f9f DC       		.byte	0xdc
 8911 5fa0 14       		.byte	0x14
 8912 5fa1 355F0000 		.long	0x5f35
 8913 5fa5 AF5F0000 		.long	0x5faf
 8914 5fa9 01       		.uleb128 0x1
 8915 5faa 905F0000 		.long	0x5f90
 8916 5fae 00       		.byte	0
 8917 5faf 0B       		.uleb128 0xb
 8918 5fb0 6C6F6361 		.ascii "localtime\0"
 8918      6C74696D 
 8918      6500
 8919 5fba 41       		.byte	0x41
 8920 5fbb DD       		.byte	0xdd
 8921 5fbc 14       		.byte	0x14
 8922 5fbd 355F0000 		.long	0x5f35
 8923 5fc1 CB5F0000 		.long	0x5fcb
 8924 5fc5 01       		.uleb128 0x1
 8925 5fc6 905F0000 		.long	0x5f90
 8926 5fca 00       		.byte	0
 8927 5fcb 2E       		.uleb128 0x2e
 8928 5fcc 6D627374 		.ascii "mbstate_t\0"
 8928      6174655F 
 8928      7400
 8929 5fd6 42       		.byte	0x42
 8930 5fd7 8805     		.word	0x588
GAS LISTING C:\Users\gabri\AppData\Local\Temp\cc5DSkcw.s 			page 209


 8931 5fd9 0F       		.byte	0xf
 8932 5fda 45460000 		.long	0x4645
 8933 5fde 04       		.uleb128 0x4
 8934 5fdf CB5F0000 		.long	0x5fcb
 8935 5fe3 03       		.uleb128 0x3
 8936 5fe4 62746F77 		.ascii "btowc\0"
 8936      6300
 8937 5fea 42       		.byte	0x42
 8938 5feb 8B05     		.word	0x58b
 8939 5fed 12       		.byte	0x12
 8940 5fee 0A460000 		.long	0x460a
 8941 5ff2 FC5F0000 		.long	0x5ffc
 8942 5ff6 01       		.uleb128 0x1
 8943 5ff7 45460000 		.long	0x4645
 8944 5ffb 00       		.byte	0
 8945 5ffc 03       		.uleb128 0x3
 8946 5ffd 66676574 		.ascii "fgetwc\0"
 8946      776300
 8947 6004 01       		.byte	0x1
 8948 6005 5404     		.word	0x454
 8949 6007 12       		.byte	0x12
 8950 6008 0A460000 		.long	0x460a
 8951 600c 16600000 		.long	0x6016
 8952 6010 01       		.uleb128 0x1
 8953 6011 FB560000 		.long	0x56fb
 8954 6015 00       		.byte	0
 8955 6016 03       		.uleb128 0x3
 8956 6017 66676574 		.ascii "fgetws\0"
 8956      777300
 8957 601e 01       		.byte	0x1
 8958 601f 5D04     		.word	0x45d
 8959 6021 14       		.byte	0x14
 8960 6022 8F490000 		.long	0x498f
 8961 6026 3A600000 		.long	0x603a
 8962 602a 01       		.uleb128 0x1
 8963 602b 8F490000 		.long	0x498f
 8964 602f 01       		.uleb128 0x1
 8965 6030 45460000 		.long	0x4645
 8966 6034 01       		.uleb128 0x1
 8967 6035 FB560000 		.long	0x56fb
 8968 6039 00       		.byte	0
 8969 603a 03       		.uleb128 0x3
 8970 603b 66707574 		.ascii "fputwc\0"
 8970      776300
 8971 6042 01       		.byte	0x1
 8972 6043 5604     		.word	0x456
 8973 6045 12       		.byte	0x12
 8974 6046 0A460000 		.long	0x460a
 8975 604a 59600000 		.long	0x6059
 8976 604e 01       		.uleb128 0x1
 8977 604f 95490000 		.long	0x4995
 8978 6053 01       		.uleb128 0x1
 8979 6054 FB560000 		.long	0x56fb
 8980 6058 00       		.byte	0
 8981 6059 03       		.uleb128 0x3
 8982 605a 66707574 		.ascii "fputws\0"
 8982      777300
GAS LISTING C:\Users\gabri\AppData\Local\Temp\cc5DSkcw.s 			page 210


 8983 6061 01       		.byte	0x1
 8984 6062 5E04     		.word	0x45e
 8985 6064 0F       		.byte	0xf
 8986 6065 45460000 		.long	0x4645
 8987 6069 78600000 		.long	0x6078
 8988 606d 01       		.uleb128 0x1
 8989 606e B64C0000 		.long	0x4cb6
 8990 6072 01       		.uleb128 0x1
 8991 6073 FB560000 		.long	0x56fb
 8992 6077 00       		.byte	0
 8993 6078 03       		.uleb128 0x3
 8994 6079 66776964 		.ascii "fwide\0"
 8994      6500
 8995 607f 42       		.byte	0x42
 8996 6080 9A05     		.word	0x59a
 8997 6082 0F       		.byte	0xf
 8998 6083 45460000 		.long	0x4645
 8999 6087 96600000 		.long	0x6096
 9000 608b 01       		.uleb128 0x1
 9001 608c FB560000 		.long	0x56fb
 9002 6090 01       		.uleb128 0x1
 9003 6091 45460000 		.long	0x4645
 9004 6095 00       		.byte	0
 9005 6096 03       		.uleb128 0x3
 9006 6097 66777072 		.ascii "fwprintf\0"
 9006      696E7466 
 9006      00
 9007 60a0 01       		.byte	0x1
 9008 60a1 9A03     		.word	0x39a
 9009 60a3 05       		.byte	0x5
 9010 60a4 45460000 		.long	0x4645
 9011 60a8 B8600000 		.long	0x60b8
 9012 60ac 01       		.uleb128 0x1
 9013 60ad FB560000 		.long	0x56fb
 9014 60b1 01       		.uleb128 0x1
 9015 60b2 B64C0000 		.long	0x4cb6
 9016 60b6 17       		.uleb128 0x17
 9017 60b7 00       		.byte	0
 9018 60b8 03       		.uleb128 0x3
 9019 60b9 66777363 		.ascii "fwscanf\0"
 9019      616E6600 
 9020 60c1 01       		.byte	0x1
 9021 60c2 7603     		.word	0x376
 9022 60c4 05       		.byte	0x5
 9023 60c5 45460000 		.long	0x4645
 9024 60c9 D9600000 		.long	0x60d9
 9025 60cd 01       		.uleb128 0x1
 9026 60ce FB560000 		.long	0x56fb
 9027 60d2 01       		.uleb128 0x1
 9028 60d3 B64C0000 		.long	0x4cb6
 9029 60d7 17       		.uleb128 0x17
 9030 60d8 00       		.byte	0
 9031 60d9 03       		.uleb128 0x3
 9032 60da 67657477 		.ascii "getwc\0"
 9032      6300
 9033 60e0 01       		.byte	0x1
 9034 60e1 5804     		.word	0x458
GAS LISTING C:\Users\gabri\AppData\Local\Temp\cc5DSkcw.s 			page 211


 9035 60e3 12       		.byte	0x12
 9036 60e4 0A460000 		.long	0x460a
 9037 60e8 F2600000 		.long	0x60f2
 9038 60ec 01       		.uleb128 0x1
 9039 60ed FB560000 		.long	0x56fb
 9040 60f1 00       		.byte	0
 9041 60f2 49       		.uleb128 0x49
 9042 60f3 67657477 		.ascii "getwchar\0"
 9042      63686172 
 9042      00
 9043 60fc 01       		.byte	0x1
 9044 60fd 5904     		.word	0x459
 9045 60ff 12       		.byte	0x12
 9046 6100 0A460000 		.long	0x460a
 9047 6104 03       		.uleb128 0x3
 9048 6105 6D62726C 		.ascii "mbrlen\0"
 9048      656E00
 9049 610c 42       		.byte	0x42
 9050 610d 8C05     		.word	0x58c
 9051 610f 12       		.byte	0x12
 9052 6110 A3450000 		.long	0x45a3
 9053 6114 28610000 		.long	0x6128
 9054 6118 01       		.uleb128 0x1
 9055 6119 B54E0000 		.long	0x4eb5
 9056 611d 01       		.uleb128 0x1
 9057 611e A3450000 		.long	0x45a3
 9058 6122 01       		.uleb128 0x1
 9059 6123 28610000 		.long	0x6128
 9060 6127 00       		.byte	0
 9061 6128 05       		.uleb128 0x5
 9062 6129 08       		.byte	0x8
 9063 612a CB5F0000 		.long	0x5fcb
 9064 612e 03       		.uleb128 0x3
 9065 612f 6D627274 		.ascii "mbrtowc\0"
 9065      6F776300 
 9066 6137 42       		.byte	0x42
 9067 6138 8D05     		.word	0x58d
 9068 613a 12       		.byte	0x12
 9069 613b A3450000 		.long	0x45a3
 9070 613f 58610000 		.long	0x6158
 9071 6143 01       		.uleb128 0x1
 9072 6144 8F490000 		.long	0x498f
 9073 6148 01       		.uleb128 0x1
 9074 6149 B54E0000 		.long	0x4eb5
 9075 614d 01       		.uleb128 0x1
 9076 614e A3450000 		.long	0x45a3
 9077 6152 01       		.uleb128 0x1
 9078 6153 28610000 		.long	0x6128
 9079 6157 00       		.byte	0
 9080 6158 03       		.uleb128 0x3
 9081 6159 6D627369 		.ascii "mbsinit\0"
 9081      6E697400 
 9082 6161 42       		.byte	0x42
 9083 6162 9B05     		.word	0x59b
 9084 6164 0F       		.byte	0xf
 9085 6165 45460000 		.long	0x4645
 9086 6169 73610000 		.long	0x6173
GAS LISTING C:\Users\gabri\AppData\Local\Temp\cc5DSkcw.s 			page 212


 9087 616d 01       		.uleb128 0x1
 9088 616e 73610000 		.long	0x6173
 9089 6172 00       		.byte	0
 9090 6173 05       		.uleb128 0x5
 9091 6174 08       		.byte	0x8
 9092 6175 DE5F0000 		.long	0x5fde
 9093 6179 03       		.uleb128 0x3
 9094 617a 6D627372 		.ascii "mbsrtowcs\0"
 9094      746F7763 
 9094      7300
 9095 6184 42       		.byte	0x42
 9096 6185 8E05     		.word	0x58e
 9097 6187 12       		.byte	0x12
 9098 6188 A3450000 		.long	0x45a3
 9099 618c A5610000 		.long	0x61a5
 9100 6190 01       		.uleb128 0x1
 9101 6191 8F490000 		.long	0x498f
 9102 6195 01       		.uleb128 0x1
 9103 6196 A5610000 		.long	0x61a5
 9104 619a 01       		.uleb128 0x1
 9105 619b A3450000 		.long	0x45a3
 9106 619f 01       		.uleb128 0x1
 9107 61a0 28610000 		.long	0x6128
 9108 61a4 00       		.byte	0
 9109 61a5 05       		.uleb128 0x5
 9110 61a6 08       		.byte	0x8
 9111 61a7 B54E0000 		.long	0x4eb5
 9112 61ab 03       		.uleb128 0x3
 9113 61ac 70757477 		.ascii "putwc\0"
 9113      6300
 9114 61b2 01       		.byte	0x1
 9115 61b3 5A04     		.word	0x45a
 9116 61b5 12       		.byte	0x12
 9117 61b6 0A460000 		.long	0x460a
 9118 61ba C9610000 		.long	0x61c9
 9119 61be 01       		.uleb128 0x1
 9120 61bf 95490000 		.long	0x4995
 9121 61c3 01       		.uleb128 0x1
 9122 61c4 FB560000 		.long	0x56fb
 9123 61c8 00       		.byte	0
 9124 61c9 03       		.uleb128 0x3
 9125 61ca 70757477 		.ascii "putwchar\0"
 9125      63686172 
 9125      00
 9126 61d3 01       		.byte	0x1
 9127 61d4 5B04     		.word	0x45b
 9128 61d6 12       		.byte	0x12
 9129 61d7 0A460000 		.long	0x460a
 9130 61db E5610000 		.long	0x61e5
 9131 61df 01       		.uleb128 0x1
 9132 61e0 95490000 		.long	0x4995
 9133 61e4 00       		.byte	0
 9134 61e5 4B       		.uleb128 0x4b
 9135 61e6 98010000 		.secrel32	.LASF33
 9136 61ea 43       		.byte	0x43
 9137 61eb 3E       		.byte	0x3e
 9138 61ec 05       		.byte	0x5
GAS LISTING C:\Users\gabri\AppData\Local\Temp\cc5DSkcw.s 			page 213


 9139 61ed 45460000 		.long	0x4645
 9140 61f1 01620000 		.long	0x6201
 9141 61f5 01       		.uleb128 0x1
 9142 61f6 8F490000 		.long	0x498f
 9143 61fa 01       		.uleb128 0x1
 9144 61fb B64C0000 		.long	0x4cb6
 9145 61ff 17       		.uleb128 0x17
 9146 6200 00       		.byte	0
 9147 6201 4B       		.uleb128 0x4b
 9148 6202 98010000 		.secrel32	.LASF33
 9149 6206 43       		.byte	0x43
 9150 6207 22       		.byte	0x22
 9151 6208 05       		.byte	0x5
 9152 6209 45460000 		.long	0x4645
 9153 620d 22620000 		.long	0x6222
 9154 6211 01       		.uleb128 0x1
 9155 6212 8F490000 		.long	0x498f
 9156 6216 01       		.uleb128 0x1
 9157 6217 A3450000 		.long	0x45a3
 9158 621b 01       		.uleb128 0x1
 9159 621c B64C0000 		.long	0x4cb6
 9160 6220 17       		.uleb128 0x17
 9161 6221 00       		.byte	0
 9162 6222 03       		.uleb128 0x3
 9163 6223 73777363 		.ascii "swscanf\0"
 9163      616E6600 
 9164 622b 01       		.byte	0x1
 9165 622c 6003     		.word	0x360
 9166 622e 05       		.byte	0x5
 9167 622f 45460000 		.long	0x4645
 9168 6233 43620000 		.long	0x6243
 9169 6237 01       		.uleb128 0x1
 9170 6238 B64C0000 		.long	0x4cb6
 9171 623c 01       		.uleb128 0x1
 9172 623d B64C0000 		.long	0x4cb6
 9173 6241 17       		.uleb128 0x17
 9174 6242 00       		.byte	0
 9175 6243 03       		.uleb128 0x3
 9176 6244 756E6765 		.ascii "ungetwc\0"
 9176      74776300 
 9177 624c 01       		.byte	0x1
 9178 624d 5C04     		.word	0x45c
 9179 624f 12       		.byte	0x12
 9180 6250 0A460000 		.long	0x460a
 9181 6254 63620000 		.long	0x6263
 9182 6258 01       		.uleb128 0x1
 9183 6259 0A460000 		.long	0x460a
 9184 625d 01       		.uleb128 0x1
 9185 625e FB560000 		.long	0x56fb
 9186 6262 00       		.byte	0
 9187 6263 03       		.uleb128 0x3
 9188 6264 76667770 		.ascii "vfwprintf\0"
 9188      72696E74 
 9188      6600
 9189 626e 01       		.byte	0x1
 9190 626f B003     		.word	0x3b0
 9191 6271 05       		.byte	0x5
GAS LISTING C:\Users\gabri\AppData\Local\Temp\cc5DSkcw.s 			page 214


 9192 6272 45460000 		.long	0x4645
 9193 6276 8A620000 		.long	0x628a
 9194 627a 01       		.uleb128 0x1
 9195 627b FB560000 		.long	0x56fb
 9196 627f 01       		.uleb128 0x1
 9197 6280 B64C0000 		.long	0x4cb6
 9198 6284 01       		.uleb128 0x1
 9199 6285 6D450000 		.long	0x456d
 9200 6289 00       		.byte	0
 9201 628a 03       		.uleb128 0x3
 9202 628b 76667773 		.ascii "vfwscanf\0"
 9202      63616E66 
 9202      00
 9203 6294 01       		.byte	0x1
 9204 6295 9003     		.word	0x390
 9205 6297 05       		.byte	0x5
 9206 6298 45460000 		.long	0x4645
 9207 629c B0620000 		.long	0x62b0
 9208 62a0 01       		.uleb128 0x1
 9209 62a1 FB560000 		.long	0x56fb
 9210 62a5 01       		.uleb128 0x1
 9211 62a6 B64C0000 		.long	0x4cb6
 9212 62aa 01       		.uleb128 0x1
 9213 62ab 6D450000 		.long	0x456d
 9214 62af 00       		.byte	0
 9215 62b0 4B       		.uleb128 0x4b
 9216 62b1 00000000 		.secrel32	.LASF34
 9217 62b5 43       		.byte	0x43
 9218 62b6 33       		.byte	0x33
 9219 62b7 05       		.byte	0x5
 9220 62b8 45460000 		.long	0x4645
 9221 62bc D0620000 		.long	0x62d0
 9222 62c0 01       		.uleb128 0x1
 9223 62c1 8F490000 		.long	0x498f
 9224 62c5 01       		.uleb128 0x1
 9225 62c6 B64C0000 		.long	0x4cb6
 9226 62ca 01       		.uleb128 0x1
 9227 62cb 6D450000 		.long	0x456d
 9228 62cf 00       		.byte	0
 9229 62d0 4B       		.uleb128 0x4b
 9230 62d1 00000000 		.secrel32	.LASF34
 9231 62d5 43       		.byte	0x43
 9232 62d6 1B       		.byte	0x1b
 9233 62d7 05       		.byte	0x5
 9234 62d8 45460000 		.long	0x4645
 9235 62dc F5620000 		.long	0x62f5
 9236 62e0 01       		.uleb128 0x1
 9237 62e1 8F490000 		.long	0x498f
 9238 62e5 01       		.uleb128 0x1
 9239 62e6 A3450000 		.long	0x45a3
 9240 62ea 01       		.uleb128 0x1
 9241 62eb B64C0000 		.long	0x4cb6
 9242 62ef 01       		.uleb128 0x1
 9243 62f0 6D450000 		.long	0x456d
 9244 62f4 00       		.byte	0
 9245 62f5 03       		.uleb128 0x3
 9246 62f6 76737773 		.ascii "vswscanf\0"
GAS LISTING C:\Users\gabri\AppData\Local\Temp\cc5DSkcw.s 			page 215


 9246      63616E66 
 9246      00
 9247 62ff 01       		.byte	0x1
 9248 6300 8203     		.word	0x382
 9249 6302 05       		.byte	0x5
 9250 6303 45460000 		.long	0x4645
 9251 6307 1B630000 		.long	0x631b
 9252 630b 01       		.uleb128 0x1
 9253 630c B64C0000 		.long	0x4cb6
 9254 6310 01       		.uleb128 0x1
 9255 6311 B64C0000 		.long	0x4cb6
 9256 6315 01       		.uleb128 0x1
 9257 6316 6D450000 		.long	0x456d
 9258 631a 00       		.byte	0
 9259 631b 03       		.uleb128 0x3
 9260 631c 76777072 		.ascii "vwprintf\0"
 9260      696E7466 
 9260      00
 9261 6325 01       		.byte	0x1
 9262 6326 B703     		.word	0x3b7
 9263 6328 05       		.byte	0x5
 9264 6329 45460000 		.long	0x4645
 9265 632d 3C630000 		.long	0x633c
 9266 6331 01       		.uleb128 0x1
 9267 6332 B64C0000 		.long	0x4cb6
 9268 6336 01       		.uleb128 0x1
 9269 6337 6D450000 		.long	0x456d
 9270 633b 00       		.byte	0
 9271 633c 03       		.uleb128 0x3
 9272 633d 76777363 		.ascii "vwscanf\0"
 9272      616E6600 
 9273 6345 01       		.byte	0x1
 9274 6346 8903     		.word	0x389
 9275 6348 05       		.byte	0x5
 9276 6349 45460000 		.long	0x4645
 9277 634d 5C630000 		.long	0x635c
 9278 6351 01       		.uleb128 0x1
 9279 6352 B64C0000 		.long	0x4cb6
 9280 6356 01       		.uleb128 0x1
 9281 6357 6D450000 		.long	0x456d
 9282 635b 00       		.byte	0
 9283 635c 03       		.uleb128 0x3
 9284 635d 77637274 		.ascii "wcrtomb\0"
 9284      6F6D6200 
 9285 6365 42       		.byte	0x42
 9286 6366 8F05     		.word	0x58f
 9287 6368 12       		.byte	0x12
 9288 6369 A3450000 		.long	0x45a3
 9289 636d 81630000 		.long	0x6381
 9290 6371 01       		.uleb128 0x1
 9291 6372 89490000 		.long	0x4989
 9292 6376 01       		.uleb128 0x1
 9293 6377 95490000 		.long	0x4995
 9294 637b 01       		.uleb128 0x1
 9295 637c 28610000 		.long	0x6128
 9296 6380 00       		.byte	0
 9297 6381 0B       		.uleb128 0xb
GAS LISTING C:\Users\gabri\AppData\Local\Temp\cc5DSkcw.s 			page 216


 9298 6382 77637363 		.ascii "wcscat\0"
 9298      617400
 9299 6389 40       		.byte	0x40
 9300 638a 84       		.byte	0x84
 9301 638b 14       		.byte	0x14
 9302 638c 8F490000 		.long	0x498f
 9303 6390 9F630000 		.long	0x639f
 9304 6394 01       		.uleb128 0x1
 9305 6395 8F490000 		.long	0x498f
 9306 6399 01       		.uleb128 0x1
 9307 639a B64C0000 		.long	0x4cb6
 9308 639e 00       		.byte	0
 9309 639f 0B       		.uleb128 0xb
 9310 63a0 77637363 		.ascii "wcscmp\0"
 9310      6D7000
 9311 63a7 40       		.byte	0x40
 9312 63a8 86       		.byte	0x86
 9313 63a9 0F       		.byte	0xf
 9314 63aa 45460000 		.long	0x4645
 9315 63ae BD630000 		.long	0x63bd
 9316 63b2 01       		.uleb128 0x1
 9317 63b3 B64C0000 		.long	0x4cb6
 9318 63b7 01       		.uleb128 0x1
 9319 63b8 B64C0000 		.long	0x4cb6
 9320 63bc 00       		.byte	0
 9321 63bd 0B       		.uleb128 0xb
 9322 63be 77637363 		.ascii "wcscoll\0"
 9322      6F6C6C00 
 9323 63c6 40       		.byte	0x40
 9324 63c7 A3       		.byte	0xa3
 9325 63c8 0F       		.byte	0xf
 9326 63c9 45460000 		.long	0x4645
 9327 63cd DC630000 		.long	0x63dc
 9328 63d1 01       		.uleb128 0x1
 9329 63d2 B64C0000 		.long	0x4cb6
 9330 63d6 01       		.uleb128 0x1
 9331 63d7 B64C0000 		.long	0x4cb6
 9332 63db 00       		.byte	0
 9333 63dc 0B       		.uleb128 0xb
 9334 63dd 77637363 		.ascii "wcscpy\0"
 9334      707900
 9335 63e4 40       		.byte	0x40
 9336 63e5 87       		.byte	0x87
 9337 63e6 14       		.byte	0x14
 9338 63e7 8F490000 		.long	0x498f
 9339 63eb FA630000 		.long	0x63fa
 9340 63ef 01       		.uleb128 0x1
 9341 63f0 8F490000 		.long	0x498f
 9342 63f4 01       		.uleb128 0x1
 9343 63f5 B64C0000 		.long	0x4cb6
 9344 63f9 00       		.byte	0
 9345 63fa 0B       		.uleb128 0xb
 9346 63fb 77637363 		.ascii "wcscspn\0"
 9346      73706E00 
 9347 6403 40       		.byte	0x40
 9348 6404 88       		.byte	0x88
 9349 6405 12       		.byte	0x12
GAS LISTING C:\Users\gabri\AppData\Local\Temp\cc5DSkcw.s 			page 217


 9350 6406 A3450000 		.long	0x45a3
 9351 640a 19640000 		.long	0x6419
 9352 640e 01       		.uleb128 0x1
 9353 640f B64C0000 		.long	0x4cb6
 9354 6413 01       		.uleb128 0x1
 9355 6414 B64C0000 		.long	0x4cb6
 9356 6418 00       		.byte	0
 9357 6419 0B       		.uleb128 0xb
 9358 641a 77637366 		.ascii "wcsftime\0"
 9358      74696D65 
 9358      00
 9359 6423 41       		.byte	0x41
 9360 6424 B4       		.byte	0xb4
 9361 6425 12       		.byte	0x12
 9362 6426 A3450000 		.long	0x45a3
 9363 642a 43640000 		.long	0x6443
 9364 642e 01       		.uleb128 0x1
 9365 642f 8F490000 		.long	0x498f
 9366 6433 01       		.uleb128 0x1
 9367 6434 A3450000 		.long	0x45a3
 9368 6438 01       		.uleb128 0x1
 9369 6439 B64C0000 		.long	0x4cb6
 9370 643d 01       		.uleb128 0x1
 9371 643e 725F0000 		.long	0x5f72
 9372 6442 00       		.byte	0
 9373 6443 0B       		.uleb128 0xb
 9374 6444 7763736C 		.ascii "wcslen\0"
 9374      656E00
 9375 644b 40       		.byte	0x40
 9376 644c 89       		.byte	0x89
 9377 644d 12       		.byte	0x12
 9378 644e A3450000 		.long	0x45a3
 9379 6452 5C640000 		.long	0x645c
 9380 6456 01       		.uleb128 0x1
 9381 6457 B64C0000 		.long	0x4cb6
 9382 645b 00       		.byte	0
 9383 645c 0B       		.uleb128 0xb
 9384 645d 7763736E 		.ascii "wcsncat\0"
 9384      63617400 
 9385 6465 40       		.byte	0x40
 9386 6466 8B       		.byte	0x8b
 9387 6467 0C       		.byte	0xc
 9388 6468 8F490000 		.long	0x498f
 9389 646c 80640000 		.long	0x6480
 9390 6470 01       		.uleb128 0x1
 9391 6471 8F490000 		.long	0x498f
 9392 6475 01       		.uleb128 0x1
 9393 6476 B64C0000 		.long	0x4cb6
 9394 647a 01       		.uleb128 0x1
 9395 647b A3450000 		.long	0x45a3
 9396 647f 00       		.byte	0
 9397 6480 0B       		.uleb128 0xb
 9398 6481 7763736E 		.ascii "wcsncmp\0"
 9398      636D7000 
 9399 6489 40       		.byte	0x40
 9400 648a 8C       		.byte	0x8c
 9401 648b 0F       		.byte	0xf
GAS LISTING C:\Users\gabri\AppData\Local\Temp\cc5DSkcw.s 			page 218


 9402 648c 45460000 		.long	0x4645
 9403 6490 A4640000 		.long	0x64a4
 9404 6494 01       		.uleb128 0x1
 9405 6495 B64C0000 		.long	0x4cb6
 9406 6499 01       		.uleb128 0x1
 9407 649a B64C0000 		.long	0x4cb6
 9408 649e 01       		.uleb128 0x1
 9409 649f A3450000 		.long	0x45a3
 9410 64a3 00       		.byte	0
 9411 64a4 0B       		.uleb128 0xb
 9412 64a5 7763736E 		.ascii "wcsncpy\0"
 9412      63707900 
 9413 64ad 40       		.byte	0x40
 9414 64ae 8D       		.byte	0x8d
 9415 64af 0C       		.byte	0xc
 9416 64b0 8F490000 		.long	0x498f
 9417 64b4 C8640000 		.long	0x64c8
 9418 64b8 01       		.uleb128 0x1
 9419 64b9 8F490000 		.long	0x498f
 9420 64bd 01       		.uleb128 0x1
 9421 64be B64C0000 		.long	0x4cb6
 9422 64c2 01       		.uleb128 0x1
 9423 64c3 A3450000 		.long	0x45a3
 9424 64c7 00       		.byte	0
 9425 64c8 03       		.uleb128 0x3
 9426 64c9 77637372 		.ascii "wcsrtombs\0"
 9426      746F6D62 
 9426      7300
 9427 64d3 42       		.byte	0x42
 9428 64d4 9005     		.word	0x590
 9429 64d6 12       		.byte	0x12
 9430 64d7 A3450000 		.long	0x45a3
 9431 64db F4640000 		.long	0x64f4
 9432 64df 01       		.uleb128 0x1
 9433 64e0 89490000 		.long	0x4989
 9434 64e4 01       		.uleb128 0x1
 9435 64e5 F4640000 		.long	0x64f4
 9436 64e9 01       		.uleb128 0x1
 9437 64ea A3450000 		.long	0x45a3
 9438 64ee 01       		.uleb128 0x1
 9439 64ef 28610000 		.long	0x6128
 9440 64f3 00       		.byte	0
 9441 64f4 05       		.uleb128 0x5
 9442 64f5 08       		.byte	0x8
 9443 64f6 B64C0000 		.long	0x4cb6
 9444 64fa 0B       		.uleb128 0xb
 9445 64fb 77637373 		.ascii "wcsspn\0"
 9445      706E00
 9446 6502 40       		.byte	0x40
 9447 6503 91       		.byte	0x91
 9448 6504 12       		.byte	0x12
 9449 6505 A3450000 		.long	0x45a3
 9450 6509 18650000 		.long	0x6518
 9451 650d 01       		.uleb128 0x1
 9452 650e B64C0000 		.long	0x4cb6
 9453 6512 01       		.uleb128 0x1
 9454 6513 B64C0000 		.long	0x4cb6
GAS LISTING C:\Users\gabri\AppData\Local\Temp\cc5DSkcw.s 			page 219


 9455 6517 00       		.byte	0
 9456 6518 03       		.uleb128 0x3
 9457 6519 77637374 		.ascii "wcstod\0"
 9457      6F6400
 9458 6520 38       		.byte	0x38
 9459 6521 1902     		.word	0x219
 9460 6523 12       		.byte	0x12
 9461 6524 714C0000 		.long	0x4c71
 9462 6528 37650000 		.long	0x6537
 9463 652c 01       		.uleb128 0x1
 9464 652d B64C0000 		.long	0x4cb6
 9465 6531 01       		.uleb128 0x1
 9466 6532 484D0000 		.long	0x4d48
 9467 6536 00       		.byte	0
 9468 6537 03       		.uleb128 0x3
 9469 6538 77637374 		.ascii "wcstof\0"
 9469      6F6600
 9470 653f 38       		.byte	0x38
 9471 6540 1D02     		.word	0x21d
 9472 6542 11       		.byte	0x11
 9473 6543 7B4C0000 		.long	0x4c7b
 9474 6547 56650000 		.long	0x6556
 9475 654b 01       		.uleb128 0x1
 9476 654c B64C0000 		.long	0x4cb6
 9477 6550 01       		.uleb128 0x1
 9478 6551 484D0000 		.long	0x4d48
 9479 6555 00       		.byte	0
 9480 6556 0B       		.uleb128 0xb
 9481 6557 77637374 		.ascii "wcstok\0"
 9481      6F6B00
 9482 655e 40       		.byte	0x40
 9483 655f 93       		.byte	0x93
 9484 6560 14       		.byte	0x14
 9485 6561 8F490000 		.long	0x498f
 9486 6565 74650000 		.long	0x6574
 9487 6569 01       		.uleb128 0x1
 9488 656a 8F490000 		.long	0x498f
 9489 656e 01       		.uleb128 0x1
 9490 656f B64C0000 		.long	0x4cb6
 9491 6573 00       		.byte	0
 9492 6574 03       		.uleb128 0x3
 9493 6575 77637374 		.ascii "wcstol\0"
 9493      6F6C00
 9494 657c 38       		.byte	0x38
 9495 657d 2902     		.word	0x229
 9496 657f 10       		.byte	0x10
 9497 6580 51460000 		.long	0x4651
 9498 6584 98650000 		.long	0x6598
 9499 6588 01       		.uleb128 0x1
 9500 6589 B64C0000 		.long	0x4cb6
 9501 658d 01       		.uleb128 0x1
 9502 658e 484D0000 		.long	0x4d48
 9503 6592 01       		.uleb128 0x1
 9504 6593 45460000 		.long	0x4645
 9505 6597 00       		.byte	0
 9506 6598 03       		.uleb128 0x3
 9507 6599 77637374 		.ascii "wcstoul\0"
GAS LISTING C:\Users\gabri\AppData\Local\Temp\cc5DSkcw.s 			page 220


 9507      6F756C00 
 9508 65a1 38       		.byte	0x38
 9509 65a2 2B02     		.word	0x22b
 9510 65a4 19       		.byte	0x19
 9511 65a5 CB490000 		.long	0x49cb
 9512 65a9 BD650000 		.long	0x65bd
 9513 65ad 01       		.uleb128 0x1
 9514 65ae B64C0000 		.long	0x4cb6
 9515 65b2 01       		.uleb128 0x1
 9516 65b3 484D0000 		.long	0x4d48
 9517 65b7 01       		.uleb128 0x1
 9518 65b8 45460000 		.long	0x4645
 9519 65bc 00       		.byte	0
 9520 65bd 0B       		.uleb128 0xb
 9521 65be 77637378 		.ascii "wcsxfrm\0"
 9521      66726D00 
 9522 65c6 40       		.byte	0x40
 9523 65c7 A1       		.byte	0xa1
 9524 65c8 12       		.byte	0x12
 9525 65c9 A3450000 		.long	0x45a3
 9526 65cd E1650000 		.long	0x65e1
 9527 65d1 01       		.uleb128 0x1
 9528 65d2 8F490000 		.long	0x498f
 9529 65d6 01       		.uleb128 0x1
 9530 65d7 B64C0000 		.long	0x4cb6
 9531 65db 01       		.uleb128 0x1
 9532 65dc A3450000 		.long	0x45a3
 9533 65e0 00       		.byte	0
 9534 65e1 03       		.uleb128 0x3
 9535 65e2 7763746F 		.ascii "wctob\0"
 9535      6200
 9536 65e8 42       		.byte	0x42
 9537 65e9 9105     		.word	0x591
 9538 65eb 0F       		.byte	0xf
 9539 65ec 45460000 		.long	0x4645
 9540 65f0 FA650000 		.long	0x65fa
 9541 65f4 01       		.uleb128 0x1
 9542 65f5 0A460000 		.long	0x460a
 9543 65f9 00       		.byte	0
 9544 65fa 03       		.uleb128 0x3
 9545 65fb 776D656D 		.ascii "wmemcmp\0"
 9545      636D7000 
 9546 6603 42       		.byte	0x42
 9547 6604 9605     		.word	0x596
 9548 6606 0F       		.byte	0xf
 9549 6607 45460000 		.long	0x4645
 9550 660b 1F660000 		.long	0x661f
 9551 660f 01       		.uleb128 0x1
 9552 6610 B64C0000 		.long	0x4cb6
 9553 6614 01       		.uleb128 0x1
 9554 6615 B64C0000 		.long	0x4cb6
 9555 6619 01       		.uleb128 0x1
 9556 661a A3450000 		.long	0x45a3
 9557 661e 00       		.byte	0
 9558 661f 03       		.uleb128 0x3
 9559 6620 776D656D 		.ascii "wmemcpy\0"
 9559      63707900 
GAS LISTING C:\Users\gabri\AppData\Local\Temp\cc5DSkcw.s 			page 221


 9560 6628 42       		.byte	0x42
 9561 6629 9705     		.word	0x597
 9562 662b 14       		.byte	0x14
 9563 662c 8F490000 		.long	0x498f
 9564 6630 44660000 		.long	0x6644
 9565 6634 01       		.uleb128 0x1
 9566 6635 8F490000 		.long	0x498f
 9567 6639 01       		.uleb128 0x1
 9568 663a B64C0000 		.long	0x4cb6
 9569 663e 01       		.uleb128 0x1
 9570 663f A3450000 		.long	0x45a3
 9571 6643 00       		.byte	0
 9572 6644 03       		.uleb128 0x3
 9573 6645 776D656D 		.ascii "wmemmove\0"
 9573      6D6F7665 
 9573      00
 9574 664e 42       		.byte	0x42
 9575 664f 9905     		.word	0x599
 9576 6651 14       		.byte	0x14
 9577 6652 8F490000 		.long	0x498f
 9578 6656 6A660000 		.long	0x666a
 9579 665a 01       		.uleb128 0x1
 9580 665b 8F490000 		.long	0x498f
 9581 665f 01       		.uleb128 0x1
 9582 6660 B64C0000 		.long	0x4cb6
 9583 6664 01       		.uleb128 0x1
 9584 6665 A3450000 		.long	0x45a3
 9585 6669 00       		.byte	0
 9586 666a 03       		.uleb128 0x3
 9587 666b 776D656D 		.ascii "wmemset\0"
 9587      73657400 
 9588 6673 42       		.byte	0x42
 9589 6674 9405     		.word	0x594
 9590 6676 14       		.byte	0x14
 9591 6677 8F490000 		.long	0x498f
 9592 667b 8F660000 		.long	0x668f
 9593 667f 01       		.uleb128 0x1
 9594 6680 8F490000 		.long	0x498f
 9595 6684 01       		.uleb128 0x1
 9596 6685 95490000 		.long	0x4995
 9597 6689 01       		.uleb128 0x1
 9598 668a A3450000 		.long	0x45a3
 9599 668e 00       		.byte	0
 9600 668f 03       		.uleb128 0x3
 9601 6690 77707269 		.ascii "wprintf\0"
 9601      6E746600 
 9602 6698 01       		.byte	0x1
 9603 6699 A503     		.word	0x3a5
 9604 669b 05       		.byte	0x5
 9605 669c 45460000 		.long	0x4645
 9606 66a0 AB660000 		.long	0x66ab
 9607 66a4 01       		.uleb128 0x1
 9608 66a5 B64C0000 		.long	0x4cb6
 9609 66a9 17       		.uleb128 0x17
 9610 66aa 00       		.byte	0
 9611 66ab 03       		.uleb128 0x3
 9612 66ac 77736361 		.ascii "wscanf\0"
GAS LISTING C:\Users\gabri\AppData\Local\Temp\cc5DSkcw.s 			page 222


 9612      6E6600
 9613 66b3 01       		.byte	0x1
 9614 66b4 6B03     		.word	0x36b
 9615 66b6 05       		.byte	0x5
 9616 66b7 45460000 		.long	0x4645
 9617 66bb C6660000 		.long	0x66c6
 9618 66bf 01       		.uleb128 0x1
 9619 66c0 B64C0000 		.long	0x4cb6
 9620 66c4 17       		.uleb128 0x17
 9621 66c5 00       		.byte	0
 9622 66c6 0B       		.uleb128 0xb
 9623 66c7 77637363 		.ascii "wcschr\0"
 9623      687200
 9624 66ce 40       		.byte	0x40
 9625 66cf 85       		.byte	0x85
 9626 66d0 22       		.byte	0x22
 9627 66d1 8F490000 		.long	0x498f
 9628 66d5 E4660000 		.long	0x66e4
 9629 66d9 01       		.uleb128 0x1
 9630 66da B64C0000 		.long	0x4cb6
 9631 66de 01       		.uleb128 0x1
 9632 66df 95490000 		.long	0x4995
 9633 66e3 00       		.byte	0
 9634 66e4 0B       		.uleb128 0xb
 9635 66e5 77637370 		.ascii "wcspbrk\0"
 9635      62726B00 
 9636 66ed 40       		.byte	0x40
 9637 66ee 8F       		.byte	0x8f
 9638 66ef 22       		.byte	0x22
 9639 66f0 8F490000 		.long	0x498f
 9640 66f4 03670000 		.long	0x6703
 9641 66f8 01       		.uleb128 0x1
 9642 66f9 B64C0000 		.long	0x4cb6
 9643 66fd 01       		.uleb128 0x1
 9644 66fe B64C0000 		.long	0x4cb6
 9645 6702 00       		.byte	0
 9646 6703 0B       		.uleb128 0xb
 9647 6704 77637372 		.ascii "wcsrchr\0"
 9647      63687200 
 9648 670c 40       		.byte	0x40
 9649 670d 90       		.byte	0x90
 9650 670e 22       		.byte	0x22
 9651 670f 8F490000 		.long	0x498f
 9652 6713 22670000 		.long	0x6722
 9653 6717 01       		.uleb128 0x1
 9654 6718 B64C0000 		.long	0x4cb6
 9655 671c 01       		.uleb128 0x1
 9656 671d 95490000 		.long	0x4995
 9657 6721 00       		.byte	0
 9658 6722 0B       		.uleb128 0xb
 9659 6723 77637373 		.ascii "wcsstr\0"
 9659      747200
 9660 672a 40       		.byte	0x40
 9661 672b 92       		.byte	0x92
 9662 672c 22       		.byte	0x22
 9663 672d 8F490000 		.long	0x498f
 9664 6731 40670000 		.long	0x6740
GAS LISTING C:\Users\gabri\AppData\Local\Temp\cc5DSkcw.s 			page 223


 9665 6735 01       		.uleb128 0x1
 9666 6736 B64C0000 		.long	0x4cb6
 9667 673a 01       		.uleb128 0x1
 9668 673b B64C0000 		.long	0x4cb6
 9669 673f 00       		.byte	0
 9670 6740 03       		.uleb128 0x3
 9671 6741 776D656D 		.ascii "wmemchr\0"
 9671      63687200 
 9672 6749 42       		.byte	0x42
 9673 674a 9505     		.word	0x595
 9674 674c 22       		.byte	0x22
 9675 674d 8F490000 		.long	0x498f
 9676 6751 65670000 		.long	0x6765
 9677 6755 01       		.uleb128 0x1
 9678 6756 B64C0000 		.long	0x4cb6
 9679 675a 01       		.uleb128 0x1
 9680 675b 95490000 		.long	0x4995
 9681 675f 01       		.uleb128 0x1
 9682 6760 A3450000 		.long	0x45a3
 9683 6764 00       		.byte	0
 9684 6765 03       		.uleb128 0x3
 9685 6766 77637374 		.ascii "wcstold\0"
 9685      6F6C6400 
 9686 676e 38       		.byte	0x38
 9687 676f 2602     		.word	0x226
 9688 6771 17       		.byte	0x17
 9689 6772 844C0000 		.long	0x4c84
 9690 6776 85670000 		.long	0x6785
 9691 677a 01       		.uleb128 0x1
 9692 677b B64C0000 		.long	0x4cb6
 9693 677f 01       		.uleb128 0x1
 9694 6780 484D0000 		.long	0x4d48
 9695 6784 00       		.byte	0
 9696 6785 03       		.uleb128 0x3
 9697 6786 77637374 		.ascii "wcstoll\0"
 9697      6F6C6C00 
 9698 678e 42       		.byte	0x42
 9699 678f 9C05     		.word	0x59c
 9700 6791 27       		.byte	0x27
 9701 6792 D1450000 		.long	0x45d1
 9702 6796 AA670000 		.long	0x67aa
 9703 679a 01       		.uleb128 0x1
 9704 679b B64C0000 		.long	0x4cb6
 9705 679f 01       		.uleb128 0x1
 9706 67a0 484D0000 		.long	0x4d48
 9707 67a4 01       		.uleb128 0x1
 9708 67a5 45460000 		.long	0x4645
 9709 67a9 00       		.byte	0
 9710 67aa 03       		.uleb128 0x3
 9711 67ab 77637374 		.ascii "wcstoull\0"
 9711      6F756C6C 
 9711      00
 9712 67b4 42       		.byte	0x42
 9713 67b5 9D05     		.word	0x59d
 9714 67b7 30       		.byte	0x30
 9715 67b8 B2450000 		.long	0x45b2
 9716 67bc D0670000 		.long	0x67d0
GAS LISTING C:\Users\gabri\AppData\Local\Temp\cc5DSkcw.s 			page 224


 9717 67c0 01       		.uleb128 0x1
 9718 67c1 B64C0000 		.long	0x4cb6
 9719 67c5 01       		.uleb128 0x1
 9720 67c6 484D0000 		.long	0x4d48
 9721 67ca 01       		.uleb128 0x1
 9722 67cb 45460000 		.long	0x4645
 9723 67cf 00       		.byte	0
 9724 67d0 05       		.uleb128 0x5
 9725 67d1 08       		.byte	0x8
 9726 67d2 6C070000 		.long	0x76c
 9727 67d6 05       		.uleb128 0x5
 9728 67d7 08       		.byte	0x8
 9729 67d8 DB070000 		.long	0x7db
 9730 67dc 05       		.uleb128 0x5
 9731 67dd 08       		.byte	0x8
 9732 67de 440C0000 		.long	0xc44
 9733 67e2 2A       		.uleb128 0x2a
 9734 67e3 08       		.byte	0x8
 9735 67e4 440C0000 		.long	0xc44
 9736 67e8 9301     		.uleb128 0x93
 9737 67ea 6465636C 		.ascii "decltype(nullptr)\0"
 9737      74797065 
 9737      286E756C 
 9737      6C707472 
 9737      2900
 9738 67fc 9401     		.uleb128 0x94
 9739 67fe 08       		.byte	0x8
 9740 67ff DB070000 		.long	0x7db
 9741 6803 2A       		.uleb128 0x2a
 9742 6804 08       		.byte	0x8
 9743 6805 DB070000 		.long	0x7db
 9744 6809 11       		.uleb128 0x11
 9745 680a 01       		.byte	0x1
 9746 680b 02       		.byte	0x2
 9747 680c 626F6F6C 		.ascii "bool\0"
 9747      00
 9748 6811 04       		.uleb128 0x4
 9749 6812 09680000 		.long	0x6809
 9750 6816 05       		.uleb128 0x5
 9751 6817 08       		.byte	0x8
 9752 6818 D30C0000 		.long	0xcd3
 9753 681c 05       		.uleb128 0x5
 9754 681d 08       		.byte	0x8
 9755 681e E00D0000 		.long	0xde0
 9756 6822 05       		.uleb128 0x5
 9757 6823 08       		.byte	0x8
 9758 6824 EB0E0000 		.long	0xeeb
 9759 6828 05       		.uleb128 0x5
 9760 6829 08       		.byte	0x8
 9761 682a 14100000 		.long	0x1014
 9762 682e 11       		.uleb128 0x11
 9763 682f 10       		.byte	0x10
 9764 6830 07       		.byte	0x7
 9765 6831 5F5F696E 		.ascii "__int128 unsigned\0"
 9765      74313238 
 9765      20756E73 
 9765      69676E65 
GAS LISTING C:\Users\gabri\AppData\Local\Temp\cc5DSkcw.s 			page 225


 9765      6400
 9766 6843 05       		.uleb128 0x5
 9767 6844 08       		.byte	0x8
 9768 6845 50100000 		.long	0x1050
 9769 6849 0A       		.uleb128 0xa
 9770 684a 97100000 		.long	0x1097
 9771 684e 37       		.uleb128 0x37
 9772 684f 5F5F676E 		.ascii "__gnu_debug\0"
 9772      755F6465 
 9772      62756700 
 9773 685b 15       		.byte	0x15
 9774 685c 38       		.byte	0x38
 9775 685d 0B       		.byte	0xb
 9776 685e 6B680000 		.long	0x686b
 9777 6862 4F       		.uleb128 0x4f
 9778 6863 15       		.byte	0x15
 9779 6864 3A       		.byte	0x3a
 9780 6865 18       		.byte	0x18
 9781 6866 B5100000 		.long	0x10b5
 9782 686a 00       		.byte	0
 9783 686b 2A       		.uleb128 0x2a
 9784 686c 08       		.byte	0x8
 9785 686d 18110000 		.long	0x1118
 9786 6871 2A       		.uleb128 0x2a
 9787 6872 08       		.byte	0x8
 9788 6873 25110000 		.long	0x1125
 9789 6877 05       		.uleb128 0x5
 9790 6878 08       		.byte	0x8
 9791 6879 25110000 		.long	0x1125
 9792 687d 05       		.uleb128 0x5
 9793 687e 08       		.byte	0x8
 9794 687f 18110000 		.long	0x1118
 9795 6883 2A       		.uleb128 0x2a
 9796 6884 08       		.byte	0x8
 9797 6885 83130000 		.long	0x1383
 9798 6889 2A       		.uleb128 0x2a
 9799 688a 08       		.byte	0x8
 9800 688b EA140000 		.long	0x14ea
 9801 688f 2A       		.uleb128 0x2a
 9802 6890 08       		.byte	0x8
 9803 6891 F7140000 		.long	0x14f7
 9804 6895 05       		.uleb128 0x5
 9805 6896 08       		.byte	0x8
 9806 6897 F7140000 		.long	0x14f7
 9807 689b 05       		.uleb128 0x5
 9808 689c 08       		.byte	0x8
 9809 689d EA140000 		.long	0x14ea
 9810 68a1 2A       		.uleb128 0x2a
 9811 68a2 08       		.byte	0x8
 9812 68a3 55170000 		.long	0x1755
 9813 68a7 08       		.uleb128 0x8
 9814 68a8 696E7438 		.ascii "int8_t\0"
 9814      5F7400
 9815 68af 44       		.byte	0x44
 9816 68b0 23       		.byte	0x23
 9817 68b1 15       		.byte	0x15
 9818 68b2 F4540000 		.long	0x54f4
GAS LISTING C:\Users\gabri\AppData\Local\Temp\cc5DSkcw.s 			page 226


 9819 68b6 08       		.uleb128 0x8
 9820 68b7 75696E74 		.ascii "uint8_t\0"
 9820      385F7400 
 9821 68bf 44       		.byte	0x44
 9822 68c0 24       		.byte	0x24
 9823 68c1 19       		.byte	0x19
 9824 68c2 CF4B0000 		.long	0x4bcf
 9825 68c6 08       		.uleb128 0x8
 9826 68c7 696E7431 		.ascii "int16_t\0"
 9826      365F7400 
 9827 68cf 44       		.byte	0x44
 9828 68d0 25       		.byte	0x25
 9829 68d1 10       		.byte	0x10
 9830 68d2 03550000 		.long	0x5503
 9831 68d6 08       		.uleb128 0x8
 9832 68d7 75696E74 		.ascii "uint16_t\0"
 9832      31365F74 
 9832      00
 9833 68e0 44       		.byte	0x44
 9834 68e1 26       		.byte	0x26
 9835 68e2 19       		.byte	0x19
 9836 68e3 19460000 		.long	0x4619
 9837 68e7 08       		.uleb128 0x8
 9838 68e8 696E7433 		.ascii "int32_t\0"
 9838      325F7400 
 9839 68f0 44       		.byte	0x44
 9840 68f1 27       		.byte	0x27
 9841 68f2 0E       		.byte	0xe
 9842 68f3 45460000 		.long	0x4645
 9843 68f7 08       		.uleb128 0x8
 9844 68f8 75696E74 		.ascii "uint32_t\0"
 9844      33325F74 
 9844      00
 9845 6901 44       		.byte	0x44
 9846 6902 28       		.byte	0x28
 9847 6903 14       		.byte	0x14
 9848 6904 AB490000 		.long	0x49ab
 9849 6908 08       		.uleb128 0x8
 9850 6909 696E7436 		.ascii "int64_t\0"
 9850      345F7400 
 9851 6911 44       		.byte	0x44
 9852 6912 29       		.byte	0x29
 9853 6913 26       		.byte	0x26
 9854 6914 D1450000 		.long	0x45d1
 9855 6918 08       		.uleb128 0x8
 9856 6919 75696E74 		.ascii "uint64_t\0"
 9856      36345F74 
 9856      00
 9857 6922 44       		.byte	0x44
 9858 6923 2A       		.byte	0x2a
 9859 6924 30       		.byte	0x30
 9860 6925 B2450000 		.long	0x45b2
 9861 6929 08       		.uleb128 0x8
 9862 692a 696E745F 		.ascii "int_least8_t\0"
 9862      6C656173 
 9862      74385F74 
 9862      00
GAS LISTING C:\Users\gabri\AppData\Local\Temp\cc5DSkcw.s 			page 227


 9863 6937 44       		.byte	0x44
 9864 6938 2D       		.byte	0x2d
 9865 6939 15       		.byte	0x15
 9866 693a F4540000 		.long	0x54f4
 9867 693e 08       		.uleb128 0x8
 9868 693f 75696E74 		.ascii "uint_least8_t\0"
 9868      5F6C6561 
 9868      7374385F 
 9868      7400
 9869 694d 44       		.byte	0x44
 9870 694e 2E       		.byte	0x2e
 9871 694f 19       		.byte	0x19
 9872 6950 CF4B0000 		.long	0x4bcf
 9873 6954 08       		.uleb128 0x8
 9874 6955 696E745F 		.ascii "int_least16_t\0"
 9874      6C656173 
 9874      7431365F 
 9874      7400
 9875 6963 44       		.byte	0x44
 9876 6964 2F       		.byte	0x2f
 9877 6965 10       		.byte	0x10
 9878 6966 03550000 		.long	0x5503
 9879 696a 08       		.uleb128 0x8
 9880 696b 75696E74 		.ascii "uint_least16_t\0"
 9880      5F6C6561 
 9880      73743136 
 9880      5F7400
 9881 697a 44       		.byte	0x44
 9882 697b 30       		.byte	0x30
 9883 697c 19       		.byte	0x19
 9884 697d 19460000 		.long	0x4619
 9885 6981 08       		.uleb128 0x8
 9886 6982 696E745F 		.ascii "int_least32_t\0"
 9886      6C656173 
 9886      7433325F 
 9886      7400
 9887 6990 44       		.byte	0x44
 9888 6991 31       		.byte	0x31
 9889 6992 0E       		.byte	0xe
 9890 6993 45460000 		.long	0x4645
 9891 6997 08       		.uleb128 0x8
 9892 6998 75696E74 		.ascii "uint_least32_t\0"
 9892      5F6C6561 
 9892      73743332 
 9892      5F7400
 9893 69a7 44       		.byte	0x44
 9894 69a8 32       		.byte	0x32
 9895 69a9 14       		.byte	0x14
 9896 69aa AB490000 		.long	0x49ab
 9897 69ae 08       		.uleb128 0x8
 9898 69af 696E745F 		.ascii "int_least64_t\0"
 9898      6C656173 
 9898      7436345F 
 9898      7400
 9899 69bd 44       		.byte	0x44
 9900 69be 33       		.byte	0x33
 9901 69bf 26       		.byte	0x26
GAS LISTING C:\Users\gabri\AppData\Local\Temp\cc5DSkcw.s 			page 228


 9902 69c0 D1450000 		.long	0x45d1
 9903 69c4 08       		.uleb128 0x8
 9904 69c5 75696E74 		.ascii "uint_least64_t\0"
 9904      5F6C6561 
 9904      73743634 
 9904      5F7400
 9905 69d4 44       		.byte	0x44
 9906 69d5 34       		.byte	0x34
 9907 69d6 30       		.byte	0x30
 9908 69d7 B2450000 		.long	0x45b2
 9909 69db 08       		.uleb128 0x8
 9910 69dc 696E745F 		.ascii "int_fast8_t\0"
 9910      66617374 
 9910      385F7400 
 9911 69e8 44       		.byte	0x44
 9912 69e9 3A       		.byte	0x3a
 9913 69ea 15       		.byte	0x15
 9914 69eb F4540000 		.long	0x54f4
 9915 69ef 08       		.uleb128 0x8
 9916 69f0 75696E74 		.ascii "uint_fast8_t\0"
 9916      5F666173 
 9916      74385F74 
 9916      00
 9917 69fd 44       		.byte	0x44
 9918 69fe 3B       		.byte	0x3b
 9919 69ff 17       		.byte	0x17
 9920 6a00 CF4B0000 		.long	0x4bcf
 9921 6a04 08       		.uleb128 0x8
 9922 6a05 696E745F 		.ascii "int_fast16_t\0"
 9922      66617374 
 9922      31365F74 
 9922      00
 9923 6a12 44       		.byte	0x44
 9924 6a13 3C       		.byte	0x3c
 9925 6a14 10       		.byte	0x10
 9926 6a15 03550000 		.long	0x5503
 9927 6a19 08       		.uleb128 0x8
 9928 6a1a 75696E74 		.ascii "uint_fast16_t\0"
 9928      5F666173 
 9928      7431365F 
 9928      7400
 9929 6a28 44       		.byte	0x44
 9930 6a29 3D       		.byte	0x3d
 9931 6a2a 19       		.byte	0x19
 9932 6a2b 19460000 		.long	0x4619
 9933 6a2f 08       		.uleb128 0x8
 9934 6a30 696E745F 		.ascii "int_fast32_t\0"
 9934      66617374 
 9934      33325F74 
 9934      00
 9935 6a3d 44       		.byte	0x44
 9936 6a3e 3E       		.byte	0x3e
 9937 6a3f 0E       		.byte	0xe
 9938 6a40 45460000 		.long	0x4645
 9939 6a44 08       		.uleb128 0x8
 9940 6a45 75696E74 		.ascii "uint_fast32_t\0"
 9940      5F666173 
GAS LISTING C:\Users\gabri\AppData\Local\Temp\cc5DSkcw.s 			page 229


 9940      7433325F 
 9940      7400
 9941 6a53 44       		.byte	0x44
 9942 6a54 3F       		.byte	0x3f
 9943 6a55 18       		.byte	0x18
 9944 6a56 AB490000 		.long	0x49ab
 9945 6a5a 08       		.uleb128 0x8
 9946 6a5b 696E745F 		.ascii "int_fast64_t\0"
 9946      66617374 
 9946      36345F74 
 9946      00
 9947 6a68 44       		.byte	0x44
 9948 6a69 40       		.byte	0x40
 9949 6a6a 26       		.byte	0x26
 9950 6a6b D1450000 		.long	0x45d1
 9951 6a6f 08       		.uleb128 0x8
 9952 6a70 75696E74 		.ascii "uint_fast64_t\0"
 9952      5F666173 
 9952      7436345F 
 9952      7400
 9953 6a7e 44       		.byte	0x44
 9954 6a7f 41       		.byte	0x41
 9955 6a80 30       		.byte	0x30
 9956 6a81 B2450000 		.long	0x45b2
 9957 6a85 08       		.uleb128 0x8
 9958 6a86 696E746D 		.ascii "intmax_t\0"
 9958      61785F74 
 9958      00
 9959 6a8f 44       		.byte	0x44
 9960 6a90 44       		.byte	0x44
 9961 6a91 26       		.byte	0x26
 9962 6a92 D1450000 		.long	0x45d1
 9963 6a96 04       		.uleb128 0x4
 9964 6a97 856A0000 		.long	0x6a85
 9965 6a9b 08       		.uleb128 0x8
 9966 6a9c 75696E74 		.ascii "uintmax_t\0"
 9966      6D61785F 
 9966      7400
 9967 6aa6 44       		.byte	0x44
 9968 6aa7 45       		.byte	0x45
 9969 6aa8 30       		.byte	0x30
 9970 6aa9 B2450000 		.long	0x45b2
 9971 6aad 11       		.uleb128 0x11
 9972 6aae 02       		.byte	0x2
 9973 6aaf 10       		.byte	0x10
 9974 6ab0 63686172 		.ascii "char16_t\0"
 9974      31365F74 
 9974      00
 9975 6ab9 11       		.uleb128 0x11
 9976 6aba 04       		.byte	0x4
 9977 6abb 10       		.byte	0x10
 9978 6abc 63686172 		.ascii "char32_t\0"
 9978      33325F74 
 9978      00
 9979 6ac5 14       		.uleb128 0x14
 9980 6ac6 5F5F7365 		.ascii "__security_cookie\0"
 9980      63757269 
GAS LISTING C:\Users\gabri\AppData\Local\Temp\cc5DSkcw.s 			page 230


 9980      74795F63 
 9980      6F6F6B69 
 9980      6500
 9981 6ad8 45       		.byte	0x45
 9982 6ad9 7D       		.byte	0x7d
 9983 6ada 14       		.byte	0x14
 9984 6adb F8450000 		.long	0x45f8
 9985 6adf 64       		.uleb128 0x64
 9986 6ae0 EA6A0000 		.long	0x6aea
 9987 6ae4 01       		.uleb128 0x1
 9988 6ae5 1A4F0000 		.long	0x4f1a
 9989 6ae9 00       		.byte	0
 9990 6aea 05       		.uleb128 0x5
 9991 6aeb 08       		.byte	0x8
 9992 6aec DF6A0000 		.long	0x6adf
 9993 6af0 15       		.uleb128 0x15
 9994 6af1 5F707468 		.ascii "_pthread_key_dest\0"
 9994      72656164 
 9994      5F6B6579 
 9994      5F646573 
 9994      7400
 9995 6b03 46       		.byte	0x46
 9996 6b04 2301     		.word	0x123
 9997 6b06 1F       		.byte	0x1f
 9998 6b07 0B6B0000 		.long	0x6b0b
 9999 6b0b 05       		.uleb128 0x5
 10000 6b0c 08       		.byte	0x8
 10001 6b0d EA6A0000 		.long	0x6aea
 10002 6b11 08       		.uleb128 0x8
 10003 6b12 5F41746F 		.ascii "_Atomic_word\0"
 10003      6D69635F 
 10003      776F7264 
 10003      00
 10004 6b1f 47       		.byte	0x47
 10005 6b20 20       		.byte	0x20
 10006 6b21 0D       		.byte	0xd
 10007 6b22 45460000 		.long	0x4645
 10008 6b26 05       		.uleb128 0x5
 10009 6b27 08       		.byte	0x8
 10010 6b28 AD6A0000 		.long	0x6aad
 10011 6b2c 05       		.uleb128 0x5
 10012 6b2d 08       		.byte	0x8
 10013 6b2e B96A0000 		.long	0x6ab9
 10014 6b32 05       		.uleb128 0x5
 10015 6b33 08       		.byte	0x8
 10016 6b34 D5190000 		.long	0x19d5
 10017 6b38 08       		.uleb128 0x8
 10018 6b39 77637472 		.ascii "wctrans_t\0"
 10018      616E735F 
 10018      7400
 10019 6b43 48       		.byte	0x48
 10020 6b44 AE       		.byte	0xae
 10021 6b45 13       		.byte	0x13
 10022 6b46 95490000 		.long	0x4995
 10023 6b4a 0B       		.uleb128 0xb
 10024 6b4b 69737763 		.ascii "iswctype\0"
 10024      74797065 
GAS LISTING C:\Users\gabri\AppData\Local\Temp\cc5DSkcw.s 			page 231


 10024      00
 10025 6b54 3B       		.byte	0x3b
 10026 6b55 B4       		.byte	0xb4
 10027 6b56 0F       		.byte	0xf
 10028 6b57 45460000 		.long	0x4645
 10029 6b5b 6A6B0000 		.long	0x6b6a
 10030 6b5f 01       		.uleb128 0x1
 10031 6b60 0A460000 		.long	0x460a
 10032 6b64 01       		.uleb128 0x1
 10033 6b65 34460000 		.long	0x4634
 10034 6b69 00       		.byte	0
 10035 6b6a 0B       		.uleb128 0xb
 10036 6b6b 746F7763 		.ascii "towctrans\0"
 10036      7472616E 
 10036      7300
 10037 6b75 48       		.byte	0x48
 10038 6b76 AF       		.byte	0xaf
 10039 6b77 12       		.byte	0x12
 10040 6b78 0A460000 		.long	0x460a
 10041 6b7c 8B6B0000 		.long	0x6b8b
 10042 6b80 01       		.uleb128 0x1
 10043 6b81 0A460000 		.long	0x460a
 10044 6b85 01       		.uleb128 0x1
 10045 6b86 386B0000 		.long	0x6b38
 10046 6b8a 00       		.byte	0
 10047 6b8b 0B       		.uleb128 0xb
 10048 6b8c 77637472 		.ascii "wctrans\0"
 10048      616E7300 
 10049 6b94 48       		.byte	0x48
 10050 6b95 B0       		.byte	0xb0
 10051 6b96 15       		.byte	0x15
 10052 6b97 386B0000 		.long	0x6b38
 10053 6b9b A56B0000 		.long	0x6ba5
 10054 6b9f 01       		.uleb128 0x1
 10055 6ba0 B54E0000 		.long	0x4eb5
 10056 6ba4 00       		.byte	0
 10057 6ba5 0B       		.uleb128 0xb
 10058 6ba6 77637479 		.ascii "wctype\0"
 10058      706500
 10059 6bad 48       		.byte	0x48
 10060 6bae B1       		.byte	0xb1
 10061 6baf 14       		.byte	0x14
 10062 6bb0 34460000 		.long	0x4634
 10063 6bb4 BE6B0000 		.long	0x6bbe
 10064 6bb8 01       		.uleb128 0x1
 10065 6bb9 B54E0000 		.long	0x4eb5
 10066 6bbd 00       		.byte	0
 10067 6bbe 11       		.uleb128 0x11
 10068 6bbf 08       		.byte	0x8
 10069 6bc0 03       		.byte	0x3
 10070 6bc1 636F6D70 		.ascii "complex float\0"
 10070      6C657820 
 10070      666C6F61 
 10070      7400
 10071 6bcf 11       		.uleb128 0x11
 10072 6bd0 10       		.byte	0x10
 10073 6bd1 03       		.byte	0x3
GAS LISTING C:\Users\gabri\AppData\Local\Temp\cc5DSkcw.s 			page 232


 10074 6bd2 636F6D70 		.ascii "complex double\0"
 10074      6C657820 
 10074      646F7562 
 10074      6C6500
 10075 6be1 11       		.uleb128 0x11
 10076 6be2 20       		.byte	0x20
 10077 6be3 03       		.byte	0x3
 10078 6be4 636F6D70 		.ascii "complex long double\0"
 10078      6C657820 
 10078      6C6F6E67 
 10078      20646F75 
 10078      626C6500 
 10079 6bf8 08       		.uleb128 0x8
 10080 6bf9 66657863 		.ascii "fexcept_t\0"
 10080      6570745F 
 10080      7400
 10081 6c03 49       		.byte	0x49
 10082 6c04 54       		.byte	0x54
 10083 6c05 18       		.byte	0x18
 10084 6c06 19460000 		.long	0x4619
 10085 6c0a 69       		.uleb128 0x69
 10086 6c0b 20       		.byte	0x20
 10087 6c0c 49       		.byte	0x49
 10088 6c0d 5B       		.byte	0x5b
 10089 6c0e 01       		.byte	0x1
 10090 6c0f 3666656E 		.ascii "6fenv_t\0"
 10090      765F7400 
 10091 6c17 2A6D0000 		.long	0x6d2a
 10092 6c1b 07       		.uleb128 0x7
 10093 6c1c 5F5F636F 		.ascii "__control_word\0"
 10093      6E74726F 
 10093      6C5F776F 
 10093      726400
 10094 6c2b 49       		.byte	0x49
 10095 6c2c 5C       		.byte	0x5c
 10096 6c2d 12       		.byte	0x12
 10097 6c2e 19460000 		.long	0x4619
 10098 6c32 00       		.byte	0
 10099 6c33 07       		.uleb128 0x7
 10100 6c34 5F5F756E 		.ascii "__unused0\0"
 10100      75736564 
 10100      3000
 10101 6c3e 49       		.byte	0x49
 10102 6c3f 5D       		.byte	0x5d
 10103 6c40 12       		.byte	0x12
 10104 6c41 19460000 		.long	0x4619
 10105 6c45 02       		.byte	0x2
 10106 6c46 07       		.uleb128 0x7
 10107 6c47 5F5F7374 		.ascii "__status_word\0"
 10107      61747573 
 10107      5F776F72 
 10107      6400
 10108 6c55 49       		.byte	0x49
 10109 6c56 5E       		.byte	0x5e
 10110 6c57 12       		.byte	0x12
 10111 6c58 19460000 		.long	0x4619
 10112 6c5c 04       		.byte	0x4
GAS LISTING C:\Users\gabri\AppData\Local\Temp\cc5DSkcw.s 			page 233


 10113 6c5d 07       		.uleb128 0x7
 10114 6c5e 5F5F756E 		.ascii "__unused1\0"
 10114      75736564 
 10114      3100
 10115 6c68 49       		.byte	0x49
 10116 6c69 5F       		.byte	0x5f
 10117 6c6a 12       		.byte	0x12
 10118 6c6b 19460000 		.long	0x4619
 10119 6c6f 06       		.byte	0x6
 10120 6c70 07       		.uleb128 0x7
 10121 6c71 5F5F7461 		.ascii "__tag_word\0"
 10121      675F776F 
 10121      726400
 10122 6c7c 49       		.byte	0x49
 10123 6c7d 60       		.byte	0x60
 10124 6c7e 12       		.byte	0x12
 10125 6c7f 19460000 		.long	0x4619
 10126 6c83 08       		.byte	0x8
 10127 6c84 07       		.uleb128 0x7
 10128 6c85 5F5F756E 		.ascii "__unused2\0"
 10128      75736564 
 10128      3200
 10129 6c8f 49       		.byte	0x49
 10130 6c90 61       		.byte	0x61
 10131 6c91 12       		.byte	0x12
 10132 6c92 19460000 		.long	0x4619
 10133 6c96 0A       		.byte	0xa
 10134 6c97 07       		.uleb128 0x7
 10135 6c98 5F5F6970 		.ascii "__ip_offset\0"
 10135      5F6F6666 
 10135      73657400 
 10136 6ca4 49       		.byte	0x49
 10137 6ca5 62       		.byte	0x62
 10138 6ca6 11       		.byte	0x11
 10139 6ca7 AB490000 		.long	0x49ab
 10140 6cab 0C       		.byte	0xc
 10141 6cac 07       		.uleb128 0x7
 10142 6cad 5F5F6970 		.ascii "__ip_selector\0"
 10142      5F73656C 
 10142      6563746F 
 10142      7200
 10143 6cbb 49       		.byte	0x49
 10144 6cbc 63       		.byte	0x63
 10145 6cbd 12       		.byte	0x12
 10146 6cbe 19460000 		.long	0x4619
 10147 6cc2 10       		.byte	0x10
 10148 6cc3 07       		.uleb128 0x7
 10149 6cc4 5F5F6F70 		.ascii "__opcode\0"
 10149      636F6465 
 10149      00
 10150 6ccd 49       		.byte	0x49
 10151 6cce 64       		.byte	0x64
 10152 6ccf 12       		.byte	0x12
 10153 6cd0 19460000 		.long	0x4619
 10154 6cd4 12       		.byte	0x12
 10155 6cd5 07       		.uleb128 0x7
 10156 6cd6 5F5F6461 		.ascii "__data_offset\0"
GAS LISTING C:\Users\gabri\AppData\Local\Temp\cc5DSkcw.s 			page 234


 10156      74615F6F 
 10156      66667365 
 10156      7400
 10157 6ce4 49       		.byte	0x49
 10158 6ce5 65       		.byte	0x65
 10159 6ce6 11       		.byte	0x11
 10160 6ce7 AB490000 		.long	0x49ab
 10161 6ceb 14       		.byte	0x14
 10162 6cec 07       		.uleb128 0x7
 10163 6ced 5F5F6461 		.ascii "__data_selector\0"
 10163      74615F73 
 10163      656C6563 
 10163      746F7200 
 10164 6cfd 49       		.byte	0x49
 10165 6cfe 66       		.byte	0x66
 10166 6cff 12       		.byte	0x12
 10167 6d00 19460000 		.long	0x4619
 10168 6d04 18       		.byte	0x18
 10169 6d05 07       		.uleb128 0x7
 10170 6d06 5F5F756E 		.ascii "__unused3\0"
 10170      75736564 
 10170      3300
 10171 6d10 49       		.byte	0x49
 10172 6d11 67       		.byte	0x67
 10173 6d12 12       		.byte	0x12
 10174 6d13 19460000 		.long	0x4619
 10175 6d17 1A       		.byte	0x1a
 10176 6d18 07       		.uleb128 0x7
 10177 6d19 5F5F6D78 		.ascii "__mxcsr\0"
 10177      63737200 
 10178 6d21 49       		.byte	0x49
 10179 6d22 68       		.byte	0x68
 10180 6d23 12       		.byte	0x12
 10181 6d24 AB490000 		.long	0x49ab
 10182 6d28 1C       		.byte	0x1c
 10183 6d29 00       		.byte	0
 10184 6d2a 08       		.uleb128 0x8
 10185 6d2b 66656E76 		.ascii "fenv_t\0"
 10185      5F7400
 10186 6d32 49       		.byte	0x49
 10187 6d33 69       		.byte	0x69
 10188 6d34 03       		.byte	0x3
 10189 6d35 0A6C0000 		.long	0x6c0a
 10190 6d39 69       		.uleb128 0x69
 10191 6d3a 10       		.byte	0x10
 10192 6d3b 4A       		.byte	0x4a
 10193 6d3c 14       		.byte	0x14
 10194 6d3d 10       		.byte	0x10
 10195 6d3e 39696D61 		.ascii "9imaxdiv_t\0"
 10195      78646976 
 10195      5F7400
 10196 6d49 696D0000 		.long	0x6d69
 10197 6d4d 07       		.uleb128 0x7
 10198 6d4e 71756F74 		.ascii "quot\0"
 10198      00
 10199 6d53 4A       		.byte	0x4a
 10200 6d54 15       		.byte	0x15
GAS LISTING C:\Users\gabri\AppData\Local\Temp\cc5DSkcw.s 			page 235


 10201 6d55 0B       		.byte	0xb
 10202 6d56 856A0000 		.long	0x6a85
 10203 6d5a 00       		.byte	0
 10204 6d5b 07       		.uleb128 0x7
 10205 6d5c 72656D00 		.ascii "rem\0"
 10206 6d60 4A       		.byte	0x4a
 10207 6d61 16       		.byte	0x16
 10208 6d62 0B       		.byte	0xb
 10209 6d63 856A0000 		.long	0x6a85
 10210 6d67 08       		.byte	0x8
 10211 6d68 00       		.byte	0
 10212 6d69 08       		.uleb128 0x8
 10213 6d6a 696D6178 		.ascii "imaxdiv_t\0"
 10213      6469765F 
 10213      7400
 10214 6d74 4A       		.byte	0x4a
 10215 6d75 17       		.byte	0x17
 10216 6d76 04       		.byte	0x4
 10217 6d77 396D0000 		.long	0x6d39
 10218 6d7b 03       		.uleb128 0x3
 10219 6d7c 696D6178 		.ascii "imaxdiv\0"
 10219      64697600 
 10220 6d84 4A       		.byte	0x4a
 10221 6d85 1C01     		.word	0x11c
 10222 6d87 13       		.byte	0x13
 10223 6d88 696D0000 		.long	0x6d69
 10224 6d8c 9B6D0000 		.long	0x6d9b
 10225 6d90 01       		.uleb128 0x1
 10226 6d91 856A0000 		.long	0x6a85
 10227 6d95 01       		.uleb128 0x1
 10228 6d96 856A0000 		.long	0x6a85
 10229 6d9a 00       		.byte	0
 10230 6d9b 03       		.uleb128 0x3
 10231 6d9c 73747274 		.ascii "strtoimax\0"
 10231      6F696D61 
 10231      7800
 10232 6da6 4A       		.byte	0x4a
 10233 6da7 2001     		.word	0x120
 10234 6da9 12       		.byte	0x12
 10235 6daa 856A0000 		.long	0x6a85
 10236 6dae C26D0000 		.long	0x6dc2
 10237 6db2 01       		.uleb128 0x1
 10238 6db3 B54E0000 		.long	0x4eb5
 10239 6db7 01       		.uleb128 0x1
 10240 6db8 254D0000 		.long	0x4d25
 10241 6dbc 01       		.uleb128 0x1
 10242 6dbd 45460000 		.long	0x4645
 10243 6dc1 00       		.byte	0
 10244 6dc2 03       		.uleb128 0x3
 10245 6dc3 73747274 		.ascii "strtoumax\0"
 10245      6F756D61 
 10245      7800
 10246 6dcd 4A       		.byte	0x4a
 10247 6dce 2201     		.word	0x122
 10248 6dd0 13       		.byte	0x13
 10249 6dd1 9B6A0000 		.long	0x6a9b
 10250 6dd5 E96D0000 		.long	0x6de9
GAS LISTING C:\Users\gabri\AppData\Local\Temp\cc5DSkcw.s 			page 236


 10251 6dd9 01       		.uleb128 0x1
 10252 6dda B54E0000 		.long	0x4eb5
 10253 6dde 01       		.uleb128 0x1
 10254 6ddf 254D0000 		.long	0x4d25
 10255 6de3 01       		.uleb128 0x1
 10256 6de4 45460000 		.long	0x4645
 10257 6de8 00       		.byte	0
 10258 6de9 03       		.uleb128 0x3
 10259 6dea 77637374 		.ascii "wcstoimax\0"
 10259      6F696D61 
 10259      7800
 10260 6df4 4A       		.byte	0x4a
 10261 6df5 2501     		.word	0x125
 10262 6df7 12       		.byte	0x12
 10263 6df8 856A0000 		.long	0x6a85
 10264 6dfc 106E0000 		.long	0x6e10
 10265 6e00 01       		.uleb128 0x1
 10266 6e01 B64C0000 		.long	0x4cb6
 10267 6e05 01       		.uleb128 0x1
 10268 6e06 484D0000 		.long	0x4d48
 10269 6e0a 01       		.uleb128 0x1
 10270 6e0b 45460000 		.long	0x4645
 10271 6e0f 00       		.byte	0
 10272 6e10 03       		.uleb128 0x3
 10273 6e11 77637374 		.ascii "wcstoumax\0"
 10273      6F756D61 
 10273      7800
 10274 6e1b 4A       		.byte	0x4a
 10275 6e1c 2701     		.word	0x127
 10276 6e1e 13       		.byte	0x13
 10277 6e1f 9B6A0000 		.long	0x6a9b
 10278 6e23 376E0000 		.long	0x6e37
 10279 6e27 01       		.uleb128 0x1
 10280 6e28 B64C0000 		.long	0x4cb6
 10281 6e2c 01       		.uleb128 0x1
 10282 6e2d 484D0000 		.long	0x4d48
 10283 6e31 01       		.uleb128 0x1
 10284 6e32 45460000 		.long	0x4645
 10285 6e36 00       		.byte	0
 10286 6e37 0B       		.uleb128 0xb
 10287 6e38 6D627274 		.ascii "mbrtoc16\0"
 10287      6F633136 
 10287      00
 10288 6e41 4B       		.byte	0x4b
 10289 6e42 32       		.byte	0x32
 10290 6e43 08       		.byte	0x8
 10291 6e44 A3450000 		.long	0x45a3
 10292 6e48 616E0000 		.long	0x6e61
 10293 6e4c 01       		.uleb128 0x1
 10294 6e4d 266B0000 		.long	0x6b26
 10295 6e51 01       		.uleb128 0x1
 10296 6e52 B54E0000 		.long	0x4eb5
 10297 6e56 01       		.uleb128 0x1
 10298 6e57 A3450000 		.long	0x45a3
 10299 6e5b 01       		.uleb128 0x1
 10300 6e5c 28610000 		.long	0x6128
 10301 6e60 00       		.byte	0
GAS LISTING C:\Users\gabri\AppData\Local\Temp\cc5DSkcw.s 			page 237


 10302 6e61 0B       		.uleb128 0xb
 10303 6e62 63313672 		.ascii "c16rtomb\0"
 10303      746F6D62 
 10303      00
 10304 6e6b 4B       		.byte	0x4b
 10305 6e6c 37       		.byte	0x37
 10306 6e6d 08       		.byte	0x8
 10307 6e6e A3450000 		.long	0x45a3
 10308 6e72 866E0000 		.long	0x6e86
 10309 6e76 01       		.uleb128 0x1
 10310 6e77 89490000 		.long	0x4989
 10311 6e7b 01       		.uleb128 0x1
 10312 6e7c AD6A0000 		.long	0x6aad
 10313 6e80 01       		.uleb128 0x1
 10314 6e81 28610000 		.long	0x6128
 10315 6e85 00       		.byte	0
 10316 6e86 0B       		.uleb128 0xb
 10317 6e87 6D627274 		.ascii "mbrtoc32\0"
 10317      6F633332 
 10317      00
 10318 6e90 4B       		.byte	0x4b
 10319 6e91 3B       		.byte	0x3b
 10320 6e92 08       		.byte	0x8
 10321 6e93 A3450000 		.long	0x45a3
 10322 6e97 B06E0000 		.long	0x6eb0
 10323 6e9b 01       		.uleb128 0x1
 10324 6e9c 2C6B0000 		.long	0x6b2c
 10325 6ea0 01       		.uleb128 0x1
 10326 6ea1 B54E0000 		.long	0x4eb5
 10327 6ea5 01       		.uleb128 0x1
 10328 6ea6 A3450000 		.long	0x45a3
 10329 6eaa 01       		.uleb128 0x1
 10330 6eab 28610000 		.long	0x6128
 10331 6eaf 00       		.byte	0
 10332 6eb0 0B       		.uleb128 0xb
 10333 6eb1 63333272 		.ascii "c32rtomb\0"
 10333      746F6D62 
 10333      00
 10334 6eba 4B       		.byte	0x4b
 10335 6ebb 40       		.byte	0x40
 10336 6ebc 08       		.byte	0x8
 10337 6ebd A3450000 		.long	0x45a3
 10338 6ec1 D56E0000 		.long	0x6ed5
 10339 6ec5 01       		.uleb128 0x1
 10340 6ec6 89490000 		.long	0x4989
 10341 6eca 01       		.uleb128 0x1
 10342 6ecb B96A0000 		.long	0x6ab9
 10343 6ecf 01       		.uleb128 0x1
 10344 6ed0 28610000 		.long	0x6128
 10345 6ed4 00       		.byte	0
 10346 6ed5 05       		.uleb128 0x5
 10347 6ed6 08       		.byte	0x8
 10348 6ed7 461C0000 		.long	0x1c46
 10349 6edb 0A       		.uleb128 0xa
 10350 6edc 871C0000 		.long	0x1c87
 10351 6ee0 0A       		.uleb128 0xa
 10352 6ee1 BA1C0000 		.long	0x1cba
GAS LISTING C:\Users\gabri\AppData\Local\Temp\cc5DSkcw.s 			page 238


 10353 6ee5 9501     		.uleb128 0x95
 10354 6ee7 91240000 		.long	0x2491
 10355 6eeb 09       		.uleb128 0x9
 10356 6eec 03       		.byte	0x3
 10357 6eed 00000000 		.quad	_ZStL8__ioinit
 10357      00000000 
 10358 6ef5 0A       		.uleb128 0xa
 10359 6ef6 35450000 		.long	0x4535
 10360 6efa 05       		.uleb128 0x5
 10361 6efb 08       		.byte	0x8
 10362 6efc 09680000 		.long	0x6809
 10363 6f00 04       		.uleb128 0x4
 10364 6f01 FA6E0000 		.long	0x6efa
 10365 6f05 3F       		.uleb128 0x3f
 10366 6f06 006F0000 		.long	0x6f00
 10367 6f0a 3F       		.uleb128 0x3f
 10368 6f0b FA6E0000 		.long	0x6efa
 10369 6f0f 05       		.uleb128 0x5
 10370 6f10 08       		.byte	0x8
 10371 6f11 B2450000 		.long	0x45b2
 10372 6f15 04       		.uleb128 0x4
 10373 6f16 0F6F0000 		.long	0x6f0f
 10374 6f1a 3F       		.uleb128 0x3f
 10375 6f1b 156F0000 		.long	0x6f15
 10376 6f1f 3F       		.uleb128 0x3f
 10377 6f20 0F6F0000 		.long	0x6f0f
 10378 6f24 05       		.uleb128 0x5
 10379 6f25 08       		.byte	0x8
 10380 6f26 F3260000 		.long	0x26f3
 10381 6f2a 05       		.uleb128 0x5
 10382 6f2b 08       		.byte	0x8
 10383 6f2c 31280000 		.long	0x2831
 10384 6f30 05       		.uleb128 0x5
 10385 6f31 08       		.byte	0x8
 10386 6f32 942A0000 		.long	0x2a94
 10387 6f36 05       		.uleb128 0x5
 10388 6f37 08       		.byte	0x8
 10389 6f38 432C0000 		.long	0x2c43
 10390 6f3c 05       		.uleb128 0x5
 10391 6f3d 08       		.byte	0x8
 10392 6f3e AF2D0000 		.long	0x2daf
 10393 6f42 05       		.uleb128 0x5
 10394 6f43 08       		.byte	0x8
 10395 6f44 792F0000 		.long	0x2f79
 10396 6f48 05       		.uleb128 0x5
 10397 6f49 08       		.byte	0x8
 10398 6f4a 24300000 		.long	0x3024
 10399 6f4e 05       		.uleb128 0x5
 10400 6f4f 08       		.byte	0x8
 10401 6f50 62300000 		.long	0x3062
 10402 6f54 05       		.uleb128 0x5
 10403 6f55 08       		.byte	0x8
 10404 6f56 A1300000 		.long	0x30a1
 10405 6f5a 0A       		.uleb128 0xa
 10406 6f5b DF300000 		.long	0x30df
 10407 6f5f 0A       		.uleb128 0xa
 10408 6f60 F4300000 		.long	0x30f4
GAS LISTING C:\Users\gabri\AppData\Local\Temp\cc5DSkcw.s 			page 239


 10409 6f64 0A       		.uleb128 0xa
 10410 6f65 0A310000 		.long	0x310a
 10411 6f69 05       		.uleb128 0x5
 10412 6f6a 08       		.byte	0x8
 10413 6f6b E3310000 		.long	0x31e3
 10414 6f6f 29       		.uleb128 0x29
 10415 6f70 AB490000 		.long	0x49ab
 10416 6f74 816F0000 		.long	0x6f81
 10417 6f78 9601     		.uleb128 0x96
 10418 6f7a B2450000 		.long	0x45b2
 10419 6f7e 6F02     		.word	0x26f
 10420 6f80 00       		.byte	0
 10421 6f81 0A       		.uleb128 0xa
 10422 6f82 4F3A0000 		.long	0x3a4f
 10423 6f86 0A       		.uleb128 0xa
 10424 6f87 5E3A0000 		.long	0x3a5e
 10425 6f8b 0A       		.uleb128 0xa
 10426 6f8c 6E3A0000 		.long	0x3a6e
 10427 6f90 0A       		.uleb128 0xa
 10428 6f91 803A0000 		.long	0x3a80
 10429 6f95 0A       		.uleb128 0xa
 10430 6f96 913A0000 		.long	0x3a91
 10431 6f9a 0A       		.uleb128 0xa
 10432 6f9b A53A0000 		.long	0x3aa5
 10433 6f9f 0A       		.uleb128 0xa
 10434 6fa0 B43A0000 		.long	0x3ab4
 10435 6fa4 0A       		.uleb128 0xa
 10436 6fa5 C63A0000 		.long	0x3ac6
 10437 6fa9 0A       		.uleb128 0xa
 10438 6faa D33A0000 		.long	0x3ad3
 10439 6fae 0A       		.uleb128 0xa
 10440 6faf E23A0000 		.long	0x3ae2
 10441 6fb3 0A       		.uleb128 0xa
 10442 6fb4 F23A0000 		.long	0x3af2
 10443 6fb8 0A       		.uleb128 0xa
 10444 6fb9 EA3B0000 		.long	0x3bea
 10445 6fbd 0A       		.uleb128 0xa
 10446 6fbe 023C0000 		.long	0x3c02
 10447 6fc2 0A       		.uleb128 0xa
 10448 6fc3 1A3C0000 		.long	0x3c1a
 10449 6fc7 0A       		.uleb128 0xa
 10450 6fc8 323C0000 		.long	0x3c32
 10451 6fcc 0A       		.uleb128 0xa
 10452 6fcd 4A3C0000 		.long	0x3c4a
 10453 6fd1 0A       		.uleb128 0xa
 10454 6fd2 623C0000 		.long	0x3c62
 10455 6fd6 0A       		.uleb128 0xa
 10456 6fd7 763C0000 		.long	0x3c76
 10457 6fdb 0A       		.uleb128 0xa
 10458 6fdc 8F3C0000 		.long	0x3c8f
 10459 6fe0 0A       		.uleb128 0xa
 10460 6fe1 AA3C0000 		.long	0x3caa
 10461 6fe5 0A       		.uleb128 0xa
 10462 6fe6 C53C0000 		.long	0x3cc5
 10463 6fea 0A       		.uleb128 0xa
 10464 6feb DE3C0000 		.long	0x3cde
 10465 6fef 0A       		.uleb128 0xa
GAS LISTING C:\Users\gabri\AppData\Local\Temp\cc5DSkcw.s 			page 240


 10466 6ff0 F43C0000 		.long	0x3cf4
 10467 6ff4 0A       		.uleb128 0xa
 10468 6ff5 0E3D0000 		.long	0x3d0e
 10469 6ff9 0A       		.uleb128 0xa
 10470 6ffa 383E0000 		.long	0x3e38
 10471 6ffe 0A       		.uleb128 0xa
 10472 6fff 4F3E0000 		.long	0x3e4f
 10473 7003 0A       		.uleb128 0xa
 10474 7004 643E0000 		.long	0x3e64
 10475 7008 0A       		.uleb128 0xa
 10476 7009 7A3E0000 		.long	0x3e7a
 10477 700d 0A       		.uleb128 0xa
 10478 700e 913E0000 		.long	0x3e91
 10479 7012 0A       		.uleb128 0xa
 10480 7013 A63E0000 		.long	0x3ea6
 10481 7017 0A       		.uleb128 0xa
 10482 7018 BB3E0000 		.long	0x3ebb
 10483 701c 0A       		.uleb128 0xa
 10484 701d D03E0000 		.long	0x3ed0
 10485 7021 0A       		.uleb128 0xa
 10486 7022 E83E0000 		.long	0x3ee8
 10487 7026 0A       		.uleb128 0xa
 10488 7027 FD3E0000 		.long	0x3efd
 10489 702b 0A       		.uleb128 0xa
 10490 702c 123F0000 		.long	0x3f12
 10491 7030 0A       		.uleb128 0xa
 10492 7031 2B3F0000 		.long	0x3f2b
 10493 7035 0A       		.uleb128 0xa
 10494 7036 453F0000 		.long	0x3f45
 10495 703a 0A       		.uleb128 0xa
 10496 703b CA240000 		.long	0x24ca
 10497 703f 2A       		.uleb128 0x2a
 10498 7040 08       		.byte	0x8
 10499 7041 4C460000 		.long	0x464c
 10500 7045 4F       		.uleb128 0x4f
 10501 7046 02       		.byte	0x2
 10502 7047 0B       		.byte	0xb
 10503 7048 11       		.byte	0x11
 10504 7049 F9000000 		.long	0xf9
 10505 704d 57       		.uleb128 0x57
 10506 704e 32000000 		.secrel32	.LASF35
 10507 7052 18       		.byte	0x18
 10508 7053 02       		.byte	0x2
 10509 7054 0D       		.byte	0xd
 10510 7055 07       		.byte	0x7
 10511 7056 C8730000 		.long	0x73c8
 10512 705a 54       		.uleb128 0x54
 10513 705b 1C010000 		.secrel32	.LASF38
 10514 705f 08       		.byte	0x8
 10515 7060 02       		.byte	0x2
 10516 7061 0F       		.byte	0xf
 10517 7062 0C       		.byte	0xc
 10518 7063 01       		.byte	0x1
 10519 7064 B1700000 		.long	0x70b1
 10520 7068 4C       		.uleb128 0x4c
 10521 7069 32010000 		.secrel32	.LASF36
 10522 706d 02       		.byte	0x2
GAS LISTING C:\Users\gabri\AppData\Local\Temp\cc5DSkcw.s 			page 241


 10523 706e 0F       		.byte	0xf
 10524 706f 1C       		.byte	0x1c
 10525 7070 45460000 		.long	0x4645
 10526 7074 00       		.byte	0
 10527 7075 4C       		.uleb128 0x4c
 10528 7076 56010000 		.secrel32	.LASF37
 10529 707a 02       		.byte	0x2
 10530 707b 0F       		.byte	0xf
 10531 707c 3A       		.byte	0x3a
 10532 707d 45460000 		.long	0x4645
 10533 7081 04       		.byte	0x4
 10534 7082 9701     		.uleb128 0x97
 10535 7084 1C010000 		.secrel32	.LASF38
 10536 7088 5F5A4E31 		.ascii "_ZN10MeuArquivo9cabecalhoC4Ev\0"
 10536      304D6575 
 10536      41727175 
 10536      69766F39 
 10536      63616265 
 10537 70a6 AA700000 		.long	0x70aa
 10538 70aa 06       		.uleb128 0x6
 10539 70ab 8E810000 		.long	0x818e
 10540 70af 00       		.byte	0
 10541 70b0 00       		.byte	0
 10542 70b1 54       		.uleb128 0x54
 10543 70b2 F4000000 		.secrel32	.LASF39
 10544 70b6 08       		.byte	0x8
 10545 70b7 02       		.byte	0x2
 10546 70b8 10       		.byte	0x10
 10547 70b9 0C       		.byte	0xc
 10548 70ba 01       		.byte	0x1
 10549 70bb DA700000 		.long	0x70da
 10550 70bf 4C       		.uleb128 0x4c
 10551 70c0 32010000 		.secrel32	.LASF36
 10552 70c4 02       		.byte	0x2
 10553 70c5 10       		.byte	0x10
 10554 70c6 1B       		.byte	0x1b
 10555 70c7 45460000 		.long	0x4645
 10556 70cb 00       		.byte	0
 10557 70cc 4C       		.uleb128 0x4c
 10558 70cd 56010000 		.secrel32	.LASF37
 10559 70d1 02       		.byte	0x2
 10560 70d2 10       		.byte	0x10
 10561 70d3 2B       		.byte	0x2b
 10562 70d4 45460000 		.long	0x4645
 10563 70d8 04       		.byte	0x4
 10564 70d9 00       		.byte	0
 10565 70da 54       		.uleb128 0x54
 10566 70db 7E000000 		.secrel32	.LASF40
 10567 70df 08       		.byte	0x8
 10568 70e0 02       		.byte	0x2
 10569 70e1 11       		.byte	0x11
 10570 70e2 14       		.byte	0x14
 10571 70e3 01       		.byte	0x1
 10572 70e4 08710000 		.long	0x7108
 10573 70e8 07       		.uleb128 0x7
 10574 70e9 70726F78 		.ascii "prox\0"
 10574      00
GAS LISTING C:\Users\gabri\AppData\Local\Temp\cc5DSkcw.s 			page 242


 10575 70ee 02       		.byte	0x2
 10576 70ef 11       		.byte	0x11
 10577 70f0 29       		.byte	0x29
 10578 70f1 45460000 		.long	0x4645
 10579 70f5 00       		.byte	0
 10580 70f6 07       		.uleb128 0x7
 10581 70f7 74616D61 		.ascii "tamanho\0"
 10581      6E686F00 
 10582 70ff 02       		.byte	0x2
 10583 7100 11       		.byte	0x11
 10584 7101 33       		.byte	0x33
 10585 7102 45460000 		.long	0x4645
 10586 7106 04       		.byte	0x4
 10587 7107 00       		.byte	0
 10588 7108 6A       		.uleb128 0x6a
 10589 7109 1C010000 		.secrel32	.LASF38
 10590 710d 02       		.byte	0x2
 10591 710e 0F       		.byte	0xf
 10592 710f 3F       		.byte	0x3f
 10593 7110 5A700000 		.long	0x705a
 10594 7114 00       		.byte	0
 10595 7115 01       		.byte	0x1
 10596 7116 6A       		.uleb128 0x6a
 10597 7117 F4000000 		.secrel32	.LASF39
 10598 711b 02       		.byte	0x2
 10599 711c 10       		.byte	0x10
 10600 711d 39       		.byte	0x39
 10601 711e B1700000 		.long	0x70b1
 10602 7122 08       		.byte	0x8
 10603 7123 01       		.byte	0x1
 10604 7124 3B       		.uleb128 0x3b
 10605 7125 32000000 		.secrel32	.LASF35
 10606 7129 02       		.byte	0x2
 10607 712a 15       		.byte	0x15
 10608 712b 05       		.byte	0x5
 10609 712c 5F5A4E31 		.ascii "_ZN10MeuArquivoC4Ev\0"
 10609      304D6575 
 10609      41727175 
 10609      69766F43 
 10609      34457600 
 10610 7140 01       		.byte	0x1
 10611 7141 49710000 		.long	0x7149
 10612 7145 4F710000 		.long	0x714f
 10613 7149 06       		.uleb128 0x6
 10614 714a C8730000 		.long	0x73c8
 10615 714e 00       		.byte	0
 10616 714f 31       		.uleb128 0x31
 10617 7150 7E4D6575 		.ascii "~MeuArquivo\0"
 10617      41727175 
 10617      69766F00 
 10618 715c 02       		.byte	0x2
 10619 715d 1C       		.byte	0x1c
 10620 715e 05       		.byte	0x5
 10621 715f 5F5A4E31 		.ascii "_ZN10MeuArquivoD4Ev\0"
 10621      304D6575 
 10621      41727175 
 10621      69766F44 
GAS LISTING C:\Users\gabri\AppData\Local\Temp\cc5DSkcw.s 			page 243


 10621      34457600 
 10622 7173 01       		.byte	0x1
 10623 7174 7C710000 		.long	0x717c
 10624 7178 87710000 		.long	0x7187
 10625 717c 06       		.uleb128 0x6
 10626 717d C8730000 		.long	0x73c8
 10627 7181 06       		.uleb128 0x6
 10628 7182 45460000 		.long	0x4645
 10629 7186 00       		.byte	0
 10630 7187 31       		.uleb128 0x31
 10631 7188 696E7365 		.ascii "inserePalavra\0"
 10631      72655061 
 10631      6C617672 
 10631      6100
 10632 7196 02       		.byte	0x2
 10633 7197 21       		.byte	0x21
 10634 7198 0A       		.byte	0xa
 10635 7199 5F5A4E31 		.ascii "_ZN10MeuArquivo13inserePalavraEPc\0"
 10635      304D6575 
 10635      41727175 
 10635      69766F31 
 10635      33696E73 
 10636 71bb 01       		.byte	0x1
 10637 71bc C4710000 		.long	0x71c4
 10638 71c0 CF710000 		.long	0x71cf
 10639 71c4 06       		.uleb128 0x6
 10640 71c5 C8730000 		.long	0x73c8
 10641 71c9 01       		.uleb128 0x1
 10642 71ca 89490000 		.long	0x4989
 10643 71ce 00       		.byte	0
 10644 71cf 6B       		.uleb128 0x6b
 10645 71d0 696E7365 		.ascii "inserePalavra1\0"
 10645      72655061 
 10645      6C617672 
 10645      613100
 10646 71df 02       		.byte	0x2
 10647 71e0 44       		.byte	0x44
 10648 71e1 09       		.byte	0x9
 10649 71e2 5F5A4E31 		.ascii "_ZN10MeuArquivo14inserePalavra1EPc\0"
 10649      304D6575 
 10649      41727175 
 10649      69766F31 
 10649      34696E73 
 10650 7205 45460000 		.long	0x4645
 10651 7209 01       		.byte	0x1
 10652 720a 12720000 		.long	0x7212
 10653 720e 1D720000 		.long	0x721d
 10654 7212 06       		.uleb128 0x6
 10655 7213 C8730000 		.long	0x73c8
 10656 7217 01       		.uleb128 0x1
 10657 7218 89490000 		.long	0x4989
 10658 721c 00       		.byte	0
 10659 721d 31       		.uleb128 0x31
 10660 721e 70726F78 		.ascii "proximoOffset\0"
 10660      696D6F4F 
 10660      66667365 
 10660      7400
GAS LISTING C:\Users\gabri\AppData\Local\Temp\cc5DSkcw.s 			page 244


 10661 722c 02       		.byte	0x2
 10662 722d 66       		.byte	0x66
 10663 722e 0A       		.byte	0xa
 10664 722f 5F5A4E31 		.ascii "_ZN10MeuArquivo13proximoOffsetEii\0"
 10664      304D6575 
 10664      41727175 
 10664      69766F31 
 10664      3370726F 
 10665 7251 01       		.byte	0x1
 10666 7252 5A720000 		.long	0x725a
 10667 7256 6A720000 		.long	0x726a
 10668 725a 06       		.uleb128 0x6
 10669 725b C8730000 		.long	0x73c8
 10670 725f 01       		.uleb128 0x1
 10671 7260 45460000 		.long	0x4645
 10672 7264 01       		.uleb128 0x1
 10673 7265 45460000 		.long	0x4645
 10674 7269 00       		.byte	0
 10675 726a 31       		.uleb128 0x31
 10676 726b 61747561 		.ascii "atualizaCabecalho\0"
 10676      6C697A61 
 10676      43616265 
 10676      63616C68 
 10676      6F00
 10677 727d 02       		.byte	0x2
 10678 727e 79       		.byte	0x79
 10679 727f 0A       		.byte	0xa
 10680 7280 5F5A4E31 		.ascii "_ZN10MeuArquivo17atualizaCabecalhoEi\0"
 10680      304D6575 
 10680      41727175 
 10680      69766F31 
 10680      37617475 
 10681 72a5 01       		.byte	0x1
 10682 72a6 AE720000 		.long	0x72ae
 10683 72aa B9720000 		.long	0x72b9
 10684 72ae 06       		.uleb128 0x6
 10685 72af C8730000 		.long	0x73c8
 10686 72b3 01       		.uleb128 0x1
 10687 72b4 45460000 		.long	0x4645
 10688 72b8 00       		.byte	0
 10689 72b9 31       		.uleb128 0x31
 10690 72ba 72656D6F 		.ascii "removePalavra\0"
 10690      76655061 
 10690      6C617672 
 10690      6100
 10691 72c8 02       		.byte	0x2
 10692 72c9 7E       		.byte	0x7e
 10693 72ca 0A       		.byte	0xa
 10694 72cb 5F5A4E31 		.ascii "_ZN10MeuArquivo13removePalavraEi\0"
 10694      304D6575 
 10694      41727175 
 10694      69766F31 
 10694      3372656D 
 10695 72ec 01       		.byte	0x1
 10696 72ed F5720000 		.long	0x72f5
 10697 72f1 00730000 		.long	0x7300
 10698 72f5 06       		.uleb128 0x6
GAS LISTING C:\Users\gabri\AppData\Local\Temp\cc5DSkcw.s 			page 245


 10699 72f6 C8730000 		.long	0x73c8
 10700 72fa 01       		.uleb128 0x1
 10701 72fb 45460000 		.long	0x4645
 10702 72ff 00       		.byte	0
 10703 7300 6B       		.uleb128 0x6b
 10704 7301 62757363 		.ascii "buscaPalavra\0"
 10704      6150616C 
 10704      61767261 
 10704      00
 10705 730e 02       		.byte	0x2
 10706 730f 97       		.byte	0x97
 10707 7310 09       		.byte	0x9
 10708 7311 5F5A4E31 		.ascii "_ZN10MeuArquivo12buscaPalavraEPc\0"
 10708      304D6575 
 10708      41727175 
 10708      69766F31 
 10708      32627573 
 10709 7332 45460000 		.long	0x4645
 10710 7336 01       		.byte	0x1
 10711 7337 3F730000 		.long	0x733f
 10712 733b 4A730000 		.long	0x734a
 10713 733f 06       		.uleb128 0x6
 10714 7340 C8730000 		.long	0x73c8
 10715 7344 01       		.uleb128 0x1
 10716 7345 89490000 		.long	0x4989
 10717 7349 00       		.byte	0
 10718 734a 07       		.uleb128 0x7
 10719 734b 666400   		.ascii "fd\0"
 10720 734e 02       		.byte	0x2
 10721 734f B8       		.byte	0xb8
 10722 7350 0B       		.byte	0xb
 10723 7351 FB560000 		.long	0x56fb
 10724 7355 10       		.byte	0x10
 10725 7356 4E       		.uleb128 0x4e
 10726 7357 73756273 		.ascii "substituiBarraNporBarraZero\0"
 10726      74697475 
 10726      69426172 
 10726      72614E70 
 10726      6F724261 
 10727 7373 02       		.byte	0x2
 10728 7374 BB       		.byte	0xbb
 10729 7375 0A       		.byte	0xa
 10730 7376 5F5A4E31 		.ascii "_ZN10MeuArquivo27substituiBarraNporBarraZeroEPc\0"
 10730      304D6575 
 10730      41727175 
 10730      69766F32 
 10730      37737562 
 10731 73a6 AE730000 		.long	0x73ae
 10732 73aa B9730000 		.long	0x73b9
 10733 73ae 06       		.uleb128 0x6
 10734 73af C8730000 		.long	0x73c8
 10735 73b3 01       		.uleb128 0x1
 10736 73b4 89490000 		.long	0x4989
 10737 73b8 00       		.byte	0
 10738 73b9 9801     		.uleb128 0x98
 10739 73bb 7E000000 		.secrel32	.LASF40
 10740 73bf 02       		.byte	0x2
GAS LISTING C:\Users\gabri\AppData\Local\Temp\cc5DSkcw.s 			page 246


 10741 73c0 11       		.byte	0x11
 10742 73c1 3E       		.byte	0x3e
 10743 73c2 DA700000 		.long	0x70da
 10744 73c6 01       		.byte	0x1
 10745 73c7 00       		.byte	0
 10746 73c8 05       		.uleb128 0x5
 10747 73c9 08       		.byte	0x8
 10748 73ca 4D700000 		.long	0x704d
 10749 73ce 04       		.uleb128 0x4
 10750 73cf C8730000 		.long	0x73c8
 10751 73d3 05       		.uleb128 0x5
 10752 73d4 08       		.byte	0x8
 10753 73d5 B61A0000 		.long	0x1ab6
 10754 73d9 3F       		.uleb128 0x3f
 10755 73da D3730000 		.long	0x73d3
 10756 73de 05       		.uleb128 0x5
 10757 73df 08       		.byte	0x8
 10758 73e0 7F400000 		.long	0x407f
 10759 73e4 2B       		.uleb128 0x2b
 10760 73e5 5F5A4E53 		.ascii "_ZNSt17integral_constantIbLb0EE5valueE\0"
 10760      74313769 
 10760      6E746567 
 10760      72616C5F 
 10760      636F6E73 
 10761 740c 000D0000 		.long	0xd00
 10762 7410 00       		.byte	0
 10763 7411 2B       		.uleb128 0x2b
 10764 7412 5F5A4E53 		.ascii "_ZNSt17integral_constantIbLb1EE5valueE\0"
 10764      74313769 
 10764      6E746567 
 10764      72616C5F 
 10764      636F6E73 
 10765 7439 0C0E0000 		.long	0xe0c
 10766 743d 01       		.byte	0x1
 10767 743e 2B       		.uleb128 0x2b
 10768 743f 5F5A4E53 		.ascii "_ZNSt17integral_constantIyLy0EE5valueE\0"
 10768      74313769 
 10768      6E746567 
 10768      72616C5F 
 10768      636F6E73 
 10769 7466 260F0000 		.long	0xf26
 10770 746a 00       		.byte	0
 10771 746b 55       		.uleb128 0x55
 10772 746c 5F5A4E39 		.ascii "_ZN9__gnu_cxx24__numeric_traits_integerIiE5__minE\0"
 10772      5F5F676E 
 10772      755F6378 
 10772      7832345F 
 10772      5F6E756D 
 10773 749e E1410000 		.long	0x41e1
 10774 74a2 80808080 		.sleb128 -2147483648
 10774      78
 10775 74a7 56       		.uleb128 0x56
 10776 74a8 5F5A4E39 		.ascii "_ZN9__gnu_cxx24__numeric_traits_integerIiE5__maxE\0"
 10776      5F5F676E 
 10776      755F6378 
 10776      7832345F 
 10776      5F6E756D 
GAS LISTING C:\Users\gabri\AppData\Local\Temp\cc5DSkcw.s 			page 247


 10777 74da ED410000 		.long	0x41ed
 10778 74de FFFFFF7F 		.long	0x7fffffff
 10779 74e2 2B       		.uleb128 0x2b
 10780 74e3 5F5A4E39 		.ascii "_ZN9__gnu_cxx25__numeric_traits_floatingIfE16__max_exponent10E\0"
 10780      5F5F676E 
 10780      755F6378 
 10780      7832355F 
 10780      5F6E756D 
 10781 7522 69420000 		.long	0x4269
 10782 7526 26       		.byte	0x26
 10783 7527 40       		.uleb128 0x40
 10784 7528 5F5A4E39 		.ascii "_ZN9__gnu_cxx25__numeric_traits_floatingIdE16__max_exponent10E\0"
 10784      5F5F676E 
 10784      755F6378 
 10784      7832355F 
 10784      5F6E756D 
 10785 7567 CE420000 		.long	0x42ce
 10786 756b 3401     		.word	0x134
 10787 756d 40       		.uleb128 0x40
 10788 756e 5F5A4E39 		.ascii "_ZN9__gnu_cxx25__numeric_traits_floatingIeE16__max_exponent10E\0"
 10788      5F5F676E 
 10788      755F6378 
 10788      7832355F 
 10788      5F6E756D 
 10789 75ad 38430000 		.long	0x4338
 10790 75b1 4413     		.word	0x1344
 10791 75b3 2B       		.uleb128 0x2b
 10792 75b4 5F5A4E39 		.ascii "_ZN9__gnu_cxx24__numeric_traits_integerImE8__digitsE\0"
 10792      5F5F676E 
 10792      755F6378 
 10792      7832345F 
 10792      5F6E756D 
 10793 75e9 A7430000 		.long	0x43a7
 10794 75ed 20       		.byte	0x20
 10795 75ee 2B       		.uleb128 0x2b
 10796 75ef 5F5A4E39 		.ascii "_ZN9__gnu_cxx24__numeric_traits_integerIcE5__maxE\0"
 10796      5F5F676E 
 10796      755F6378 
 10796      7832345F 
 10796      5F6E756D 
 10797 7621 F1430000 		.long	0x43f1
 10798 7625 7F       		.byte	0x7f
 10799 7626 55       		.uleb128 0x55
 10800 7627 5F5A4E39 		.ascii "_ZN9__gnu_cxx24__numeric_traits_integerIsE5__minE\0"
 10800      5F5F676E 
 10800      755F6378 
 10800      7832345F 
 10800      5F6E756D 
 10801 7659 4C440000 		.long	0x444c
 10802 765d 80807E   		.sleb128 -32768
 10803 7660 40       		.uleb128 0x40
 10804 7661 5F5A4E39 		.ascii "_ZN9__gnu_cxx24__numeric_traits_integerIsE5__maxE\0"
 10804      5F5F676E 
 10804      755F6378 
 10804      7832345F 
 10804      5F6E756D 
 10805 7693 58440000 		.long	0x4458
GAS LISTING C:\Users\gabri\AppData\Local\Temp\cc5DSkcw.s 			page 248


 10806 7697 FF7F     		.word	0x7fff
 10807 7699 55       		.uleb128 0x55
 10808 769a 5F5A4E39 		.ascii "_ZN9__gnu_cxx24__numeric_traits_integerIxE5__minE\0"
 10808      5F5F676E 
 10808      755F6378 
 10808      7832345F 
 10808      5F6E756D 
 10809 76cc B7440000 		.long	0x44b7
 10810 76d0 80808080 		.sleb128 -9223372036854775808
 10810      80808080 
 10810      807F
 10811 76da 9901     		.uleb128 0x99
 10812 76dc 5F5A4E39 		.ascii "_ZN9__gnu_cxx24__numeric_traits_integerIxE5__maxE\0"
 10812      5F5F676E 
 10812      755F6378 
 10812      7832345F 
 10812      5F6E756D 
 10813 770e C3440000 		.long	0x44c3
 10814 7712 FFFFFFFF 		.quad	0x7fffffffffffffff
 10814      FFFFFF7F 
 10815 771a 12       		.uleb128 0x12
 10816 771b 5F5A4E53 		.ascii "_ZNSt5ratioILx1ELx1000000000EE3numE\0"
 10816      74357261 
 10816      74696F49 
 10816      4C783145 
 10816      4C783130 
 10817 773f 55280000 		.long	0x2855
 10818 7743 12       		.uleb128 0x12
 10819 7744 5F5A4E53 		.ascii "_ZNSt5ratioILx1ELx1000000000EE3denE\0"
 10819      74357261 
 10819      74696F49 
 10819      4C783145 
 10819      4C783130 
 10820 7768 63280000 		.long	0x2863
 10821 776c 2B       		.uleb128 0x2b
 10822 776d 5F5A4E53 		.ascii "_ZNSt17integral_constantIxLx1EE5valueE\0"
 10822      74313769 
 10822      6E746567 
 10822      72616C5F 
 10822      636F6E73 
 10823 7794 0E260000 		.long	0x260e
 10824 7798 01       		.byte	0x1
 10825 7799 56       		.uleb128 0x56
 10826 779a 5F5A4E53 		.ascii "_ZNSt17integral_constantIxLx1000000000EE5valueE\0"
 10826      74313769 
 10826      6E746567 
 10826      72616C5F 
 10826      636F6E73 
 10827 77ca 2E270000 		.long	0x272e
 10828 77ce 00CA9A3B 		.long	0x3b9aca00
 10829 77d2 12       		.uleb128 0x12
 10830 77d3 5F5A4E53 		.ascii "_ZNSt5ratioILx1000000000ELx1EE3numE\0"
 10830      74357261 
 10830      74696F49 
 10830      4C783130 
 10830      30303030 
 10831 77f7 AB280000 		.long	0x28ab
GAS LISTING C:\Users\gabri\AppData\Local\Temp\cc5DSkcw.s 			page 249


 10832 77fb 12       		.uleb128 0x12
 10833 77fc 5F5A4E53 		.ascii "_ZNSt5ratioILx1000000000ELx1EE3denE\0"
 10833      74357261 
 10833      74696F49 
 10833      4C783130 
 10833      30303030 
 10834 7820 BC280000 		.long	0x28bc
 10835 7824 12       		.uleb128 0x12
 10836 7825 5F5A4E53 		.ascii "_ZNSt5ratioILx1ELx1EE3numE\0"
 10836      74357261 
 10836      74696F49 
 10836      4C783145 
 10836      4C783145 
 10837 7840 F8280000 		.long	0x28f8
 10838 7844 12       		.uleb128 0x12
 10839 7845 5F5A4E53 		.ascii "_ZNSt5ratioILx1ELx1EE3denE\0"
 10839      74357261 
 10839      74696F49 
 10839      4C783145 
 10839      4C783145 
 10840 7860 06290000 		.long	0x2906
 10841 7864 12       		.uleb128 0x12
 10842 7865 5F5A4E53 		.ascii "_ZNSt5ratioILx3600ELx1EE3numE\0"
 10842      74357261 
 10842      74696F49 
 10842      4C783336 
 10842      3030454C 
 10843 7883 42290000 		.long	0x2942
 10844 7887 12       		.uleb128 0x12
 10845 7888 5F5A4E53 		.ascii "_ZNSt5ratioILx3600ELx1EE3denE\0"
 10845      74357261 
 10845      74696F49 
 10845      4C783336 
 10845      3030454C 
 10846 78a6 51290000 		.long	0x2951
 10847 78aa 12       		.uleb128 0x12
 10848 78ab 5F5A4E53 		.ascii "_ZNSt5ratioILx1ELx3600EE3numE\0"
 10848      74357261 
 10848      74696F49 
 10848      4C783145 
 10848      4C783336 
 10849 78c9 B22A0000 		.long	0x2ab2
 10850 78cd 12       		.uleb128 0x12
 10851 78ce 5F5A4E53 		.ascii "_ZNSt5ratioILx1ELx3600EE3denE\0"
 10851      74357261 
 10851      74696F49 
 10851      4C783145 
 10851      4C783336 
 10852 78ec C02A0000 		.long	0x2ac0
 10853 78f0 40       		.uleb128 0x40
 10854 78f1 5F5A4E53 		.ascii "_ZNSt17integral_constantIxLx3600EE5valueE\0"
 10854      74313769 
 10854      6E746567 
 10854      72616C5F 
 10854      636F6E73 
 10855 791b A5290000 		.long	0x29a5
 10856 791f 100E     		.word	0xe10
GAS LISTING C:\Users\gabri\AppData\Local\Temp\cc5DSkcw.s 			page 250


 10857 7921 12       		.uleb128 0x12
 10858 7922 5F5A4E53 		.ascii "_ZNSt5ratioILx60ELx1EE3numE\0"
 10858      74357261 
 10858      74696F49 
 10858      4C783630 
 10858      454C7831 
 10859 793e FC2A0000 		.long	0x2afc
 10860 7942 12       		.uleb128 0x12
 10861 7943 5F5A4E53 		.ascii "_ZNSt5ratioILx60ELx1EE3denE\0"
 10861      74357261 
 10861      74696F49 
 10861      4C783630 
 10861      454C7831 
 10862 795f 0A2B0000 		.long	0x2b0a
 10863 7963 12       		.uleb128 0x12
 10864 7964 5F5A4E53 		.ascii "_ZNSt5ratioILx1ELx60EE3numE\0"
 10864      74357261 
 10864      74696F49 
 10864      4C783145 
 10864      4C783630 
 10865 7980 5F2C0000 		.long	0x2c5f
 10866 7984 12       		.uleb128 0x12
 10867 7985 5F5A4E53 		.ascii "_ZNSt5ratioILx1ELx60EE3denE\0"
 10867      74357261 
 10867      74696F49 
 10867      4C783145 
 10867      4C783630 
 10868 79a1 6D2C0000 		.long	0x2c6d
 10869 79a5 2B       		.uleb128 0x2b
 10870 79a6 5F5A4E53 		.ascii "_ZNSt17integral_constantIxLx60EE5valueE\0"
 10870      74313769 
 10870      6E746567 
 10870      72616C5F 
 10870      636F6E73 
 10871 79ce 5B2B0000 		.long	0x2b5b
 10872 79d2 3C       		.byte	0x3c
 10873 79d3 12       		.uleb128 0x12
 10874 79d4 5F5A4E53 		.ascii "_ZNSt5ratioILx1ELx1000EE3numE\0"
 10874      74357261 
 10874      74696F49 
 10874      4C783145 
 10874      4C783130 
 10875 79f2 CD2D0000 		.long	0x2dcd
 10876 79f6 12       		.uleb128 0x12
 10877 79f7 5F5A4E53 		.ascii "_ZNSt5ratioILx1ELx1000EE3denE\0"
 10877      74357261 
 10877      74696F49 
 10877      4C783145 
 10877      4C783130 
 10878 7a15 DB2D0000 		.long	0x2ddb
 10879 7a19 40       		.uleb128 0x40
 10880 7a1a 5F5A4E53 		.ascii "_ZNSt17integral_constantIxLx1000EE5valueE\0"
 10880      74313769 
 10880      6E746567 
 10880      72616C5F 
 10880      636F6E73 
 10881 7a44 C02C0000 		.long	0x2cc0
GAS LISTING C:\Users\gabri\AppData\Local\Temp\cc5DSkcw.s 			page 251


 10882 7a48 E803     		.word	0x3e8
 10883 7a4a 12       		.uleb128 0x12
 10884 7a4b 5F5A4E53 		.ascii "_ZNSt5ratioILx1000ELx1EE3numE\0"
 10884      74357261 
 10884      74696F49 
 10884      4C783130 
 10884      3030454C 
 10885 7a69 192E0000 		.long	0x2e19
 10886 7a6d 12       		.uleb128 0x12
 10887 7a6e 5F5A4E53 		.ascii "_ZNSt5ratioILx1000ELx1EE3denE\0"
 10887      74357261 
 10887      74696F49 
 10887      4C783130 
 10887      3030454C 
 10888 7a8c 282E0000 		.long	0x2e28
 10889 7a90 12       		.uleb128 0x12
 10890 7a91 5F5A4E53 		.ascii "_ZNSt5ratioILx1ELx1000000EE3numE\0"
 10890      74357261 
 10890      74696F49 
 10890      4C783145 
 10890      4C783130 
 10891 7ab2 9A2F0000 		.long	0x2f9a
 10892 7ab6 12       		.uleb128 0x12
 10893 7ab7 5F5A4E53 		.ascii "_ZNSt5ratioILx1ELx1000000EE3denE\0"
 10893      74357261 
 10893      74696F49 
 10893      4C783145 
 10893      4C783130 
 10894 7ad8 A82F0000 		.long	0x2fa8
 10895 7adc 56       		.uleb128 0x56
 10896 7add 5F5A4E53 		.ascii "_ZNSt17integral_constantIxLx1000000EE5valueE\0"
 10896      74313769 
 10896      6E746567 
 10896      72616C5F 
 10896      636F6E73 
 10897 7b0a 7F2E0000 		.long	0x2e7f
 10898 7b0e 40420F00 		.long	0xf4240
 10899 7b12 12       		.uleb128 0x12
 10900 7b13 5F5A4E53 		.ascii "_ZNSt5ratioILx1000000ELx1EE3numE\0"
 10900      74357261 
 10900      74696F49 
 10900      4C783130 
 10900      30303030 
 10901 7b34 ED2F0000 		.long	0x2fed
 10902 7b38 12       		.uleb128 0x12
 10903 7b39 5F5A4E53 		.ascii "_ZNSt5ratioILx1000000ELx1EE3denE\0"
 10903      74357261 
 10903      74696F49 
 10903      4C783130 
 10903      30303030 
 10904 7b5a FE2F0000 		.long	0x2ffe
 10905 7b5e 12       		.uleb128 0x12
 10906 7b5f 5F5A4E53 		.ascii "_ZNSt23mersenne_twister_engineIjLy32ELy624ELy397ELy31ELj2567483615ELy11ELj4294967295ELy7EL
 10906      7432336D 
 10906      65727365 
 10906      6E6E655F 
 10906      74776973 
GAS LISTING C:\Users\gabri\AppData\Local\Temp\cc5DSkcw.s 			page 252


 10907 7bf8 85320000 		.long	0x3285
 10908 7bfc 2B       		.uleb128 0x2b
 10909 7bfd 5F5A4E53 		.ascii "_ZNSt17integral_constantIyLy8EE5valueE\0"
 10909      74313769 
 10909      6E746567 
 10909      72616C5F 
 10909      636F6E73 
 10910 7c24 913F0000 		.long	0x3f91
 10911 7c28 08       		.byte	0x8
 10912 7c29 6C       		.uleb128 0x6c
 10913 7c2a 5F474C4F 		.ascii "_GLOBAL__sub_I_main\0"
 10913      42414C5F 
 10913      5F737562 
 10913      5F495F6D 
 10913      61696E00 
 10914 7c3e 87020000 		.quad	.LFB10162
 10914      00000000 
 10915 7c46 1E000000 		.quad	.LFE10162-.LFB10162
 10915      00000000 
 10916 7c4e 01       		.uleb128 0x1
 10917 7c4f 9C       		.byte	0x9c
 10918 7c50 9A01     		.uleb128 0x9a
 10919 7c52 5F5F7374 		.ascii "__static_initialization_and_destruction_0\0"
 10919      61746963 
 10919      5F696E69 
 10919      7469616C 
 10919      697A6174 
 10920 7c7c 4B020000 		.quad	.LFB10138
 10920      00000000 
 10921 7c84 3C000000 		.quad	.LFE10138-.LFB10138
 10921      00000000 
 10922 7c8c 01       		.uleb128 0x1
 10923 7c8d 9C       		.byte	0x9c
 10924 7c8e C37C0000 		.long	0x7cc3
 10925 7c92 27       		.uleb128 0x27
 10926 7c93 5F5F696E 		.ascii "__initialize_p\0"
 10926      69746961 
 10926      6C697A65 
 10926      5F7000
 10927 7ca2 02       		.byte	0x2
 10928 7ca3 F9       		.byte	0xf9
 10929 7ca4 01       		.byte	0x1
 10930 7ca5 45460000 		.long	0x4645
 10931 7ca9 02       		.uleb128 0x2
 10932 7caa 91       		.byte	0x91
 10933 7cab 00       		.sleb128 0
 10934 7cac 27       		.uleb128 0x27
 10935 7cad 5F5F7072 		.ascii "__priority\0"
 10935      696F7269 
 10935      747900
 10936 7cb8 02       		.byte	0x2
 10937 7cb9 F9       		.byte	0xf9
 10938 7cba 01       		.byte	0x1
 10939 7cbb 45460000 		.long	0x4645
 10940 7cbf 02       		.uleb128 0x2
 10941 7cc0 91       		.byte	0x91
 10942 7cc1 08       		.sleb128 8
GAS LISTING C:\Users\gabri\AppData\Local\Temp\cc5DSkcw.s 			page 253


 10943 7cc2 00       		.byte	0
 10944 7cc3 6C       		.uleb128 0x6c
 10945 7cc4 5F5F7463 		.ascii "__tcf_0\0"
 10945      665F3000 
 10946 7ccc 30020000 		.quad	.LFB10139
 10946      00000000 
 10947 7cd4 1B000000 		.quad	.LFE10139-.LFB10139
 10947      00000000 
 10948 7cdc 01       		.uleb128 0x1
 10949 7cdd 9C       		.byte	0x9c
 10950 7cde 9B01     		.uleb128 0x9b
 10951 7ce0 8F400000 		.long	0x408f
 10952 7ce4 00000000 		.quad	.LFB9343
 10952      00000000 
 10953 7cec 28000000 		.quad	.LFE9343-.LFB9343
 10953      00000000 
 10954 7cf4 01       		.uleb128 0x1
 10955 7cf5 9C       		.byte	0x9c
 10956 7cf6 227D0000 		.long	0x7d22
 10957 7cfa 1D       		.uleb128 0x1d
 10958 7cfb 5F547000 		.ascii "_Tp\0"
 10959 7cff 45460000 		.long	0x4645
 10960 7d03 27       		.uleb128 0x27
 10961 7d04 5F5F6100 		.ascii "__a\0"
 10962 7d08 03       		.byte	0x3
 10963 7d09 DB       		.byte	0xdb
 10964 7d0a 14       		.byte	0x14
 10965 7d0b 3F700000 		.long	0x703f
 10966 7d0f 02       		.uleb128 0x2
 10967 7d10 91       		.byte	0x91
 10968 7d11 00       		.sleb128 0
 10969 7d12 27       		.uleb128 0x27
 10970 7d13 5F5F6200 		.ascii "__b\0"
 10971 7d17 03       		.byte	0x3
 10972 7d18 DB       		.byte	0xdb
 10973 7d19 24       		.byte	0x24
 10974 7d1a 3F700000 		.long	0x703f
 10975 7d1e 02       		.uleb128 0x2
 10976 7d1f 91       		.byte	0x91
 10977 7d20 08       		.sleb128 8
 10978 7d21 00       		.byte	0
 10979 7d22 9C01     		.uleb128 0x9c
 10980 7d24 6D61696E 		.ascii "main\0"
 10980      00
 10981 7d29 02       		.byte	0x2
 10982 7d2a C0       		.byte	0xc0
 10983 7d2b 05       		.byte	0x5
 10984 7d2c 45460000 		.long	0x4645
 10985 7d30 00000000 		.quad	.LFB8826
 10985      00000000 
 10986 7d38 30020000 		.quad	.LFE8826-.LFB8826
 10986      00000000 
 10987 7d40 01       		.uleb128 0x1
 10988 7d41 9C       		.byte	0x9c
 10989 7d42 F07D0000 		.long	0x7df0
 10990 7d46 27       		.uleb128 0x27
 10991 7d47 61726763 		.ascii "argc\0"
GAS LISTING C:\Users\gabri\AppData\Local\Temp\cc5DSkcw.s 			page 254


 10991      00
 10992 7d4c 02       		.byte	0x2
 10993 7d4d C0       		.byte	0xc0
 10994 7d4e 0E       		.byte	0xe
 10995 7d4f 45460000 		.long	0x4645
 10996 7d53 02       		.uleb128 0x2
 10997 7d54 91       		.byte	0x91
 10998 7d55 00       		.sleb128 0
 10999 7d56 27       		.uleb128 0x27
 11000 7d57 61726776 		.ascii "argv\0"
 11000      00
 11001 7d5c 02       		.byte	0x2
 11002 7d5d C0       		.byte	0xc0
 11003 7d5e 1B       		.byte	0x1b
 11004 7d5f 254D0000 		.long	0x4d25
 11005 7d63 02       		.uleb128 0x2
 11006 7d64 91       		.byte	0x91
 11007 7d65 08       		.sleb128 8
 11008 7d66 1C       		.uleb128 0x1c
 11009 7d67 6600     		.ascii "f\0"
 11010 7d69 02       		.byte	0x2
 11011 7d6a C2       		.byte	0xc2
 11012 7d6b 0B       		.byte	0xb
 11013 7d6c FB560000 		.long	0x56fb
 11014 7d70 02       		.uleb128 0x2
 11015 7d71 91       		.byte	0x91
 11016 7d72 50       		.sleb128 -48
 11017 7d73 30       		.uleb128 0x30
 11018 7d74 76000000 		.secrel32	.LASF41
 11019 7d78 02       		.byte	0x2
 11020 7d79 CA       		.byte	0xca
 11021 7d7a 0B       		.byte	0xb
 11022 7d7b 89490000 		.long	0x4989
 11023 7d7f 02       		.uleb128 0x2
 11024 7d80 91       		.byte	0x91
 11025 7d81 48       		.sleb128 -56
 11026 7d82 1C       		.uleb128 0x1c
 11027 7d83 61727175 		.ascii "arquivo\0"
 11027      69766F00 
 11028 7d8b 02       		.byte	0x2
 11029 7d8c CD       		.byte	0xcd
 11030 7d8d 11       		.byte	0x11
 11031 7d8e C8730000 		.long	0x73c8
 11032 7d92 02       		.uleb128 0x2
 11033 7d93 91       		.byte	0x91
 11034 7d94 40       		.sleb128 -64
 11035 7d95 1C       		.uleb128 0x1c
 11036 7d96 6F706361 		.ascii "opcao\0"
 11036      6F00
 11037 7d9c 02       		.byte	0x2
 11038 7d9d D8       		.byte	0xd8
 11039 7d9e 0A       		.byte	0xa
 11040 7d9f 86450000 		.long	0x4586
 11041 7da3 02       		.uleb128 0x2
 11042 7da4 91       		.byte	0x91
 11043 7da5 5F       		.sleb128 -33
 11044 7da6 9D01     		.uleb128 0x9d
GAS LISTING C:\Users\gabri\AppData\Local\Temp\cc5DSkcw.s 			page 255


 11045 7da8 1C010000 		.quad	.LBB17
 11045      00000000 
 11046 7db0 59000000 		.quad	.LBE17-.LBB17
 11046      00000000 
 11047 7db8 CD7D0000 		.long	0x7dcd
 11048 7dbc 30       		.uleb128 0x30
 11049 7dbd AF000000 		.secrel32	.LASF42
 11050 7dc1 02       		.byte	0x2
 11051 7dc2 E4       		.byte	0xe4
 11052 7dc3 11       		.byte	0x11
 11053 7dc4 45460000 		.long	0x4645
 11054 7dc8 03       		.uleb128 0x3
 11055 7dc9 91       		.byte	0x91
 11056 7dca BC7F     		.sleb128 -68
 11057 7dcc 00       		.byte	0
 11058 7dcd 39       		.uleb128 0x39
 11059 7dce 7B010000 		.quad	.LBB20
 11059      00000000 
 11060 7dd6 66000000 		.quad	.LBE20-.LBB20
 11060      00000000 
 11061 7dde 30       		.uleb128 0x30
 11062 7ddf AF000000 		.secrel32	.LASF42
 11063 7de3 02       		.byte	0x2
 11064 7de4 ED       		.byte	0xed
 11065 7de5 11       		.byte	0x11
 11066 7de6 45460000 		.long	0x4645
 11067 7dea 03       		.uleb128 0x3
 11068 7deb 91       		.byte	0x91
 11069 7dec B87F     		.sleb128 -72
 11070 7dee 00       		.byte	0
 11071 7def 00       		.byte	0
 11072 7df0 3A       		.uleb128 0x3a
 11073 7df1 56730000 		.long	0x7356
 11074 7df5 0F7E0000 		.long	0x7e0f
 11075 7df9 00000000 		.quad	.LFB8825
 11075      00000000 
 11076 7e01 5D000000 		.quad	.LFE8825-.LFB8825
 11076      00000000 
 11077 7e09 01       		.uleb128 0x1
 11078 7e0a 9C       		.byte	0x9c
 11079 7e0b 597E0000 		.long	0x7e59
 11080 7e0f 33       		.uleb128 0x33
 11081 7e10 DA010000 		.secrel32	.LASF43
 11082 7e14 CE730000 		.long	0x73ce
 11083 7e18 02       		.uleb128 0x2
 11084 7e19 91       		.byte	0x91
 11085 7e1a 00       		.sleb128 0
 11086 7e1b 27       		.uleb128 0x27
 11087 7e1c 73747200 		.ascii "str\0"
 11088 7e20 02       		.byte	0x2
 11089 7e21 BB       		.byte	0xbb
 11090 7e22 2C       		.byte	0x2c
 11091 7e23 89490000 		.long	0x4989
 11092 7e27 02       		.uleb128 0x2
 11093 7e28 91       		.byte	0x91
 11094 7e29 08       		.sleb128 8
 11095 7e2a 1C       		.uleb128 0x1c
GAS LISTING C:\Users\gabri\AppData\Local\Temp\cc5DSkcw.s 			page 256


 11096 7e2b 74616D00 		.ascii "tam\0"
 11097 7e2f 02       		.byte	0x2
 11098 7e30 BC       		.byte	0xbc
 11099 7e31 0D       		.byte	0xd
 11100 7e32 45460000 		.long	0x4645
 11101 7e36 02       		.uleb128 0x2
 11102 7e37 91       		.byte	0x91
 11103 7e38 68       		.sleb128 -24
 11104 7e39 39       		.uleb128 0x39
 11105 7e3a 1F000000 		.quad	.LBB12
 11105      00000000 
 11106 7e42 37000000 		.quad	.LBE12-.LBB12
 11106      00000000 
 11107 7e4a 1C       		.uleb128 0x1c
 11108 7e4b 6900     		.ascii "i\0"
 11109 7e4d 02       		.byte	0x2
 11110 7e4e BC       		.byte	0xbc
 11111 7e4f 29       		.byte	0x29
 11112 7e50 45460000 		.long	0x4645
 11113 7e54 02       		.uleb128 0x2
 11114 7e55 91       		.byte	0x91
 11115 7e56 6C       		.sleb128 -20
 11116 7e57 00       		.byte	0
 11117 7e58 00       		.byte	0
 11118 7e59 3A       		.uleb128 0x3a
 11119 7e5a 00730000 		.long	0x7300
 11120 7e5e 787E0000 		.long	0x7e78
 11121 7e62 00000000 		.quad	.LFB8824
 11121      00000000 
 11122 7e6a 61010000 		.quad	.LFE8824-.LFB8824
 11122      00000000 
 11123 7e72 01       		.uleb128 0x1
 11124 7e73 9C       		.byte	0x9c
 11125 7e74 DF7E0000 		.long	0x7edf
 11126 7e78 33       		.uleb128 0x33
 11127 7e79 DA010000 		.secrel32	.LASF43
 11128 7e7d CE730000 		.long	0x73ce
 11129 7e81 02       		.uleb128 0x2
 11130 7e82 91       		.byte	0x91
 11131 7e83 00       		.sleb128 0
 11132 7e84 4D       		.uleb128 0x4d
 11133 7e85 76000000 		.secrel32	.LASF41
 11134 7e89 02       		.byte	0x2
 11135 7e8a 97       		.byte	0x97
 11136 7e8b 1C       		.byte	0x1c
 11137 7e8c 89490000 		.long	0x4989
 11138 7e90 02       		.uleb128 0x2
 11139 7e91 91       		.byte	0x91
 11140 7e92 08       		.sleb128 8
 11141 7e93 1C       		.uleb128 0x1c
 11142 7e94 73747200 		.ascii "str\0"
 11143 7e98 02       		.byte	0x2
 11144 7e99 9A       		.byte	0x9a
 11145 7e9a 0E       		.byte	0xe
 11146 7e9b DF7E0000 		.long	0x7edf
 11147 7e9f 03       		.uleb128 0x3
 11148 7ea0 91       		.byte	0x91
GAS LISTING C:\Users\gabri\AppData\Local\Temp\cc5DSkcw.s 			page 257


 11149 7ea1 907F     		.sleb128 -112
 11150 7ea3 30       		.uleb128 0x30
 11151 7ea4 B6000000 		.secrel32	.LASF44
 11152 7ea8 02       		.byte	0x2
 11153 7ea9 9B       		.byte	0x9b
 11154 7eaa 0D       		.byte	0xd
 11155 7eab 45460000 		.long	0x4645
 11156 7eaf 03       		.uleb128 0x3
 11157 7eb0 91       		.byte	0x91
 11158 7eb1 8C7F     		.sleb128 -116
 11159 7eb3 1C       		.uleb128 0x1c
 11160 7eb4 706F7369 		.ascii "posicao\0"
 11160      63616F00 
 11161 7ebc 02       		.byte	0x2
 11162 7ebd 9C       		.byte	0x9c
 11163 7ebe 0D       		.byte	0xd
 11164 7ebf 45460000 		.long	0x4645
 11165 7ec3 02       		.uleb128 0x2
 11166 7ec4 91       		.byte	0x91
 11167 7ec5 6C       		.sleb128 -20
 11168 7ec6 1C       		.uleb128 0x1c
 11169 7ec7 66696E61 		.ascii "finalArquivo\0"
 11169      6C417271 
 11169      7569766F 
 11169      00
 11170 7ed4 02       		.byte	0x2
 11171 7ed5 9F       		.byte	0x9f
 11172 7ed6 0D       		.byte	0xd
 11173 7ed7 45460000 		.long	0x4645
 11174 7edb 02       		.uleb128 0x2
 11175 7edc 91       		.byte	0x91
 11176 7edd 68       		.sleb128 -24
 11177 7ede 00       		.byte	0
 11178 7edf 29       		.uleb128 0x29
 11179 7ee0 86450000 		.long	0x4586
 11180 7ee4 EF7E0000 		.long	0x7eef
 11181 7ee8 2F       		.uleb128 0x2f
 11182 7ee9 B2450000 		.long	0x45b2
 11183 7eed 4A       		.byte	0x4a
 11184 7eee 00       		.byte	0
 11185 7eef 3A       		.uleb128 0x3a
 11186 7ef0 B9720000 		.long	0x72b9
 11187 7ef4 0E7F0000 		.long	0x7f0e
 11188 7ef8 00000000 		.quad	.LFB8823
 11188      00000000 
 11189 7f00 6C010000 		.quad	.LFE8823-.LFB8823
 11189      00000000 
 11190 7f08 01       		.uleb128 0x1
 11191 7f09 9C       		.byte	0x9c
 11192 7f0a 657F0000 		.long	0x7f65
 11193 7f0e 33       		.uleb128 0x33
 11194 7f0f DA010000 		.secrel32	.LASF43
 11195 7f13 CE730000 		.long	0x73ce
 11196 7f17 02       		.uleb128 0x2
 11197 7f18 91       		.byte	0x91
 11198 7f19 00       		.sleb128 0
 11199 7f1a 4D       		.uleb128 0x4d
GAS LISTING C:\Users\gabri\AppData\Local\Temp\cc5DSkcw.s 			page 258


 11200 7f1b AF000000 		.secrel32	.LASF42
 11201 7f1f 02       		.byte	0x2
 11202 7f20 7E       		.byte	0x7e
 11203 7f21 1C       		.byte	0x1c
 11204 7f22 45460000 		.long	0x4645
 11205 7f26 02       		.uleb128 0x2
 11206 7f27 91       		.byte	0x91
 11207 7f28 08       		.sleb128 8
 11208 7f29 1C       		.uleb128 0x1c
 11209 7f2a 74616D61 		.ascii "tamanhoArquivo\0"
 11209      6E686F41 
 11209      72717569 
 11209      766F00
 11210 7f39 02       		.byte	0x2
 11211 7f3a 80       		.byte	0x80
 11212 7f3b 0D       		.byte	0xd
 11213 7f3c 45460000 		.long	0x4645
 11214 7f40 02       		.uleb128 0x2
 11215 7f41 91       		.byte	0x91
 11216 7f42 6C       		.sleb128 -20
 11217 7f43 39       		.uleb128 0x39
 11218 7f44 76000000 		.quad	.LBB11
 11218      00000000 
 11219 7f4c F0000000 		.quad	.LBE11-.LBB11
 11219      00000000 
 11220 7f54 30       		.uleb128 0x30
 11221 7f55 DF010000 		.secrel32	.LASF45
 11222 7f59 02       		.byte	0x2
 11223 7f5a 85       		.byte	0x85
 11224 7f5b 1C       		.byte	0x1c
 11225 7f5c B9730000 		.long	0x73b9
 11226 7f60 02       		.uleb128 0x2
 11227 7f61 91       		.byte	0x91
 11228 7f62 64       		.sleb128 -28
 11229 7f63 00       		.byte	0
 11230 7f64 00       		.byte	0
 11231 7f65 9E01     		.uleb128 0x9e
 11232 7f67 6A720000 		.long	0x726a
 11233 7f6b 857F0000 		.long	0x7f85
 11234 7f6f 00000000 		.quad	.LFB8822
 11234      00000000 
 11235 7f77 1F000000 		.quad	.LFE8822-.LFB8822
 11235      00000000 
 11236 7f7f 01       		.uleb128 0x1
 11237 7f80 9C       		.byte	0x9c
 11238 7f81 A37F0000 		.long	0x7fa3
 11239 7f85 33       		.uleb128 0x33
 11240 7f86 DA010000 		.secrel32	.LASF43
 11241 7f8a CE730000 		.long	0x73ce
 11242 7f8e 02       		.uleb128 0x2
 11243 7f8f 91       		.byte	0x91
 11244 7f90 00       		.sleb128 0
 11245 7f91 27       		.uleb128 0x27
 11246 7f92 64656C74 		.ascii "delta\0"
 11246      6100
 11247 7f98 02       		.byte	0x2
 11248 7f99 79       		.byte	0x79
GAS LISTING C:\Users\gabri\AppData\Local\Temp\cc5DSkcw.s 			page 259


 11249 7f9a 20       		.byte	0x20
 11250 7f9b 45460000 		.long	0x4645
 11251 7f9f 02       		.uleb128 0x2
 11252 7fa0 91       		.byte	0x91
 11253 7fa1 08       		.sleb128 8
 11254 7fa2 00       		.byte	0
 11255 7fa3 3A       		.uleb128 0x3a
 11256 7fa4 1D720000 		.long	0x721d
 11257 7fa8 C27F0000 		.long	0x7fc2
 11258 7fac 00000000 		.quad	.LFB8821
 11258      00000000 
 11259 7fb4 D5000000 		.quad	.LFE8821-.LFB8821
 11259      00000000 
 11260 7fbc 01       		.uleb128 0x1
 11261 7fbd 9C       		.byte	0x9c
 11262 7fbe 1F800000 		.long	0x801f
 11263 7fc2 33       		.uleb128 0x33
 11264 7fc3 DA010000 		.secrel32	.LASF43
 11265 7fc7 CE730000 		.long	0x73ce
 11266 7fcb 02       		.uleb128 0x2
 11267 7fcc 91       		.byte	0x91
 11268 7fcd 00       		.sleb128 0
 11269 7fce 27       		.uleb128 0x27
 11270 7fcf 6465736C 		.ascii "desloc\0"
 11270      6F6300
 11271 7fd6 02       		.byte	0x2
 11272 7fd7 66       		.byte	0x66
 11273 7fd8 1C       		.byte	0x1c
 11274 7fd9 45460000 		.long	0x4645
 11275 7fdd 02       		.uleb128 0x2
 11276 7fde 91       		.byte	0x91
 11277 7fdf 08       		.sleb128 8
 11278 7fe0 27       		.uleb128 0x27
 11279 7fe1 70726F78 		.ascii "proxDesloc\0"
 11279      4465736C 
 11279      6F6300
 11280 7fec 02       		.byte	0x2
 11281 7fed 66       		.byte	0x66
 11282 7fee 28       		.byte	0x28
 11283 7fef 45460000 		.long	0x4645
 11284 7ff3 02       		.uleb128 0x2
 11285 7ff4 91       		.byte	0x91
 11286 7ff5 10       		.sleb128 16
 11287 7ff6 39       		.uleb128 0x39
 11288 7ff7 1D000000 		.quad	.LBB8
 11288      00000000 
 11289 7fff A5000000 		.quad	.LBE8-.LBB8
 11289      00000000 
 11290 8007 1C       		.uleb128 0x1c
 11291 8008 74656D70 		.ascii "tempStruct\0"
 11291      53747275 
 11291      637400
 11292 8013 02       		.byte	0x2
 11293 8014 68       		.byte	0x68
 11294 8015 1C       		.byte	0x1c
 11295 8016 B9730000 		.long	0x73b9
 11296 801a 02       		.uleb128 0x2
GAS LISTING C:\Users\gabri\AppData\Local\Temp\cc5DSkcw.s 			page 260


 11297 801b 91       		.byte	0x91
 11298 801c 68       		.sleb128 -24
 11299 801d 00       		.byte	0
 11300 801e 00       		.byte	0
 11301 801f 3A       		.uleb128 0x3a
 11302 8020 CF710000 		.long	0x71cf
 11303 8024 3E800000 		.long	0x803e
 11304 8028 00000000 		.quad	.LFB8820
 11304      00000000 
 11305 8030 D8010000 		.quad	.LFE8820-.LFB8820
 11305      00000000 
 11306 8038 01       		.uleb128 0x1
 11307 8039 9C       		.byte	0x9c
 11308 803a B0800000 		.long	0x80b0
 11309 803e 33       		.uleb128 0x33
 11310 803f DA010000 		.secrel32	.LASF43
 11311 8043 CE730000 		.long	0x73ce
 11312 8047 02       		.uleb128 0x2
 11313 8048 91       		.byte	0x91
 11314 8049 00       		.sleb128 0
 11315 804a 4D       		.uleb128 0x4d
 11316 804b 76000000 		.secrel32	.LASF41
 11317 804f 02       		.byte	0x2
 11318 8050 44       		.byte	0x44
 11319 8051 1E       		.byte	0x1e
 11320 8052 89490000 		.long	0x4989
 11321 8056 02       		.uleb128 0x2
 11322 8057 91       		.byte	0x91
 11323 8058 08       		.sleb128 8
 11324 8059 30       		.uleb128 0x30
 11325 805a B6000000 		.secrel32	.LASF44
 11326 805e 02       		.byte	0x2
 11327 805f 45       		.byte	0x45
 11328 8060 0D       		.byte	0xd
 11329 8061 45460000 		.long	0x4645
 11330 8065 02       		.uleb128 0x2
 11331 8066 91       		.byte	0x91
 11332 8067 64       		.sleb128 -28
 11333 8068 1C       		.uleb128 0x1c
 11334 8069 6465736C 		.ascii "desloc\0"
 11334      6F6300
 11335 8070 02       		.byte	0x2
 11336 8071 46       		.byte	0x46
 11337 8072 0D       		.byte	0xd
 11338 8073 45460000 		.long	0x4645
 11339 8077 02       		.uleb128 0x2
 11340 8078 91       		.byte	0x91
 11341 8079 6C       		.sleb128 -20
 11342 807a 1C       		.uleb128 0x1c
 11343 807b 616E7465 		.ascii "anterior\0"
 11343      72696F72 
 11343      00
 11344 8084 02       		.byte	0x2
 11345 8085 47       		.byte	0x47
 11346 8086 0D       		.byte	0xd
 11347 8087 45460000 		.long	0x4645
 11348 808b 02       		.uleb128 0x2
GAS LISTING C:\Users\gabri\AppData\Local\Temp\cc5DSkcw.s 			page 261


 11349 808c 91       		.byte	0x91
 11350 808d 68       		.sleb128 -24
 11351 808e 39       		.uleb128 0x39
 11352 808f 58000000 		.quad	.LBB6
 11352      00000000 
 11353 8097 41010000 		.quad	.LBE6-.LBB6
 11353      00000000 
 11354 809f 30       		.uleb128 0x30
 11355 80a0 DF010000 		.secrel32	.LASF45
 11356 80a4 02       		.byte	0x2
 11357 80a5 4F       		.byte	0x4f
 11358 80a6 1C       		.byte	0x1c
 11359 80a7 B9730000 		.long	0x73b9
 11360 80ab 02       		.uleb128 0x2
 11361 80ac 91       		.byte	0x91
 11362 80ad 5C       		.sleb128 -36
 11363 80ae 00       		.byte	0
 11364 80af 00       		.byte	0
 11365 80b0 3A       		.uleb128 0x3a
 11366 80b1 87710000 		.long	0x7187
 11367 80b5 CF800000 		.long	0x80cf
 11368 80b9 00000000 		.quad	.LFB8819
 11368      00000000 
 11369 80c1 9F010000 		.quad	.LFE8819-.LFB8819
 11369      00000000 
 11370 80c9 01       		.uleb128 0x1
 11371 80ca 9C       		.byte	0x9c
 11372 80cb 38810000 		.long	0x8138
 11373 80cf 33       		.uleb128 0x33
 11374 80d0 DA010000 		.secrel32	.LASF43
 11375 80d4 CE730000 		.long	0x73ce
 11376 80d8 02       		.uleb128 0x2
 11377 80d9 91       		.byte	0x91
 11378 80da 00       		.sleb128 0
 11379 80db 4D       		.uleb128 0x4d
 11380 80dc 76000000 		.secrel32	.LASF41
 11381 80e0 02       		.byte	0x2
 11382 80e1 21       		.byte	0x21
 11383 80e2 1E       		.byte	0x1e
 11384 80e3 89490000 		.long	0x4989
 11385 80e7 02       		.uleb128 0x2
 11386 80e8 91       		.byte	0x91
 11387 80e9 08       		.sleb128 8
 11388 80ea 1C       		.uleb128 0x1c
 11389 80eb 73747269 		.ascii "stringAlocada\0"
 11389      6E67416C 
 11389      6F636164 
 11389      6100
 11390 80f9 02       		.byte	0x2
 11391 80fa 27       		.byte	0x27
 11392 80fb 0F       		.byte	0xf
 11393 80fc 89490000 		.long	0x4989
 11394 8100 02       		.uleb128 0x2
 11395 8101 91       		.byte	0x91
 11396 8102 68       		.sleb128 -24
 11397 8103 39       		.uleb128 0x39
 11398 8104 83000000 		.quad	.LBB5
GAS LISTING C:\Users\gabri\AppData\Local\Temp\cc5DSkcw.s 			page 262


 11398      00000000 
 11399 810c 07010000 		.quad	.LBE5-.LBB5
 11399      00000000 
 11400 8114 30       		.uleb128 0x30
 11401 8115 B6000000 		.secrel32	.LASF44
 11402 8119 02       		.byte	0x2
 11403 811a 34       		.byte	0x34
 11404 811b 11       		.byte	0x11
 11405 811c 45460000 		.long	0x4645
 11406 8120 02       		.uleb128 0x2
 11407 8121 91       		.byte	0x91
 11408 8122 64       		.sleb128 -28
 11409 8123 1C       		.uleb128 0x1c
 11410 8124 74616D61 		.ascii "tamanho\0"
 11410      6E686F00 
 11411 812c 02       		.byte	0x2
 11412 812d 35       		.byte	0x35
 11413 812e 11       		.byte	0x11
 11414 812f 45460000 		.long	0x4645
 11415 8133 02       		.uleb128 0x2
 11416 8134 91       		.byte	0x91
 11417 8135 58       		.sleb128 -40
 11418 8136 00       		.byte	0
 11419 8137 00       		.byte	0
 11420 8138 9F01     		.uleb128 0x9f
 11421 813a 24710000 		.long	0x7124
 11422 813e 47810000 		.long	0x8147
 11423 8142 02       		.byte	0x2
 11424 8143 51810000 		.long	0x8151
 11425 8147 6D       		.uleb128 0x6d
 11426 8148 DA010000 		.secrel32	.LASF43
 11427 814c CE730000 		.long	0x73ce
 11428 8150 00       		.byte	0
 11429 8151 A001     		.uleb128 0xa0
 11430 8153 38810000 		.long	0x8138
 11431 8157 5F5A4E31 		.ascii "_ZN10MeuArquivoC1Ev\0"
 11431      304D6575 
 11431      41727175 
 11431      69766F43 
 11431      31457600 
 11432 816b 85810000 		.long	0x8185
 11433 816f 00000000 		.quad	.LFB8815
 11433      00000000 
 11434 8177 6F000000 		.quad	.LFE8815-.LFB8815
 11434      00000000 
 11435 817f 01       		.uleb128 0x1
 11436 8180 9C       		.byte	0x9c
 11437 8181 8E810000 		.long	0x818e
 11438 8185 6E       		.uleb128 0x6e
 11439 8186 47810000 		.long	0x8147
 11440 818a 02       		.uleb128 0x2
 11441 818b 91       		.byte	0x91
 11442 818c 00       		.sleb128 0
 11443 818d 00       		.byte	0
 11444 818e 05       		.uleb128 0x5
 11445 818f 08       		.byte	0x8
 11446 8190 5A700000 		.long	0x705a
GAS LISTING C:\Users\gabri\AppData\Local\Temp\cc5DSkcw.s 			page 263


 11447 8194 04       		.uleb128 0x4
 11448 8195 8E810000 		.long	0x818e
 11449 8199 A101     		.uleb128 0xa1
 11450 819b 82700000 		.long	0x7082
 11451 819f 02       		.byte	0x2
 11452 81a0 0F       		.byte	0xf
 11453 81a1 0C       		.byte	0xc
 11454 81a2 AB810000 		.long	0x81ab
 11455 81a6 02       		.byte	0x2
 11456 81a7 B5810000 		.long	0x81b5
 11457 81ab 6D       		.uleb128 0x6d
 11458 81ac DA010000 		.secrel32	.LASF43
 11459 81b0 94810000 		.long	0x8194
 11460 81b4 00       		.byte	0
 11461 81b5 A201     		.uleb128 0xa2
 11462 81b7 99810000 		.long	0x8199
 11463 81bb 5F5A4E31 		.ascii "_ZN10MeuArquivo9cabecalhoC1Ev\0"
 11463      304D6575 
 11463      41727175 
 11463      69766F39 
 11463      63616265 
 11464 81d9 F3810000 		.long	0x81f3
 11465 81dd 00000000 		.quad	.LFB8813
 11465      00000000 
 11466 81e5 16000000 		.quad	.LFE8813-.LFB8813
 11466      00000000 
 11467 81ed 01       		.uleb128 0x1
 11468 81ee 9C       		.byte	0x9c
 11469 81ef FC810000 		.long	0x81fc
 11470 81f3 6E       		.uleb128 0x6e
 11471 81f4 AB810000 		.long	0x81ab
 11472 81f8 02       		.uleb128 0x2
 11473 81f9 91       		.byte	0x91
 11474 81fa 00       		.sleb128 0
 11475 81fb 00       		.byte	0
 11476 81fc A301     		.uleb128 0xa3
 11477 81fe FD000000 		.secrel32	.LASF46
 11478 8202 FD000000 		.secrel32	.LASF46
 11479 8206 42       		.byte	0x42
 11480 8207 37       		.byte	0x37
 11481 8208 17       		.byte	0x17
 11482 8209 00       		.byte	0
 11483              		.section	.debug_abbrev,"dr"
 11484              	.Ldebug_abbrev0:
 11485 0000 01       		.uleb128 0x1
 11486 0001 05       		.uleb128 0x5
 11487 0002 00       		.byte	0
 11488 0003 49       		.uleb128 0x49
 11489 0004 13       		.uleb128 0x13
 11490 0005 00       		.byte	0
 11491 0006 00       		.byte	0
 11492 0007 02       		.uleb128 0x2
 11493 0008 08       		.uleb128 0x8
 11494 0009 00       		.byte	0
 11495 000a 3A       		.uleb128 0x3a
 11496 000b 0B       		.uleb128 0xb
 11497 000c 3B       		.uleb128 0x3b
GAS LISTING C:\Users\gabri\AppData\Local\Temp\cc5DSkcw.s 			page 264


 11498 000d 0B       		.uleb128 0xb
 11499 000e 39       		.uleb128 0x39
 11500 000f 0B       		.uleb128 0xb
 11501 0010 18       		.uleb128 0x18
 11502 0011 13       		.uleb128 0x13
 11503 0012 00       		.byte	0
 11504 0013 00       		.byte	0
 11505 0014 03       		.uleb128 0x3
 11506 0015 2E       		.uleb128 0x2e
 11507 0016 01       		.byte	0x1
 11508 0017 3F       		.uleb128 0x3f
 11509 0018 19       		.uleb128 0x19
 11510 0019 03       		.uleb128 0x3
 11511 001a 08       		.uleb128 0x8
 11512 001b 3A       		.uleb128 0x3a
 11513 001c 0B       		.uleb128 0xb
 11514 001d 3B       		.uleb128 0x3b
 11515 001e 05       		.uleb128 0x5
 11516 001f 39       		.uleb128 0x39
 11517 0020 0B       		.uleb128 0xb
 11518 0021 49       		.uleb128 0x49
 11519 0022 13       		.uleb128 0x13
 11520 0023 3C       		.uleb128 0x3c
 11521 0024 19       		.uleb128 0x19
 11522 0025 01       		.uleb128 0x1
 11523 0026 13       		.uleb128 0x13
 11524 0027 00       		.byte	0
 11525 0028 00       		.byte	0
 11526 0029 04       		.uleb128 0x4
 11527 002a 26       		.uleb128 0x26
 11528 002b 00       		.byte	0
 11529 002c 49       		.uleb128 0x49
 11530 002d 13       		.uleb128 0x13
 11531 002e 00       		.byte	0
 11532 002f 00       		.byte	0
 11533 0030 05       		.uleb128 0x5
 11534 0031 0F       		.uleb128 0xf
 11535 0032 00       		.byte	0
 11536 0033 0B       		.uleb128 0xb
 11537 0034 0B       		.uleb128 0xb
 11538 0035 49       		.uleb128 0x49
 11539 0036 13       		.uleb128 0x13
 11540 0037 00       		.byte	0
 11541 0038 00       		.byte	0
 11542 0039 06       		.uleb128 0x6
 11543 003a 05       		.uleb128 0x5
 11544 003b 00       		.byte	0
 11545 003c 49       		.uleb128 0x49
 11546 003d 13       		.uleb128 0x13
 11547 003e 34       		.uleb128 0x34
 11548 003f 19       		.uleb128 0x19
 11549 0040 00       		.byte	0
 11550 0041 00       		.byte	0
 11551 0042 07       		.uleb128 0x7
 11552 0043 0D       		.uleb128 0xd
 11553 0044 00       		.byte	0
 11554 0045 03       		.uleb128 0x3
GAS LISTING C:\Users\gabri\AppData\Local\Temp\cc5DSkcw.s 			page 265


 11555 0046 08       		.uleb128 0x8
 11556 0047 3A       		.uleb128 0x3a
 11557 0048 0B       		.uleb128 0xb
 11558 0049 3B       		.uleb128 0x3b
 11559 004a 0B       		.uleb128 0xb
 11560 004b 39       		.uleb128 0x39
 11561 004c 0B       		.uleb128 0xb
 11562 004d 49       		.uleb128 0x49
 11563 004e 13       		.uleb128 0x13
 11564 004f 38       		.uleb128 0x38
 11565 0050 0B       		.uleb128 0xb
 11566 0051 00       		.byte	0
 11567 0052 00       		.byte	0
 11568 0053 08       		.uleb128 0x8
 11569 0054 16       		.uleb128 0x16
 11570 0055 00       		.byte	0
 11571 0056 03       		.uleb128 0x3
 11572 0057 08       		.uleb128 0x8
 11573 0058 3A       		.uleb128 0x3a
 11574 0059 0B       		.uleb128 0xb
 11575 005a 3B       		.uleb128 0x3b
 11576 005b 0B       		.uleb128 0xb
 11577 005c 39       		.uleb128 0x39
 11578 005d 0B       		.uleb128 0xb
 11579 005e 49       		.uleb128 0x49
 11580 005f 13       		.uleb128 0x13
 11581 0060 00       		.byte	0
 11582 0061 00       		.byte	0
 11583 0062 09       		.uleb128 0x9
 11584 0063 28       		.uleb128 0x28
 11585 0064 00       		.byte	0
 11586 0065 03       		.uleb128 0x3
 11587 0066 08       		.uleb128 0x8
 11588 0067 1C       		.uleb128 0x1c
 11589 0068 0B       		.uleb128 0xb
 11590 0069 00       		.byte	0
 11591 006a 00       		.byte	0
 11592 006b 0A       		.uleb128 0xa
 11593 006c 34       		.uleb128 0x34
 11594 006d 00       		.byte	0
 11595 006e 47       		.uleb128 0x47
 11596 006f 13       		.uleb128 0x13
 11597 0070 00       		.byte	0
 11598 0071 00       		.byte	0
 11599 0072 0B       		.uleb128 0xb
 11600 0073 2E       		.uleb128 0x2e
 11601 0074 01       		.byte	0x1
 11602 0075 3F       		.uleb128 0x3f
 11603 0076 19       		.uleb128 0x19
 11604 0077 03       		.uleb128 0x3
 11605 0078 08       		.uleb128 0x8
 11606 0079 3A       		.uleb128 0x3a
 11607 007a 0B       		.uleb128 0xb
 11608 007b 3B       		.uleb128 0x3b
 11609 007c 0B       		.uleb128 0xb
 11610 007d 39       		.uleb128 0x39
 11611 007e 0B       		.uleb128 0xb
GAS LISTING C:\Users\gabri\AppData\Local\Temp\cc5DSkcw.s 			page 266


 11612 007f 49       		.uleb128 0x49
 11613 0080 13       		.uleb128 0x13
 11614 0081 3C       		.uleb128 0x3c
 11615 0082 19       		.uleb128 0x19
 11616 0083 01       		.uleb128 0x1
 11617 0084 13       		.uleb128 0x13
 11618 0085 00       		.byte	0
 11619 0086 00       		.byte	0
 11620 0087 0C       		.uleb128 0xc
 11621 0088 34       		.uleb128 0x34
 11622 0089 00       		.byte	0
 11623 008a 03       		.uleb128 0x3
 11624 008b 08       		.uleb128 0x8
 11625 008c 3A       		.uleb128 0x3a
 11626 008d 0B       		.uleb128 0xb
 11627 008e 3B       		.uleb128 0x3b
 11628 008f 0B       		.uleb128 0xb
 11629 0090 39       		.uleb128 0x39
 11630 0091 0B       		.uleb128 0xb
 11631 0092 6E       		.uleb128 0x6e
 11632 0093 08       		.uleb128 0x8
 11633 0094 49       		.uleb128 0x49
 11634 0095 13       		.uleb128 0x13
 11635 0096 3F       		.uleb128 0x3f
 11636 0097 19       		.uleb128 0x19
 11637 0098 3C       		.uleb128 0x3c
 11638 0099 19       		.uleb128 0x19
 11639 009a 00       		.byte	0
 11640 009b 00       		.byte	0
 11641 009c 0D       		.uleb128 0xd
 11642 009d 0D       		.uleb128 0xd
 11643 009e 00       		.byte	0
 11644 009f 03       		.uleb128 0x3
 11645 00a0 0E       		.uleb128 0xe
 11646 00a1 3A       		.uleb128 0x3a
 11647 00a2 0B       		.uleb128 0xb
 11648 00a3 3B       		.uleb128 0x3b
 11649 00a4 0B       		.uleb128 0xb
 11650 00a5 39       		.uleb128 0x39
 11651 00a6 0B       		.uleb128 0xb
 11652 00a7 49       		.uleb128 0x49
 11653 00a8 13       		.uleb128 0x13
 11654 00a9 3F       		.uleb128 0x3f
 11655 00aa 19       		.uleb128 0x19
 11656 00ab 3C       		.uleb128 0x3c
 11657 00ac 19       		.uleb128 0x19
 11658 00ad 00       		.byte	0
 11659 00ae 00       		.byte	0
 11660 00af 0E       		.uleb128 0xe
 11661 00b0 13       		.uleb128 0x13
 11662 00b1 00       		.byte	0
 11663 00b2 03       		.uleb128 0x3
 11664 00b3 08       		.uleb128 0x8
 11665 00b4 3C       		.uleb128 0x3c
 11666 00b5 19       		.uleb128 0x19
 11667 00b6 00       		.byte	0
 11668 00b7 00       		.byte	0
GAS LISTING C:\Users\gabri\AppData\Local\Temp\cc5DSkcw.s 			page 267


 11669 00b8 0F       		.uleb128 0xf
 11670 00b9 2E       		.uleb128 0x2e
 11671 00ba 01       		.byte	0x1
 11672 00bb 3F       		.uleb128 0x3f
 11673 00bc 19       		.uleb128 0x19
 11674 00bd 03       		.uleb128 0x3
 11675 00be 08       		.uleb128 0x8
 11676 00bf 3A       		.uleb128 0x3a
 11677 00c0 0B       		.uleb128 0xb
 11678 00c1 3B       		.uleb128 0x3b
 11679 00c2 05       		.uleb128 0x5
 11680 00c3 39       		.uleb128 0x39
 11681 00c4 0B       		.uleb128 0xb
 11682 00c5 6E       		.uleb128 0x6e
 11683 00c6 08       		.uleb128 0x8
 11684 00c7 49       		.uleb128 0x49
 11685 00c8 13       		.uleb128 0x13
 11686 00c9 3C       		.uleb128 0x3c
 11687 00ca 19       		.uleb128 0x19
 11688 00cb 01       		.uleb128 0x1
 11689 00cc 13       		.uleb128 0x13
 11690 00cd 00       		.byte	0
 11691 00ce 00       		.byte	0
 11692 00cf 10       		.uleb128 0x10
 11693 00d0 13       		.uleb128 0x13
 11694 00d1 01       		.byte	0x1
 11695 00d2 03       		.uleb128 0x3
 11696 00d3 08       		.uleb128 0x8
 11697 00d4 0B       		.uleb128 0xb
 11698 00d5 0B       		.uleb128 0xb
 11699 00d6 3A       		.uleb128 0x3a
 11700 00d7 0B       		.uleb128 0xb
 11701 00d8 3B       		.uleb128 0x3b
 11702 00d9 0B       		.uleb128 0xb
 11703 00da 39       		.uleb128 0x39
 11704 00db 0B       		.uleb128 0xb
 11705 00dc 01       		.uleb128 0x1
 11706 00dd 13       		.uleb128 0x13
 11707 00de 00       		.byte	0
 11708 00df 00       		.byte	0
 11709 00e0 11       		.uleb128 0x11
 11710 00e1 24       		.uleb128 0x24
 11711 00e2 00       		.byte	0
 11712 00e3 0B       		.uleb128 0xb
 11713 00e4 0B       		.uleb128 0xb
 11714 00e5 3E       		.uleb128 0x3e
 11715 00e6 0B       		.uleb128 0xb
 11716 00e7 03       		.uleb128 0x3
 11717 00e8 08       		.uleb128 0x8
 11718 00e9 00       		.byte	0
 11719 00ea 00       		.byte	0
 11720 00eb 12       		.uleb128 0x12
 11721 00ec 34       		.uleb128 0x34
 11722 00ed 00       		.byte	0
 11723 00ee 6E       		.uleb128 0x6e
 11724 00ef 08       		.uleb128 0x8
 11725 00f0 47       		.uleb128 0x47
GAS LISTING C:\Users\gabri\AppData\Local\Temp\cc5DSkcw.s 			page 268


 11726 00f1 13       		.uleb128 0x13
 11727 00f2 00       		.byte	0
 11728 00f3 00       		.byte	0
 11729 00f4 13       		.uleb128 0x13
 11730 00f5 34       		.uleb128 0x34
 11731 00f6 00       		.byte	0
 11732 00f7 03       		.uleb128 0x3
 11733 00f8 08       		.uleb128 0x8
 11734 00f9 3A       		.uleb128 0x3a
 11735 00fa 0B       		.uleb128 0xb
 11736 00fb 3B       		.uleb128 0x3b
 11737 00fc 0B       		.uleb128 0xb
 11738 00fd 39       		.uleb128 0x39
 11739 00fe 0B       		.uleb128 0xb
 11740 00ff 49       		.uleb128 0x49
 11741 0100 13       		.uleb128 0x13
 11742 0101 3C       		.uleb128 0x3c
 11743 0102 19       		.uleb128 0x19
 11744 0103 1C       		.uleb128 0x1c
 11745 0104 0B       		.uleb128 0xb
 11746 0105 6C       		.uleb128 0x6c
 11747 0106 19       		.uleb128 0x19
 11748 0107 00       		.byte	0
 11749 0108 00       		.byte	0
 11750 0109 14       		.uleb128 0x14
 11751 010a 34       		.uleb128 0x34
 11752 010b 00       		.byte	0
 11753 010c 03       		.uleb128 0x3
 11754 010d 08       		.uleb128 0x8
 11755 010e 3A       		.uleb128 0x3a
 11756 010f 0B       		.uleb128 0xb
 11757 0110 3B       		.uleb128 0x3b
 11758 0111 0B       		.uleb128 0xb
 11759 0112 39       		.uleb128 0x39
 11760 0113 0B       		.uleb128 0xb
 11761 0114 49       		.uleb128 0x49
 11762 0115 13       		.uleb128 0x13
 11763 0116 3F       		.uleb128 0x3f
 11764 0117 19       		.uleb128 0x19
 11765 0118 3C       		.uleb128 0x3c
 11766 0119 19       		.uleb128 0x19
 11767 011a 00       		.byte	0
 11768 011b 00       		.byte	0
 11769 011c 15       		.uleb128 0x15
 11770 011d 34       		.uleb128 0x34
 11771 011e 00       		.byte	0
 11772 011f 03       		.uleb128 0x3
 11773 0120 08       		.uleb128 0x8
 11774 0121 3A       		.uleb128 0x3a
 11775 0122 0B       		.uleb128 0xb
 11776 0123 3B       		.uleb128 0x3b
 11777 0124 05       		.uleb128 0x5
 11778 0125 39       		.uleb128 0x39
 11779 0126 0B       		.uleb128 0xb
 11780 0127 49       		.uleb128 0x49
 11781 0128 13       		.uleb128 0x13
 11782 0129 3F       		.uleb128 0x3f
GAS LISTING C:\Users\gabri\AppData\Local\Temp\cc5DSkcw.s 			page 269


 11783 012a 19       		.uleb128 0x19
 11784 012b 3C       		.uleb128 0x3c
 11785 012c 19       		.uleb128 0x19
 11786 012d 00       		.byte	0
 11787 012e 00       		.byte	0
 11788 012f 16       		.uleb128 0x16
 11789 0130 0D       		.uleb128 0xd
 11790 0131 00       		.byte	0
 11791 0132 03       		.uleb128 0x3
 11792 0133 08       		.uleb128 0x8
 11793 0134 3A       		.uleb128 0x3a
 11794 0135 0B       		.uleb128 0xb
 11795 0136 3B       		.uleb128 0x3b
 11796 0137 05       		.uleb128 0x5
 11797 0138 39       		.uleb128 0x39
 11798 0139 0B       		.uleb128 0xb
 11799 013a 49       		.uleb128 0x49
 11800 013b 13       		.uleb128 0x13
 11801 013c 38       		.uleb128 0x38
 11802 013d 0B       		.uleb128 0xb
 11803 013e 00       		.byte	0
 11804 013f 00       		.byte	0
 11805 0140 17       		.uleb128 0x17
 11806 0141 18       		.uleb128 0x18
 11807 0142 00       		.byte	0
 11808 0143 00       		.byte	0
 11809 0144 00       		.byte	0
 11810 0145 18       		.uleb128 0x18
 11811 0146 13       		.uleb128 0x13
 11812 0147 01       		.byte	0x1
 11813 0148 03       		.uleb128 0x3
 11814 0149 08       		.uleb128 0x8
 11815 014a 0B       		.uleb128 0xb
 11816 014b 0B       		.uleb128 0xb
 11817 014c 3A       		.uleb128 0x3a
 11818 014d 0B       		.uleb128 0xb
 11819 014e 3B       		.uleb128 0x3b
 11820 014f 05       		.uleb128 0x5
 11821 0150 39       		.uleb128 0x39
 11822 0151 0B       		.uleb128 0xb
 11823 0152 01       		.uleb128 0x1
 11824 0153 13       		.uleb128 0x13
 11825 0154 00       		.byte	0
 11826 0155 00       		.byte	0
 11827 0156 19       		.uleb128 0x19
 11828 0157 08       		.uleb128 0x8
 11829 0158 00       		.byte	0
 11830 0159 3A       		.uleb128 0x3a
 11831 015a 0B       		.uleb128 0xb
 11832 015b 3B       		.uleb128 0x3b
 11833 015c 05       		.uleb128 0x5
 11834 015d 39       		.uleb128 0x39
 11835 015e 0B       		.uleb128 0xb
 11836 015f 18       		.uleb128 0x18
 11837 0160 13       		.uleb128 0x13
 11838 0161 00       		.byte	0
 11839 0162 00       		.byte	0
GAS LISTING C:\Users\gabri\AppData\Local\Temp\cc5DSkcw.s 			page 270


 11840 0163 1A       		.uleb128 0x1a
 11841 0164 2F       		.uleb128 0x2f
 11842 0165 00       		.byte	0
 11843 0166 03       		.uleb128 0x3
 11844 0167 0E       		.uleb128 0xe
 11845 0168 49       		.uleb128 0x49
 11846 0169 13       		.uleb128 0x13
 11847 016a 00       		.byte	0
 11848 016b 00       		.byte	0
 11849 016c 1B       		.uleb128 0x1b
 11850 016d 0D       		.uleb128 0xd
 11851 016e 00       		.byte	0
 11852 016f 03       		.uleb128 0x3
 11853 0170 08       		.uleb128 0x8
 11854 0171 3A       		.uleb128 0x3a
 11855 0172 0B       		.uleb128 0xb
 11856 0173 3B       		.uleb128 0x3b
 11857 0174 05       		.uleb128 0x5
 11858 0175 39       		.uleb128 0x39
 11859 0176 0B       		.uleb128 0xb
 11860 0177 49       		.uleb128 0x49
 11861 0178 13       		.uleb128 0x13
 11862 0179 3F       		.uleb128 0x3f
 11863 017a 19       		.uleb128 0x19
 11864 017b 3C       		.uleb128 0x3c
 11865 017c 19       		.uleb128 0x19
 11866 017d 1C       		.uleb128 0x1c
 11867 017e 0B       		.uleb128 0xb
 11868 017f 6C       		.uleb128 0x6c
 11869 0180 19       		.uleb128 0x19
 11870 0181 00       		.byte	0
 11871 0182 00       		.byte	0
 11872 0183 1C       		.uleb128 0x1c
 11873 0184 34       		.uleb128 0x34
 11874 0185 00       		.byte	0
 11875 0186 03       		.uleb128 0x3
 11876 0187 08       		.uleb128 0x8
 11877 0188 3A       		.uleb128 0x3a
 11878 0189 0B       		.uleb128 0xb
 11879 018a 3B       		.uleb128 0x3b
 11880 018b 0B       		.uleb128 0xb
 11881 018c 39       		.uleb128 0x39
 11882 018d 0B       		.uleb128 0xb
 11883 018e 49       		.uleb128 0x49
 11884 018f 13       		.uleb128 0x13
 11885 0190 02       		.uleb128 0x2
 11886 0191 18       		.uleb128 0x18
 11887 0192 00       		.byte	0
 11888 0193 00       		.byte	0
 11889 0194 1D       		.uleb128 0x1d
 11890 0195 2F       		.uleb128 0x2f
 11891 0196 00       		.byte	0
 11892 0197 03       		.uleb128 0x3
 11893 0198 08       		.uleb128 0x8
 11894 0199 49       		.uleb128 0x49
 11895 019a 13       		.uleb128 0x13
 11896 019b 00       		.byte	0
GAS LISTING C:\Users\gabri\AppData\Local\Temp\cc5DSkcw.s 			page 271


 11897 019c 00       		.byte	0
 11898 019d 1E       		.uleb128 0x1e
 11899 019e 0D       		.uleb128 0xd
 11900 019f 00       		.byte	0
 11901 01a0 03       		.uleb128 0x3
 11902 01a1 08       		.uleb128 0x8
 11903 01a2 3A       		.uleb128 0x3a
 11904 01a3 0B       		.uleb128 0xb
 11905 01a4 3B       		.uleb128 0x3b
 11906 01a5 05       		.uleb128 0x5
 11907 01a6 39       		.uleb128 0x39
 11908 01a7 0B       		.uleb128 0xb
 11909 01a8 49       		.uleb128 0x49
 11910 01a9 13       		.uleb128 0x13
 11911 01aa 3F       		.uleb128 0x3f
 11912 01ab 19       		.uleb128 0x19
 11913 01ac 32       		.uleb128 0x32
 11914 01ad 0B       		.uleb128 0xb
 11915 01ae 3C       		.uleb128 0x3c
 11916 01af 19       		.uleb128 0x19
 11917 01b0 6C       		.uleb128 0x6c
 11918 01b1 19       		.uleb128 0x19
 11919 01b2 00       		.byte	0
 11920 01b3 00       		.byte	0
 11921 01b4 1F       		.uleb128 0x1f
 11922 01b5 0D       		.uleb128 0xd
 11923 01b6 00       		.byte	0
 11924 01b7 03       		.uleb128 0x3
 11925 01b8 08       		.uleb128 0x8
 11926 01b9 3A       		.uleb128 0x3a
 11927 01ba 0B       		.uleb128 0xb
 11928 01bb 3B       		.uleb128 0x3b
 11929 01bc 05       		.uleb128 0x5
 11930 01bd 39       		.uleb128 0x39
 11931 01be 0B       		.uleb128 0xb
 11932 01bf 49       		.uleb128 0x49
 11933 01c0 13       		.uleb128 0x13
 11934 01c1 38       		.uleb128 0x38
 11935 01c2 05       		.uleb128 0x5
 11936 01c3 00       		.byte	0
 11937 01c4 00       		.byte	0
 11938 01c5 20       		.uleb128 0x20
 11939 01c6 30       		.uleb128 0x30
 11940 01c7 00       		.byte	0
 11941 01c8 03       		.uleb128 0x3
 11942 01c9 08       		.uleb128 0x8
 11943 01ca 49       		.uleb128 0x49
 11944 01cb 13       		.uleb128 0x13
 11945 01cc 1C       		.uleb128 0x1c
 11946 01cd 0B       		.uleb128 0xb
 11947 01ce 00       		.byte	0
 11948 01cf 00       		.byte	0
 11949 01d0 21       		.uleb128 0x21
 11950 01d1 2E       		.uleb128 0x2e
 11951 01d2 01       		.byte	0x1
 11952 01d3 3F       		.uleb128 0x3f
 11953 01d4 19       		.uleb128 0x19
GAS LISTING C:\Users\gabri\AppData\Local\Temp\cc5DSkcw.s 			page 272


 11954 01d5 03       		.uleb128 0x3
 11955 01d6 08       		.uleb128 0x8
 11956 01d7 3A       		.uleb128 0x3a
 11957 01d8 0B       		.uleb128 0xb
 11958 01d9 3B       		.uleb128 0x3b
 11959 01da 0B       		.uleb128 0xb
 11960 01db 39       		.uleb128 0x39
 11961 01dc 0B       		.uleb128 0xb
 11962 01dd 6E       		.uleb128 0x6e
 11963 01de 08       		.uleb128 0x8
 11964 01df 49       		.uleb128 0x49
 11965 01e0 13       		.uleb128 0x13
 11966 01e1 3C       		.uleb128 0x3c
 11967 01e2 19       		.uleb128 0x19
 11968 01e3 64       		.uleb128 0x64
 11969 01e4 13       		.uleb128 0x13
 11970 01e5 01       		.uleb128 0x1
 11971 01e6 13       		.uleb128 0x13
 11972 01e7 00       		.byte	0
 11973 01e8 00       		.byte	0
 11974 01e9 22       		.uleb128 0x22
 11975 01ea 30       		.uleb128 0x30
 11976 01eb 00       		.byte	0
 11977 01ec 03       		.uleb128 0x3
 11978 01ed 0E       		.uleb128 0xe
 11979 01ee 49       		.uleb128 0x49
 11980 01ef 13       		.uleb128 0x13
 11981 01f0 1C       		.uleb128 0x1c
 11982 01f1 0B       		.uleb128 0xb
 11983 01f2 00       		.byte	0
 11984 01f3 00       		.byte	0
 11985 01f4 23       		.uleb128 0x23
 11986 01f5 0D       		.uleb128 0xd
 11987 01f6 00       		.byte	0
 11988 01f7 03       		.uleb128 0x3
 11989 01f8 0E       		.uleb128 0xe
 11990 01f9 3A       		.uleb128 0x3a
 11991 01fa 0B       		.uleb128 0xb
 11992 01fb 3B       		.uleb128 0x3b
 11993 01fc 0B       		.uleb128 0xb
 11994 01fd 39       		.uleb128 0x39
 11995 01fe 0B       		.uleb128 0xb
 11996 01ff 49       		.uleb128 0x49
 11997 0200 13       		.uleb128 0x13
 11998 0201 3F       		.uleb128 0x3f
 11999 0202 19       		.uleb128 0x19
 12000 0203 3C       		.uleb128 0x3c
 12001 0204 19       		.uleb128 0x19
 12002 0205 6C       		.uleb128 0x6c
 12003 0206 19       		.uleb128 0x19
 12004 0207 00       		.byte	0
 12005 0208 00       		.byte	0
 12006 0209 24       		.uleb128 0x24
 12007 020a 16       		.uleb128 0x16
 12008 020b 00       		.byte	0
 12009 020c 03       		.uleb128 0x3
 12010 020d 0E       		.uleb128 0xe
GAS LISTING C:\Users\gabri\AppData\Local\Temp\cc5DSkcw.s 			page 273


 12011 020e 3A       		.uleb128 0x3a
 12012 020f 0B       		.uleb128 0xb
 12013 0210 3B       		.uleb128 0x3b
 12014 0211 0B       		.uleb128 0xb
 12015 0212 39       		.uleb128 0x39
 12016 0213 0B       		.uleb128 0xb
 12017 0214 49       		.uleb128 0x49
 12018 0215 13       		.uleb128 0x13
 12019 0216 00       		.byte	0
 12020 0217 00       		.byte	0
 12021 0218 25       		.uleb128 0x25
 12022 0219 2E       		.uleb128 0x2e
 12023 021a 01       		.byte	0x1
 12024 021b 3F       		.uleb128 0x3f
 12025 021c 19       		.uleb128 0x19
 12026 021d 03       		.uleb128 0x3
 12027 021e 0E       		.uleb128 0xe
 12028 021f 3A       		.uleb128 0x3a
 12029 0220 0B       		.uleb128 0xb
 12030 0221 3B       		.uleb128 0x3b
 12031 0222 0B       		.uleb128 0xb
 12032 0223 39       		.uleb128 0x39
 12033 0224 0B       		.uleb128 0xb
 12034 0225 6E       		.uleb128 0x6e
 12035 0226 08       		.uleb128 0x8
 12036 0227 49       		.uleb128 0x49
 12037 0228 13       		.uleb128 0x13
 12038 0229 3C       		.uleb128 0x3c
 12039 022a 19       		.uleb128 0x19
 12040 022b 64       		.uleb128 0x64
 12041 022c 13       		.uleb128 0x13
 12042 022d 01       		.uleb128 0x1
 12043 022e 13       		.uleb128 0x13
 12044 022f 00       		.byte	0
 12045 0230 00       		.byte	0
 12046 0231 26       		.uleb128 0x26
 12047 0232 34       		.uleb128 0x34
 12048 0233 00       		.byte	0
 12049 0234 03       		.uleb128 0x3
 12050 0235 08       		.uleb128 0x8
 12051 0236 3A       		.uleb128 0x3a
 12052 0237 0B       		.uleb128 0xb
 12053 0238 3B       		.uleb128 0x3b
 12054 0239 05       		.uleb128 0x5
 12055 023a 39       		.uleb128 0x39
 12056 023b 0B       		.uleb128 0xb
 12057 023c 49       		.uleb128 0x49
 12058 023d 13       		.uleb128 0x13
 12059 023e 3C       		.uleb128 0x3c
 12060 023f 19       		.uleb128 0x19
 12061 0240 1C       		.uleb128 0x1c
 12062 0241 0B       		.uleb128 0xb
 12063 0242 6C       		.uleb128 0x6c
 12064 0243 19       		.uleb128 0x19
 12065 0244 00       		.byte	0
 12066 0245 00       		.byte	0
 12067 0246 27       		.uleb128 0x27
GAS LISTING C:\Users\gabri\AppData\Local\Temp\cc5DSkcw.s 			page 274


 12068 0247 05       		.uleb128 0x5
 12069 0248 00       		.byte	0
 12070 0249 03       		.uleb128 0x3
 12071 024a 08       		.uleb128 0x8
 12072 024b 3A       		.uleb128 0x3a
 12073 024c 0B       		.uleb128 0xb
 12074 024d 3B       		.uleb128 0x3b
 12075 024e 0B       		.uleb128 0xb
 12076 024f 39       		.uleb128 0x39
 12077 0250 0B       		.uleb128 0xb
 12078 0251 49       		.uleb128 0x49
 12079 0252 13       		.uleb128 0x13
 12080 0253 02       		.uleb128 0x2
 12081 0254 18       		.uleb128 0x18
 12082 0255 00       		.byte	0
 12083 0256 00       		.byte	0
 12084 0257 28       		.uleb128 0x28
 12085 0258 2E       		.uleb128 0x2e
 12086 0259 01       		.byte	0x1
 12087 025a 3F       		.uleb128 0x3f
 12088 025b 19       		.uleb128 0x19
 12089 025c 03       		.uleb128 0x3
 12090 025d 08       		.uleb128 0x8
 12091 025e 3A       		.uleb128 0x3a
 12092 025f 0B       		.uleb128 0xb
 12093 0260 3B       		.uleb128 0x3b
 12094 0261 0B       		.uleb128 0xb
 12095 0262 39       		.uleb128 0x39
 12096 0263 0B       		.uleb128 0xb
 12097 0264 6E       		.uleb128 0x6e
 12098 0265 08       		.uleb128 0x8
 12099 0266 49       		.uleb128 0x49
 12100 0267 13       		.uleb128 0x13
 12101 0268 3C       		.uleb128 0x3c
 12102 0269 19       		.uleb128 0x19
 12103 026a 01       		.uleb128 0x1
 12104 026b 13       		.uleb128 0x13
 12105 026c 00       		.byte	0
 12106 026d 00       		.byte	0
 12107 026e 29       		.uleb128 0x29
 12108 026f 01       		.uleb128 0x1
 12109 0270 01       		.byte	0x1
 12110 0271 49       		.uleb128 0x49
 12111 0272 13       		.uleb128 0x13
 12112 0273 01       		.uleb128 0x1
 12113 0274 13       		.uleb128 0x13
 12114 0275 00       		.byte	0
 12115 0276 00       		.byte	0
 12116 0277 2A       		.uleb128 0x2a
 12117 0278 10       		.uleb128 0x10
 12118 0279 00       		.byte	0
 12119 027a 0B       		.uleb128 0xb
 12120 027b 0B       		.uleb128 0xb
 12121 027c 49       		.uleb128 0x49
 12122 027d 13       		.uleb128 0x13
 12123 027e 00       		.byte	0
 12124 027f 00       		.byte	0
GAS LISTING C:\Users\gabri\AppData\Local\Temp\cc5DSkcw.s 			page 275


 12125 0280 2B       		.uleb128 0x2b
 12126 0281 34       		.uleb128 0x34
 12127 0282 00       		.byte	0
 12128 0283 6E       		.uleb128 0x6e
 12129 0284 08       		.uleb128 0x8
 12130 0285 47       		.uleb128 0x47
 12131 0286 13       		.uleb128 0x13
 12132 0287 1C       		.uleb128 0x1c
 12133 0288 0B       		.uleb128 0xb
 12134 0289 00       		.byte	0
 12135 028a 00       		.byte	0
 12136 028b 2C       		.uleb128 0x2c
 12137 028c 3A       		.uleb128 0x3a
 12138 028d 00       		.byte	0
 12139 028e 3A       		.uleb128 0x3a
 12140 028f 0B       		.uleb128 0xb
 12141 0290 3B       		.uleb128 0x3b
 12142 0291 05       		.uleb128 0x5
 12143 0292 39       		.uleb128 0x39
 12144 0293 0B       		.uleb128 0xb
 12145 0294 18       		.uleb128 0x18
 12146 0295 13       		.uleb128 0x13
 12147 0296 00       		.byte	0
 12148 0297 00       		.byte	0
 12149 0298 2D       		.uleb128 0x2d
 12150 0299 2E       		.uleb128 0x2e
 12151 029a 01       		.byte	0x1
 12152 029b 3F       		.uleb128 0x3f
 12153 029c 19       		.uleb128 0x19
 12154 029d 03       		.uleb128 0x3
 12155 029e 0E       		.uleb128 0xe
 12156 029f 3A       		.uleb128 0x3a
 12157 02a0 0B       		.uleb128 0xb
 12158 02a1 3B       		.uleb128 0x3b
 12159 02a2 05       		.uleb128 0x5
 12160 02a3 39       		.uleb128 0x39
 12161 02a4 0B       		.uleb128 0xb
 12162 02a5 6E       		.uleb128 0x6e
 12163 02a6 08       		.uleb128 0x8
 12164 02a7 49       		.uleb128 0x49
 12165 02a8 13       		.uleb128 0x13
 12166 02a9 3C       		.uleb128 0x3c
 12167 02aa 19       		.uleb128 0x19
 12168 02ab 01       		.uleb128 0x1
 12169 02ac 13       		.uleb128 0x13
 12170 02ad 00       		.byte	0
 12171 02ae 00       		.byte	0
 12172 02af 2E       		.uleb128 0x2e
 12173 02b0 16       		.uleb128 0x16
 12174 02b1 00       		.byte	0
 12175 02b2 03       		.uleb128 0x3
 12176 02b3 08       		.uleb128 0x8
 12177 02b4 3A       		.uleb128 0x3a
 12178 02b5 0B       		.uleb128 0xb
 12179 02b6 3B       		.uleb128 0x3b
 12180 02b7 05       		.uleb128 0x5
 12181 02b8 39       		.uleb128 0x39
GAS LISTING C:\Users\gabri\AppData\Local\Temp\cc5DSkcw.s 			page 276


 12182 02b9 0B       		.uleb128 0xb
 12183 02ba 49       		.uleb128 0x49
 12184 02bb 13       		.uleb128 0x13
 12185 02bc 00       		.byte	0
 12186 02bd 00       		.byte	0
 12187 02be 2F       		.uleb128 0x2f
 12188 02bf 21       		.uleb128 0x21
 12189 02c0 00       		.byte	0
 12190 02c1 49       		.uleb128 0x49
 12191 02c2 13       		.uleb128 0x13
 12192 02c3 2F       		.uleb128 0x2f
 12193 02c4 0B       		.uleb128 0xb
 12194 02c5 00       		.byte	0
 12195 02c6 00       		.byte	0
 12196 02c7 30       		.uleb128 0x30
 12197 02c8 34       		.uleb128 0x34
 12198 02c9 00       		.byte	0
 12199 02ca 03       		.uleb128 0x3
 12200 02cb 0E       		.uleb128 0xe
 12201 02cc 3A       		.uleb128 0x3a
 12202 02cd 0B       		.uleb128 0xb
 12203 02ce 3B       		.uleb128 0x3b
 12204 02cf 0B       		.uleb128 0xb
 12205 02d0 39       		.uleb128 0x39
 12206 02d1 0B       		.uleb128 0xb
 12207 02d2 49       		.uleb128 0x49
 12208 02d3 13       		.uleb128 0x13
 12209 02d4 02       		.uleb128 0x2
 12210 02d5 18       		.uleb128 0x18
 12211 02d6 00       		.byte	0
 12212 02d7 00       		.byte	0
 12213 02d8 31       		.uleb128 0x31
 12214 02d9 2E       		.uleb128 0x2e
 12215 02da 01       		.byte	0x1
 12216 02db 3F       		.uleb128 0x3f
 12217 02dc 19       		.uleb128 0x19
 12218 02dd 03       		.uleb128 0x3
 12219 02de 08       		.uleb128 0x8
 12220 02df 3A       		.uleb128 0x3a
 12221 02e0 0B       		.uleb128 0xb
 12222 02e1 3B       		.uleb128 0x3b
 12223 02e2 0B       		.uleb128 0xb
 12224 02e3 39       		.uleb128 0x39
 12225 02e4 0B       		.uleb128 0xb
 12226 02e5 6E       		.uleb128 0x6e
 12227 02e6 08       		.uleb128 0x8
 12228 02e7 32       		.uleb128 0x32
 12229 02e8 0B       		.uleb128 0xb
 12230 02e9 3C       		.uleb128 0x3c
 12231 02ea 19       		.uleb128 0x19
 12232 02eb 64       		.uleb128 0x64
 12233 02ec 13       		.uleb128 0x13
 12234 02ed 01       		.uleb128 0x1
 12235 02ee 13       		.uleb128 0x13
 12236 02ef 00       		.byte	0
 12237 02f0 00       		.byte	0
 12238 02f1 32       		.uleb128 0x32
GAS LISTING C:\Users\gabri\AppData\Local\Temp\cc5DSkcw.s 			page 277


 12239 02f2 30       		.uleb128 0x30
 12240 02f3 00       		.byte	0
 12241 02f4 03       		.uleb128 0x3
 12242 02f5 08       		.uleb128 0x8
 12243 02f6 49       		.uleb128 0x49
 12244 02f7 13       		.uleb128 0x13
 12245 02f8 1C       		.uleb128 0x1c
 12246 02f9 06       		.uleb128 0x6
 12247 02fa 00       		.byte	0
 12248 02fb 00       		.byte	0
 12249 02fc 33       		.uleb128 0x33
 12250 02fd 05       		.uleb128 0x5
 12251 02fe 00       		.byte	0
 12252 02ff 03       		.uleb128 0x3
 12253 0300 0E       		.uleb128 0xe
 12254 0301 49       		.uleb128 0x49
 12255 0302 13       		.uleb128 0x13
 12256 0303 34       		.uleb128 0x34
 12257 0304 19       		.uleb128 0x19
 12258 0305 02       		.uleb128 0x2
 12259 0306 18       		.uleb128 0x18
 12260 0307 00       		.byte	0
 12261 0308 00       		.byte	0
 12262 0309 34       		.uleb128 0x34
 12263 030a 39       		.uleb128 0x39
 12264 030b 00       		.byte	0
 12265 030c 03       		.uleb128 0x3
 12266 030d 08       		.uleb128 0x8
 12267 030e 3A       		.uleb128 0x3a
 12268 030f 0B       		.uleb128 0xb
 12269 0310 3B       		.uleb128 0x3b
 12270 0311 05       		.uleb128 0x5
 12271 0312 39       		.uleb128 0x39
 12272 0313 0B       		.uleb128 0xb
 12273 0314 8901     		.uleb128 0x89
 12274 0316 19       		.uleb128 0x19
 12275 0317 00       		.byte	0
 12276 0318 00       		.byte	0
 12277 0319 35       		.uleb128 0x35
 12278 031a 13       		.uleb128 0x13
 12279 031b 01       		.byte	0x1
 12280 031c 03       		.uleb128 0x3
 12281 031d 0E       		.uleb128 0xe
 12282 031e 0B       		.uleb128 0xb
 12283 031f 0B       		.uleb128 0xb
 12284 0320 3A       		.uleb128 0x3a
 12285 0321 0B       		.uleb128 0xb
 12286 0322 3B       		.uleb128 0x3b
 12287 0323 0B       		.uleb128 0xb
 12288 0324 39       		.uleb128 0x39
 12289 0325 0B       		.uleb128 0xb
 12290 0326 01       		.uleb128 0x1
 12291 0327 13       		.uleb128 0x13
 12292 0328 00       		.byte	0
 12293 0329 00       		.byte	0
 12294 032a 36       		.uleb128 0x36
 12295 032b 2E       		.uleb128 0x2e
GAS LISTING C:\Users\gabri\AppData\Local\Temp\cc5DSkcw.s 			page 278


 12296 032c 01       		.byte	0x1
 12297 032d 3F       		.uleb128 0x3f
 12298 032e 19       		.uleb128 0x19
 12299 032f 03       		.uleb128 0x3
 12300 0330 0E       		.uleb128 0xe
 12301 0331 3A       		.uleb128 0x3a
 12302 0332 0B       		.uleb128 0xb
 12303 0333 3B       		.uleb128 0x3b
 12304 0334 0B       		.uleb128 0xb
 12305 0335 39       		.uleb128 0x39
 12306 0336 0B       		.uleb128 0xb
 12307 0337 6E       		.uleb128 0x6e
 12308 0338 08       		.uleb128 0x8
 12309 0339 3C       		.uleb128 0x3c
 12310 033a 19       		.uleb128 0x19
 12311 033b 63       		.uleb128 0x63
 12312 033c 19       		.uleb128 0x19
 12313 033d 8B01     		.uleb128 0x8b
 12314 033f 0B       		.uleb128 0xb
 12315 0340 64       		.uleb128 0x64
 12316 0341 13       		.uleb128 0x13
 12317 0342 00       		.byte	0
 12318 0343 00       		.byte	0
 12319 0344 37       		.uleb128 0x37
 12320 0345 39       		.uleb128 0x39
 12321 0346 01       		.byte	0x1
 12322 0347 03       		.uleb128 0x3
 12323 0348 08       		.uleb128 0x8
 12324 0349 3A       		.uleb128 0x3a
 12325 034a 0B       		.uleb128 0xb
 12326 034b 3B       		.uleb128 0x3b
 12327 034c 0B       		.uleb128 0xb
 12328 034d 39       		.uleb128 0x39
 12329 034e 0B       		.uleb128 0xb
 12330 034f 01       		.uleb128 0x1
 12331 0350 13       		.uleb128 0x13
 12332 0351 00       		.byte	0
 12333 0352 00       		.byte	0
 12334 0353 38       		.uleb128 0x38
 12335 0354 2E       		.uleb128 0x2e
 12336 0355 01       		.byte	0x1
 12337 0356 3F       		.uleb128 0x3f
 12338 0357 19       		.uleb128 0x19
 12339 0358 03       		.uleb128 0x3
 12340 0359 08       		.uleb128 0x8
 12341 035a 3A       		.uleb128 0x3a
 12342 035b 0B       		.uleb128 0xb
 12343 035c 3B       		.uleb128 0x3b
 12344 035d 05       		.uleb128 0x5
 12345 035e 39       		.uleb128 0x39
 12346 035f 0B       		.uleb128 0xb
 12347 0360 3C       		.uleb128 0x3c
 12348 0361 19       		.uleb128 0x19
 12349 0362 01       		.uleb128 0x1
 12350 0363 13       		.uleb128 0x13
 12351 0364 00       		.byte	0
 12352 0365 00       		.byte	0
GAS LISTING C:\Users\gabri\AppData\Local\Temp\cc5DSkcw.s 			page 279


 12353 0366 39       		.uleb128 0x39
 12354 0367 0B       		.uleb128 0xb
 12355 0368 01       		.byte	0x1
 12356 0369 11       		.uleb128 0x11
 12357 036a 01       		.uleb128 0x1
 12358 036b 12       		.uleb128 0x12
 12359 036c 07       		.uleb128 0x7
 12360 036d 00       		.byte	0
 12361 036e 00       		.byte	0
 12362 036f 3A       		.uleb128 0x3a
 12363 0370 2E       		.uleb128 0x2e
 12364 0371 01       		.byte	0x1
 12365 0372 47       		.uleb128 0x47
 12366 0373 13       		.uleb128 0x13
 12367 0374 64       		.uleb128 0x64
 12368 0375 13       		.uleb128 0x13
 12369 0376 11       		.uleb128 0x11
 12370 0377 01       		.uleb128 0x1
 12371 0378 12       		.uleb128 0x12
 12372 0379 07       		.uleb128 0x7
 12373 037a 40       		.uleb128 0x40
 12374 037b 18       		.uleb128 0x18
 12375 037c 9642     		.uleb128 0x2116
 12376 037e 19       		.uleb128 0x19
 12377 037f 01       		.uleb128 0x1
 12378 0380 13       		.uleb128 0x13
 12379 0381 00       		.byte	0
 12380 0382 00       		.byte	0
 12381 0383 3B       		.uleb128 0x3b
 12382 0384 2E       		.uleb128 0x2e
 12383 0385 01       		.byte	0x1
 12384 0386 3F       		.uleb128 0x3f
 12385 0387 19       		.uleb128 0x19
 12386 0388 03       		.uleb128 0x3
 12387 0389 0E       		.uleb128 0xe
 12388 038a 3A       		.uleb128 0x3a
 12389 038b 0B       		.uleb128 0xb
 12390 038c 3B       		.uleb128 0x3b
 12391 038d 0B       		.uleb128 0xb
 12392 038e 39       		.uleb128 0x39
 12393 038f 0B       		.uleb128 0xb
 12394 0390 6E       		.uleb128 0x6e
 12395 0391 08       		.uleb128 0x8
 12396 0392 32       		.uleb128 0x32
 12397 0393 0B       		.uleb128 0xb
 12398 0394 3C       		.uleb128 0x3c
 12399 0395 19       		.uleb128 0x19
 12400 0396 64       		.uleb128 0x64
 12401 0397 13       		.uleb128 0x13
 12402 0398 01       		.uleb128 0x1
 12403 0399 13       		.uleb128 0x13
 12404 039a 00       		.byte	0
 12405 039b 00       		.byte	0
 12406 039c 3C       		.uleb128 0x3c
 12407 039d 34       		.uleb128 0x34
 12408 039e 00       		.byte	0
 12409 039f 03       		.uleb128 0x3
GAS LISTING C:\Users\gabri\AppData\Local\Temp\cc5DSkcw.s 			page 280


 12410 03a0 08       		.uleb128 0x8
 12411 03a1 3A       		.uleb128 0x3a
 12412 03a2 0B       		.uleb128 0xb
 12413 03a3 3B       		.uleb128 0x3b
 12414 03a4 0B       		.uleb128 0xb
 12415 03a5 39       		.uleb128 0x39
 12416 03a6 0B       		.uleb128 0xb
 12417 03a7 49       		.uleb128 0x49
 12418 03a8 13       		.uleb128 0x13
 12419 03a9 3C       		.uleb128 0x3c
 12420 03aa 19       		.uleb128 0x19
 12421 03ab 1C       		.uleb128 0x1c
 12422 03ac 0A       		.uleb128 0xa
 12423 03ad 6C       		.uleb128 0x6c
 12424 03ae 19       		.uleb128 0x19
 12425 03af 00       		.byte	0
 12426 03b0 00       		.byte	0
 12427 03b1 3D       		.uleb128 0x3d
 12428 03b2 02       		.uleb128 0x2
 12429 03b3 01       		.byte	0x1
 12430 03b4 03       		.uleb128 0x3
 12431 03b5 08       		.uleb128 0x8
 12432 03b6 3C       		.uleb128 0x3c
 12433 03b7 19       		.uleb128 0x19
 12434 03b8 01       		.uleb128 0x1
 12435 03b9 13       		.uleb128 0x13
 12436 03ba 00       		.byte	0
 12437 03bb 00       		.byte	0
 12438 03bc 3E       		.uleb128 0x3e
 12439 03bd 04       		.uleb128 0x4
 12440 03be 01       		.byte	0x1
 12441 03bf 03       		.uleb128 0x3
 12442 03c0 08       		.uleb128 0x8
 12443 03c1 3E       		.uleb128 0x3e
 12444 03c2 0B       		.uleb128 0xb
 12445 03c3 0B       		.uleb128 0xb
 12446 03c4 0B       		.uleb128 0xb
 12447 03c5 49       		.uleb128 0x49
 12448 03c6 13       		.uleb128 0x13
 12449 03c7 3A       		.uleb128 0x3a
 12450 03c8 0B       		.uleb128 0xb
 12451 03c9 3B       		.uleb128 0x3b
 12452 03ca 0B       		.uleb128 0xb
 12453 03cb 39       		.uleb128 0x39
 12454 03cc 0B       		.uleb128 0xb
 12455 03cd 01       		.uleb128 0x1
 12456 03ce 13       		.uleb128 0x13
 12457 03cf 00       		.byte	0
 12458 03d0 00       		.byte	0
 12459 03d1 3F       		.uleb128 0x3f
 12460 03d2 37       		.uleb128 0x37
 12461 03d3 00       		.byte	0
 12462 03d4 49       		.uleb128 0x49
 12463 03d5 13       		.uleb128 0x13
 12464 03d6 00       		.byte	0
 12465 03d7 00       		.byte	0
 12466 03d8 40       		.uleb128 0x40
GAS LISTING C:\Users\gabri\AppData\Local\Temp\cc5DSkcw.s 			page 281


 12467 03d9 34       		.uleb128 0x34
 12468 03da 00       		.byte	0
 12469 03db 6E       		.uleb128 0x6e
 12470 03dc 08       		.uleb128 0x8
 12471 03dd 47       		.uleb128 0x47
 12472 03de 13       		.uleb128 0x13
 12473 03df 1C       		.uleb128 0x1c
 12474 03e0 05       		.uleb128 0x5
 12475 03e1 00       		.byte	0
 12476 03e2 00       		.byte	0
 12477 03e3 41       		.uleb128 0x41
 12478 03e4 16       		.uleb128 0x16
 12479 03e5 00       		.byte	0
 12480 03e6 03       		.uleb128 0x3
 12481 03e7 0E       		.uleb128 0xe
 12482 03e8 3A       		.uleb128 0x3a
 12483 03e9 0B       		.uleb128 0xb
 12484 03ea 3B       		.uleb128 0x3b
 12485 03eb 05       		.uleb128 0x5
 12486 03ec 39       		.uleb128 0x39
 12487 03ed 0B       		.uleb128 0xb
 12488 03ee 49       		.uleb128 0x49
 12489 03ef 13       		.uleb128 0x13
 12490 03f0 00       		.byte	0
 12491 03f1 00       		.byte	0
 12492 03f2 42       		.uleb128 0x42
 12493 03f3 2E       		.uleb128 0x2e
 12494 03f4 01       		.byte	0x1
 12495 03f5 3F       		.uleb128 0x3f
 12496 03f6 19       		.uleb128 0x19
 12497 03f7 03       		.uleb128 0x3
 12498 03f8 08       		.uleb128 0x8
 12499 03f9 3A       		.uleb128 0x3a
 12500 03fa 0B       		.uleb128 0xb
 12501 03fb 3B       		.uleb128 0x3b
 12502 03fc 05       		.uleb128 0x5
 12503 03fd 39       		.uleb128 0x39
 12504 03fe 0B       		.uleb128 0xb
 12505 03ff 6E       		.uleb128 0x6e
 12506 0400 08       		.uleb128 0x8
 12507 0401 32       		.uleb128 0x32
 12508 0402 0B       		.uleb128 0xb
 12509 0403 3C       		.uleb128 0x3c
 12510 0404 19       		.uleb128 0x19
 12511 0405 64       		.uleb128 0x64
 12512 0406 13       		.uleb128 0x13
 12513 0407 01       		.uleb128 0x1
 12514 0408 13       		.uleb128 0x13
 12515 0409 00       		.byte	0
 12516 040a 00       		.byte	0
 12517 040b 43       		.uleb128 0x43
 12518 040c 2F       		.uleb128 0x2f
 12519 040d 00       		.byte	0
 12520 040e 03       		.uleb128 0x3
 12521 040f 0E       		.uleb128 0xe
 12522 0410 49       		.uleb128 0x49
 12523 0411 13       		.uleb128 0x13
GAS LISTING C:\Users\gabri\AppData\Local\Temp\cc5DSkcw.s 			page 282


 12524 0412 1E       		.uleb128 0x1e
 12525 0413 19       		.uleb128 0x19
 12526 0414 00       		.byte	0
 12527 0415 00       		.byte	0
 12528 0416 44       		.uleb128 0x44
 12529 0417 0D       		.uleb128 0xd
 12530 0418 00       		.byte	0
 12531 0419 03       		.uleb128 0x3
 12532 041a 08       		.uleb128 0x8
 12533 041b 3A       		.uleb128 0x3a
 12534 041c 0B       		.uleb128 0xb
 12535 041d 3B       		.uleb128 0x3b
 12536 041e 05       		.uleb128 0x5
 12537 041f 39       		.uleb128 0x39
 12538 0420 0B       		.uleb128 0xb
 12539 0421 49       		.uleb128 0x49
 12540 0422 13       		.uleb128 0x13
 12541 0423 3F       		.uleb128 0x3f
 12542 0424 19       		.uleb128 0x19
 12543 0425 3C       		.uleb128 0x3c
 12544 0426 19       		.uleb128 0x19
 12545 0427 1C       		.uleb128 0x1c
 12546 0428 06       		.uleb128 0x6
 12547 0429 6C       		.uleb128 0x6c
 12548 042a 19       		.uleb128 0x19
 12549 042b 00       		.byte	0
 12550 042c 00       		.byte	0
 12551 042d 45       		.uleb128 0x45
 12552 042e 30       		.uleb128 0x30
 12553 042f 00       		.byte	0
 12554 0430 03       		.uleb128 0x3
 12555 0431 0E       		.uleb128 0xe
 12556 0432 49       		.uleb128 0x49
 12557 0433 13       		.uleb128 0x13
 12558 0434 1C       		.uleb128 0x1c
 12559 0435 06       		.uleb128 0x6
 12560 0436 00       		.byte	0
 12561 0437 00       		.byte	0
 12562 0438 46       		.uleb128 0x46
 12563 0439 0D       		.uleb128 0xd
 12564 043a 00       		.byte	0
 12565 043b 03       		.uleb128 0x3
 12566 043c 08       		.uleb128 0x8
 12567 043d 3A       		.uleb128 0x3a
 12568 043e 0B       		.uleb128 0xb
 12569 043f 3B       		.uleb128 0x3b
 12570 0440 05       		.uleb128 0x5
 12571 0441 39       		.uleb128 0x39
 12572 0442 0B       		.uleb128 0xb
 12573 0443 49       		.uleb128 0x49
 12574 0444 13       		.uleb128 0x13
 12575 0445 3F       		.uleb128 0x3f
 12576 0446 19       		.uleb128 0x19
 12577 0447 3C       		.uleb128 0x3c
 12578 0448 19       		.uleb128 0x19
 12579 0449 1C       		.uleb128 0x1c
 12580 044a 05       		.uleb128 0x5
GAS LISTING C:\Users\gabri\AppData\Local\Temp\cc5DSkcw.s 			page 283


 12581 044b 6C       		.uleb128 0x6c
 12582 044c 19       		.uleb128 0x19
 12583 044d 00       		.byte	0
 12584 044e 00       		.byte	0
 12585 044f 47       		.uleb128 0x47
 12586 0450 30       		.uleb128 0x30
 12587 0451 00       		.byte	0
 12588 0452 03       		.uleb128 0x3
 12589 0453 0E       		.uleb128 0xe
 12590 0454 49       		.uleb128 0x49
 12591 0455 13       		.uleb128 0x13
 12592 0456 1C       		.uleb128 0x1c
 12593 0457 05       		.uleb128 0x5
 12594 0458 00       		.byte	0
 12595 0459 00       		.byte	0
 12596 045a 48       		.uleb128 0x48
 12597 045b 30       		.uleb128 0x30
 12598 045c 00       		.byte	0
 12599 045d 03       		.uleb128 0x3
 12600 045e 08       		.uleb128 0x8
 12601 045f 49       		.uleb128 0x49
 12602 0460 13       		.uleb128 0x13
 12603 0461 1C       		.uleb128 0x1c
 12604 0462 05       		.uleb128 0x5
 12605 0463 00       		.byte	0
 12606 0464 00       		.byte	0
 12607 0465 49       		.uleb128 0x49
 12608 0466 2E       		.uleb128 0x2e
 12609 0467 00       		.byte	0
 12610 0468 3F       		.uleb128 0x3f
 12611 0469 19       		.uleb128 0x19
 12612 046a 03       		.uleb128 0x3
 12613 046b 08       		.uleb128 0x8
 12614 046c 3A       		.uleb128 0x3a
 12615 046d 0B       		.uleb128 0xb
 12616 046e 3B       		.uleb128 0x3b
 12617 046f 05       		.uleb128 0x5
 12618 0470 39       		.uleb128 0x39
 12619 0471 0B       		.uleb128 0xb
 12620 0472 49       		.uleb128 0x49
 12621 0473 13       		.uleb128 0x13
 12622 0474 3C       		.uleb128 0x3c
 12623 0475 19       		.uleb128 0x19
 12624 0476 00       		.byte	0
 12625 0477 00       		.byte	0
 12626 0478 4A       		.uleb128 0x4a
 12627 0479 34       		.uleb128 0x34
 12628 047a 00       		.byte	0
 12629 047b 03       		.uleb128 0x3
 12630 047c 0E       		.uleb128 0xe
 12631 047d 3A       		.uleb128 0x3a
 12632 047e 0B       		.uleb128 0xb
 12633 047f 3B       		.uleb128 0x3b
 12634 0480 05       		.uleb128 0x5
 12635 0481 39       		.uleb128 0x39
 12636 0482 0B       		.uleb128 0xb
 12637 0483 49       		.uleb128 0x49
GAS LISTING C:\Users\gabri\AppData\Local\Temp\cc5DSkcw.s 			page 284


 12638 0484 13       		.uleb128 0x13
 12639 0485 02       		.uleb128 0x2
 12640 0486 18       		.uleb128 0x18
 12641 0487 00       		.byte	0
 12642 0488 00       		.byte	0
 12643 0489 4B       		.uleb128 0x4b
 12644 048a 2E       		.uleb128 0x2e
 12645 048b 01       		.byte	0x1
 12646 048c 03       		.uleb128 0x3
 12647 048d 0E       		.uleb128 0xe
 12648 048e 3A       		.uleb128 0x3a
 12649 048f 0B       		.uleb128 0xb
 12650 0490 3B       		.uleb128 0x3b
 12651 0491 0B       		.uleb128 0xb
 12652 0492 39       		.uleb128 0x39
 12653 0493 0B       		.uleb128 0xb
 12654 0494 49       		.uleb128 0x49
 12655 0495 13       		.uleb128 0x13
 12656 0496 3C       		.uleb128 0x3c
 12657 0497 19       		.uleb128 0x19
 12658 0498 01       		.uleb128 0x1
 12659 0499 13       		.uleb128 0x13
 12660 049a 00       		.byte	0
 12661 049b 00       		.byte	0
 12662 049c 4C       		.uleb128 0x4c
 12663 049d 0D       		.uleb128 0xd
 12664 049e 00       		.byte	0
 12665 049f 03       		.uleb128 0x3
 12666 04a0 0E       		.uleb128 0xe
 12667 04a1 3A       		.uleb128 0x3a
 12668 04a2 0B       		.uleb128 0xb
 12669 04a3 3B       		.uleb128 0x3b
 12670 04a4 0B       		.uleb128 0xb
 12671 04a5 39       		.uleb128 0x39
 12672 04a6 0B       		.uleb128 0xb
 12673 04a7 49       		.uleb128 0x49
 12674 04a8 13       		.uleb128 0x13
 12675 04a9 38       		.uleb128 0x38
 12676 04aa 0B       		.uleb128 0xb
 12677 04ab 00       		.byte	0
 12678 04ac 00       		.byte	0
 12679 04ad 4D       		.uleb128 0x4d
 12680 04ae 05       		.uleb128 0x5
 12681 04af 00       		.byte	0
 12682 04b0 03       		.uleb128 0x3
 12683 04b1 0E       		.uleb128 0xe
 12684 04b2 3A       		.uleb128 0x3a
 12685 04b3 0B       		.uleb128 0xb
 12686 04b4 3B       		.uleb128 0x3b
 12687 04b5 0B       		.uleb128 0xb
 12688 04b6 39       		.uleb128 0x39
 12689 04b7 0B       		.uleb128 0xb
 12690 04b8 49       		.uleb128 0x49
 12691 04b9 13       		.uleb128 0x13
 12692 04ba 02       		.uleb128 0x2
 12693 04bb 18       		.uleb128 0x18
 12694 04bc 00       		.byte	0
GAS LISTING C:\Users\gabri\AppData\Local\Temp\cc5DSkcw.s 			page 285


 12695 04bd 00       		.byte	0
 12696 04be 4E       		.uleb128 0x4e
 12697 04bf 2E       		.uleb128 0x2e
 12698 04c0 01       		.byte	0x1
 12699 04c1 3F       		.uleb128 0x3f
 12700 04c2 19       		.uleb128 0x19
 12701 04c3 03       		.uleb128 0x3
 12702 04c4 08       		.uleb128 0x8
 12703 04c5 3A       		.uleb128 0x3a
 12704 04c6 0B       		.uleb128 0xb
 12705 04c7 3B       		.uleb128 0x3b
 12706 04c8 0B       		.uleb128 0xb
 12707 04c9 39       		.uleb128 0x39
 12708 04ca 0B       		.uleb128 0xb
 12709 04cb 6E       		.uleb128 0x6e
 12710 04cc 08       		.uleb128 0x8
 12711 04cd 3C       		.uleb128 0x3c
 12712 04ce 19       		.uleb128 0x19
 12713 04cf 64       		.uleb128 0x64
 12714 04d0 13       		.uleb128 0x13
 12715 04d1 01       		.uleb128 0x1
 12716 04d2 13       		.uleb128 0x13
 12717 04d3 00       		.byte	0
 12718 04d4 00       		.byte	0
 12719 04d5 4F       		.uleb128 0x4f
 12720 04d6 3A       		.uleb128 0x3a
 12721 04d7 00       		.byte	0
 12722 04d8 3A       		.uleb128 0x3a
 12723 04d9 0B       		.uleb128 0xb
 12724 04da 3B       		.uleb128 0x3b
 12725 04db 0B       		.uleb128 0xb
 12726 04dc 39       		.uleb128 0x39
 12727 04dd 0B       		.uleb128 0xb
 12728 04de 18       		.uleb128 0x18
 12729 04df 13       		.uleb128 0x13
 12730 04e0 00       		.byte	0
 12731 04e1 00       		.byte	0
 12732 04e2 50       		.uleb128 0x50
 12733 04e3 30       		.uleb128 0x30
 12734 04e4 00       		.byte	0
 12735 04e5 03       		.uleb128 0x3
 12736 04e6 0E       		.uleb128 0xe
 12737 04e7 49       		.uleb128 0x49
 12738 04e8 13       		.uleb128 0x13
 12739 04e9 1E       		.uleb128 0x1e
 12740 04ea 19       		.uleb128 0x19
 12741 04eb 1C       		.uleb128 0x1c
 12742 04ec 0B       		.uleb128 0xb
 12743 04ed 00       		.byte	0
 12744 04ee 00       		.byte	0
 12745 04ef 51       		.uleb128 0x51
 12746 04f0 34       		.uleb128 0x34
 12747 04f1 00       		.byte	0
 12748 04f2 03       		.uleb128 0x3
 12749 04f3 08       		.uleb128 0x8
 12750 04f4 3A       		.uleb128 0x3a
 12751 04f5 0B       		.uleb128 0xb
GAS LISTING C:\Users\gabri\AppData\Local\Temp\cc5DSkcw.s 			page 286


 12752 04f6 3B       		.uleb128 0x3b
 12753 04f7 0B       		.uleb128 0xb
 12754 04f8 39       		.uleb128 0x39
 12755 04f9 0B       		.uleb128 0xb
 12756 04fa 49       		.uleb128 0x49
 12757 04fb 13       		.uleb128 0x13
 12758 04fc 3C       		.uleb128 0x3c
 12759 04fd 19       		.uleb128 0x19
 12760 04fe 1C       		.uleb128 0x1c
 12761 04ff 05       		.uleb128 0x5
 12762 0500 6C       		.uleb128 0x6c
 12763 0501 19       		.uleb128 0x19
 12764 0502 00       		.byte	0
 12765 0503 00       		.byte	0
 12766 0504 52       		.uleb128 0x52
 12767 0505 34       		.uleb128 0x34
 12768 0506 00       		.byte	0
 12769 0507 03       		.uleb128 0x3
 12770 0508 08       		.uleb128 0x8
 12771 0509 3A       		.uleb128 0x3a
 12772 050a 0B       		.uleb128 0xb
 12773 050b 3B       		.uleb128 0x3b
 12774 050c 05       		.uleb128 0x5
 12775 050d 39       		.uleb128 0x39
 12776 050e 0B       		.uleb128 0xb
 12777 050f 49       		.uleb128 0x49
 12778 0510 13       		.uleb128 0x13
 12779 0511 3C       		.uleb128 0x3c
 12780 0512 19       		.uleb128 0x19
 12781 0513 1C       		.uleb128 0x1c
 12782 0514 05       		.uleb128 0x5
 12783 0515 6C       		.uleb128 0x6c
 12784 0516 19       		.uleb128 0x19
 12785 0517 00       		.byte	0
 12786 0518 00       		.byte	0
 12787 0519 53       		.uleb128 0x53
 12788 051a 16       		.uleb128 0x16
 12789 051b 00       		.byte	0
 12790 051c 03       		.uleb128 0x3
 12791 051d 08       		.uleb128 0x8
 12792 051e 3A       		.uleb128 0x3a
 12793 051f 0B       		.uleb128 0xb
 12794 0520 3B       		.uleb128 0x3b
 12795 0521 0B       		.uleb128 0xb
 12796 0522 39       		.uleb128 0x39
 12797 0523 0B       		.uleb128 0xb
 12798 0524 49       		.uleb128 0x49
 12799 0525 13       		.uleb128 0x13
 12800 0526 8801     		.uleb128 0x88
 12801 0528 0B       		.uleb128 0xb
 12802 0529 00       		.byte	0
 12803 052a 00       		.byte	0
 12804 052b 54       		.uleb128 0x54
 12805 052c 13       		.uleb128 0x13
 12806 052d 01       		.byte	0x1
 12807 052e 03       		.uleb128 0x3
 12808 052f 0E       		.uleb128 0xe
GAS LISTING C:\Users\gabri\AppData\Local\Temp\cc5DSkcw.s 			page 287


 12809 0530 0B       		.uleb128 0xb
 12810 0531 0B       		.uleb128 0xb
 12811 0532 3A       		.uleb128 0x3a
 12812 0533 0B       		.uleb128 0xb
 12813 0534 3B       		.uleb128 0x3b
 12814 0535 0B       		.uleb128 0xb
 12815 0536 39       		.uleb128 0x39
 12816 0537 0B       		.uleb128 0xb
 12817 0538 32       		.uleb128 0x32
 12818 0539 0B       		.uleb128 0xb
 12819 053a 01       		.uleb128 0x1
 12820 053b 13       		.uleb128 0x13
 12821 053c 00       		.byte	0
 12822 053d 00       		.byte	0
 12823 053e 55       		.uleb128 0x55
 12824 053f 34       		.uleb128 0x34
 12825 0540 00       		.byte	0
 12826 0541 6E       		.uleb128 0x6e
 12827 0542 08       		.uleb128 0x8
 12828 0543 47       		.uleb128 0x47
 12829 0544 13       		.uleb128 0x13
 12830 0545 1C       		.uleb128 0x1c
 12831 0546 0D       		.uleb128 0xd
 12832 0547 00       		.byte	0
 12833 0548 00       		.byte	0
 12834 0549 56       		.uleb128 0x56
 12835 054a 34       		.uleb128 0x34
 12836 054b 00       		.byte	0
 12837 054c 6E       		.uleb128 0x6e
 12838 054d 08       		.uleb128 0x8
 12839 054e 47       		.uleb128 0x47
 12840 054f 13       		.uleb128 0x13
 12841 0550 1C       		.uleb128 0x1c
 12842 0551 06       		.uleb128 0x6
 12843 0552 00       		.byte	0
 12844 0553 00       		.byte	0
 12845 0554 57       		.uleb128 0x57
 12846 0555 02       		.uleb128 0x2
 12847 0556 01       		.byte	0x1
 12848 0557 03       		.uleb128 0x3
 12849 0558 0E       		.uleb128 0xe
 12850 0559 0B       		.uleb128 0xb
 12851 055a 0B       		.uleb128 0xb
 12852 055b 3A       		.uleb128 0x3a
 12853 055c 0B       		.uleb128 0xb
 12854 055d 3B       		.uleb128 0x3b
 12855 055e 0B       		.uleb128 0xb
 12856 055f 39       		.uleb128 0x39
 12857 0560 0B       		.uleb128 0xb
 12858 0561 01       		.uleb128 0x1
 12859 0562 13       		.uleb128 0x13
 12860 0563 00       		.byte	0
 12861 0564 00       		.byte	0
 12862 0565 58       		.uleb128 0x58
 12863 0566 2E       		.uleb128 0x2e
 12864 0567 01       		.byte	0x1
 12865 0568 3F       		.uleb128 0x3f
GAS LISTING C:\Users\gabri\AppData\Local\Temp\cc5DSkcw.s 			page 288


 12866 0569 19       		.uleb128 0x19
 12867 056a 03       		.uleb128 0x3
 12868 056b 0E       		.uleb128 0xe
 12869 056c 3A       		.uleb128 0x3a
 12870 056d 0B       		.uleb128 0xb
 12871 056e 3B       		.uleb128 0x3b
 12872 056f 0B       		.uleb128 0xb
 12873 0570 39       		.uleb128 0x39
 12874 0571 0B       		.uleb128 0xb
 12875 0572 6E       		.uleb128 0x6e
 12876 0573 08       		.uleb128 0x8
 12877 0574 49       		.uleb128 0x49
 12878 0575 13       		.uleb128 0x13
 12879 0576 32       		.uleb128 0x32
 12880 0577 0B       		.uleb128 0xb
 12881 0578 3C       		.uleb128 0x3c
 12882 0579 19       		.uleb128 0x19
 12883 057a 64       		.uleb128 0x64
 12884 057b 13       		.uleb128 0x13
 12885 057c 01       		.uleb128 0x1
 12886 057d 13       		.uleb128 0x13
 12887 057e 00       		.byte	0
 12888 057f 00       		.byte	0
 12889 0580 59       		.uleb128 0x59
 12890 0581 02       		.uleb128 0x2
 12891 0582 00       		.byte	0
 12892 0583 03       		.uleb128 0x3
 12893 0584 08       		.uleb128 0x8
 12894 0585 3C       		.uleb128 0x3c
 12895 0586 19       		.uleb128 0x19
 12896 0587 00       		.byte	0
 12897 0588 00       		.byte	0
 12898 0589 5A       		.uleb128 0x5a
 12899 058a 39       		.uleb128 0x39
 12900 058b 00       		.byte	0
 12901 058c 03       		.uleb128 0x3
 12902 058d 08       		.uleb128 0x8
 12903 058e 3A       		.uleb128 0x3a
 12904 058f 0B       		.uleb128 0xb
 12905 0590 3B       		.uleb128 0x3b
 12906 0591 05       		.uleb128 0x5
 12907 0592 39       		.uleb128 0x39
 12908 0593 0B       		.uleb128 0xb
 12909 0594 00       		.byte	0
 12910 0595 00       		.byte	0
 12911 0596 5B       		.uleb128 0x5b
 12912 0597 39       		.uleb128 0x39
 12913 0598 00       		.byte	0
 12914 0599 03       		.uleb128 0x3
 12915 059a 08       		.uleb128 0x8
 12916 059b 3A       		.uleb128 0x3a
 12917 059c 0B       		.uleb128 0xb
 12918 059d 3B       		.uleb128 0x3b
 12919 059e 0B       		.uleb128 0xb
 12920 059f 39       		.uleb128 0x39
 12921 05a0 0B       		.uleb128 0xb
 12922 05a1 00       		.byte	0
GAS LISTING C:\Users\gabri\AppData\Local\Temp\cc5DSkcw.s 			page 289


 12923 05a2 00       		.byte	0
 12924 05a3 5C       		.uleb128 0x5c
 12925 05a4 2E       		.uleb128 0x2e
 12926 05a5 01       		.byte	0x1
 12927 05a6 3F       		.uleb128 0x3f
 12928 05a7 19       		.uleb128 0x19
 12929 05a8 03       		.uleb128 0x3
 12930 05a9 0E       		.uleb128 0xe
 12931 05aa 3A       		.uleb128 0x3a
 12932 05ab 0B       		.uleb128 0xb
 12933 05ac 3B       		.uleb128 0x3b
 12934 05ad 05       		.uleb128 0x5
 12935 05ae 39       		.uleb128 0x39
 12936 05af 0B       		.uleb128 0xb
 12937 05b0 6E       		.uleb128 0x6e
 12938 05b1 08       		.uleb128 0x8
 12939 05b2 3C       		.uleb128 0x3c
 12940 05b3 19       		.uleb128 0x19
 12941 05b4 01       		.uleb128 0x1
 12942 05b5 13       		.uleb128 0x13
 12943 05b6 00       		.byte	0
 12944 05b7 00       		.byte	0
 12945 05b8 5D       		.uleb128 0x5d
 12946 05b9 2E       		.uleb128 0x2e
 12947 05ba 00       		.byte	0
 12948 05bb 3F       		.uleb128 0x3f
 12949 05bc 19       		.uleb128 0x19
 12950 05bd 03       		.uleb128 0x3
 12951 05be 08       		.uleb128 0x8
 12952 05bf 3A       		.uleb128 0x3a
 12953 05c0 0B       		.uleb128 0xb
 12954 05c1 3B       		.uleb128 0x3b
 12955 05c2 05       		.uleb128 0x5
 12956 05c3 39       		.uleb128 0x39
 12957 05c4 0B       		.uleb128 0xb
 12958 05c5 6E       		.uleb128 0x6e
 12959 05c6 08       		.uleb128 0x8
 12960 05c7 49       		.uleb128 0x49
 12961 05c8 13       		.uleb128 0x13
 12962 05c9 3C       		.uleb128 0x3c
 12963 05ca 19       		.uleb128 0x19
 12964 05cb 00       		.byte	0
 12965 05cc 00       		.byte	0
 12966 05cd 5E       		.uleb128 0x5e
 12967 05ce 0D       		.uleb128 0xd
 12968 05cf 00       		.byte	0
 12969 05d0 03       		.uleb128 0x3
 12970 05d1 08       		.uleb128 0x8
 12971 05d2 3A       		.uleb128 0x3a
 12972 05d3 0B       		.uleb128 0xb
 12973 05d4 3B       		.uleb128 0x3b
 12974 05d5 05       		.uleb128 0x5
 12975 05d6 39       		.uleb128 0x39
 12976 05d7 0B       		.uleb128 0xb
 12977 05d8 49       		.uleb128 0x49
 12978 05d9 13       		.uleb128 0x13
 12979 05da 3F       		.uleb128 0x3f
GAS LISTING C:\Users\gabri\AppData\Local\Temp\cc5DSkcw.s 			page 290


 12980 05db 19       		.uleb128 0x19
 12981 05dc 3C       		.uleb128 0x3c
 12982 05dd 19       		.uleb128 0x19
 12983 05de 00       		.byte	0
 12984 05df 00       		.byte	0
 12985 05e0 5F       		.uleb128 0x5f
 12986 05e1 34       		.uleb128 0x34
 12987 05e2 00       		.byte	0
 12988 05e3 03       		.uleb128 0x3
 12989 05e4 08       		.uleb128 0x8
 12990 05e5 3A       		.uleb128 0x3a
 12991 05e6 0B       		.uleb128 0xb
 12992 05e7 3B       		.uleb128 0x3b
 12993 05e8 05       		.uleb128 0x5
 12994 05e9 39       		.uleb128 0x39
 12995 05ea 0B       		.uleb128 0xb
 12996 05eb 6E       		.uleb128 0x6e
 12997 05ec 08       		.uleb128 0x8
 12998 05ed 49       		.uleb128 0x49
 12999 05ee 13       		.uleb128 0x13
 13000 05ef 3F       		.uleb128 0x3f
 13001 05f0 19       		.uleb128 0x19
 13002 05f1 3C       		.uleb128 0x3c
 13003 05f2 19       		.uleb128 0x19
 13004 05f3 00       		.byte	0
 13005 05f4 00       		.byte	0
 13006 05f5 60       		.uleb128 0x60
 13007 05f6 2E       		.uleb128 0x2e
 13008 05f7 00       		.byte	0
 13009 05f8 3F       		.uleb128 0x3f
 13010 05f9 19       		.uleb128 0x19
 13011 05fa 03       		.uleb128 0x3
 13012 05fb 08       		.uleb128 0x8
 13013 05fc 3A       		.uleb128 0x3a
 13014 05fd 0B       		.uleb128 0xb
 13015 05fe 3B       		.uleb128 0x3b
 13016 05ff 05       		.uleb128 0x5
 13017 0600 39       		.uleb128 0x39
 13018 0601 0B       		.uleb128 0xb
 13019 0602 6E       		.uleb128 0x6e
 13020 0603 08       		.uleb128 0x8
 13021 0604 49       		.uleb128 0x49
 13022 0605 13       		.uleb128 0x13
 13023 0606 32       		.uleb128 0x32
 13024 0607 0B       		.uleb128 0xb
 13025 0608 3C       		.uleb128 0x3c
 13026 0609 19       		.uleb128 0x19
 13027 060a 00       		.byte	0
 13028 060b 00       		.byte	0
 13029 060c 61       		.uleb128 0x61
 13030 060d 04       		.uleb128 0x4
 13031 060e 00       		.byte	0
 13032 060f 03       		.uleb128 0x3
 13033 0610 08       		.uleb128 0x8
 13034 0611 3E       		.uleb128 0x3e
 13035 0612 0B       		.uleb128 0xb
 13036 0613 0B       		.uleb128 0xb
GAS LISTING C:\Users\gabri\AppData\Local\Temp\cc5DSkcw.s 			page 291


 13037 0614 0B       		.uleb128 0xb
 13038 0615 49       		.uleb128 0x49
 13039 0616 13       		.uleb128 0x13
 13040 0617 3A       		.uleb128 0x3a
 13041 0618 0B       		.uleb128 0xb
 13042 0619 3B       		.uleb128 0x3b
 13043 061a 0B       		.uleb128 0xb
 13044 061b 39       		.uleb128 0x39
 13045 061c 0B       		.uleb128 0xb
 13046 061d 00       		.byte	0
 13047 061e 00       		.byte	0
 13048 061f 62       		.uleb128 0x62
 13049 0620 0D       		.uleb128 0xd
 13050 0621 00       		.byte	0
 13051 0622 03       		.uleb128 0x3
 13052 0623 0E       		.uleb128 0xe
 13053 0624 3A       		.uleb128 0x3a
 13054 0625 0B       		.uleb128 0xb
 13055 0626 3B       		.uleb128 0x3b
 13056 0627 05       		.uleb128 0x5
 13057 0628 39       		.uleb128 0x39
 13058 0629 0B       		.uleb128 0xb
 13059 062a 49       		.uleb128 0x49
 13060 062b 13       		.uleb128 0x13
 13061 062c 38       		.uleb128 0x38
 13062 062d 0B       		.uleb128 0xb
 13063 062e 00       		.byte	0
 13064 062f 00       		.byte	0
 13065 0630 63       		.uleb128 0x63
 13066 0631 2E       		.uleb128 0x2e
 13067 0632 00       		.byte	0
 13068 0633 3F       		.uleb128 0x3f
 13069 0634 19       		.uleb128 0x19
 13070 0635 03       		.uleb128 0x3
 13071 0636 08       		.uleb128 0x8
 13072 0637 3A       		.uleb128 0x3a
 13073 0638 0B       		.uleb128 0xb
 13074 0639 3B       		.uleb128 0x3b
 13075 063a 0B       		.uleb128 0xb
 13076 063b 39       		.uleb128 0x39
 13077 063c 0B       		.uleb128 0xb
 13078 063d 49       		.uleb128 0x49
 13079 063e 13       		.uleb128 0x13
 13080 063f 3C       		.uleb128 0x3c
 13081 0640 19       		.uleb128 0x19
 13082 0641 00       		.byte	0
 13083 0642 00       		.byte	0
 13084 0643 64       		.uleb128 0x64
 13085 0644 15       		.uleb128 0x15
 13086 0645 01       		.byte	0x1
 13087 0646 01       		.uleb128 0x1
 13088 0647 13       		.uleb128 0x13
 13089 0648 00       		.byte	0
 13090 0649 00       		.byte	0
 13091 064a 65       		.uleb128 0x65
 13092 064b 0D       		.uleb128 0xd
 13093 064c 00       		.byte	0
GAS LISTING C:\Users\gabri\AppData\Local\Temp\cc5DSkcw.s 			page 292


 13094 064d 03       		.uleb128 0x3
 13095 064e 08       		.uleb128 0x8
 13096 064f 3A       		.uleb128 0x3a
 13097 0650 0B       		.uleb128 0xb
 13098 0651 3B       		.uleb128 0x3b
 13099 0652 05       		.uleb128 0x5
 13100 0653 39       		.uleb128 0x39
 13101 0654 0B       		.uleb128 0xb
 13102 0655 49       		.uleb128 0x49
 13103 0656 13       		.uleb128 0x13
 13104 0657 8801     		.uleb128 0x88
 13105 0659 0B       		.uleb128 0xb
 13106 065a 38       		.uleb128 0x38
 13107 065b 0B       		.uleb128 0xb
 13108 065c 00       		.byte	0
 13109 065d 00       		.byte	0
 13110 065e 66       		.uleb128 0x66
 13111 065f 2E       		.uleb128 0x2e
 13112 0660 01       		.byte	0x1
 13113 0661 3F       		.uleb128 0x3f
 13114 0662 19       		.uleb128 0x19
 13115 0663 03       		.uleb128 0x3
 13116 0664 08       		.uleb128 0x8
 13117 0665 3A       		.uleb128 0x3a
 13118 0666 0B       		.uleb128 0xb
 13119 0667 3B       		.uleb128 0x3b
 13120 0668 05       		.uleb128 0x5
 13121 0669 39       		.uleb128 0x39
 13122 066a 0B       		.uleb128 0xb
 13123 066b 6E       		.uleb128 0x6e
 13124 066c 08       		.uleb128 0x8
 13125 066d 49       		.uleb128 0x49
 13126 066e 13       		.uleb128 0x13
 13127 066f 11       		.uleb128 0x11
 13128 0670 01       		.uleb128 0x1
 13129 0671 12       		.uleb128 0x12
 13130 0672 07       		.uleb128 0x7
 13131 0673 40       		.uleb128 0x40
 13132 0674 18       		.uleb128 0x18
 13133 0675 9642     		.uleb128 0x2116
 13134 0677 19       		.uleb128 0x19
 13135 0678 01       		.uleb128 0x1
 13136 0679 13       		.uleb128 0x13
 13137 067a 00       		.byte	0
 13138 067b 00       		.byte	0
 13139 067c 67       		.uleb128 0x67
 13140 067d 05       		.uleb128 0x5
 13141 067e 00       		.byte	0
 13142 067f 03       		.uleb128 0x3
 13143 0680 0E       		.uleb128 0xe
 13144 0681 3A       		.uleb128 0x3a
 13145 0682 0B       		.uleb128 0xb
 13146 0683 3B       		.uleb128 0x3b
 13147 0684 05       		.uleb128 0x5
 13148 0685 39       		.uleb128 0x39
 13149 0686 0B       		.uleb128 0xb
 13150 0687 49       		.uleb128 0x49
GAS LISTING C:\Users\gabri\AppData\Local\Temp\cc5DSkcw.s 			page 293


 13151 0688 13       		.uleb128 0x13
 13152 0689 02       		.uleb128 0x2
 13153 068a 18       		.uleb128 0x18
 13154 068b 00       		.byte	0
 13155 068c 00       		.byte	0
 13156 068d 68       		.uleb128 0x68
 13157 068e 898201   		.uleb128 0x4109
 13158 0691 00       		.byte	0
 13159 0692 11       		.uleb128 0x11
 13160 0693 01       		.uleb128 0x1
 13161 0694 31       		.uleb128 0x31
 13162 0695 13       		.uleb128 0x13
 13163 0696 00       		.byte	0
 13164 0697 00       		.byte	0
 13165 0698 69       		.uleb128 0x69
 13166 0699 13       		.uleb128 0x13
 13167 069a 01       		.byte	0x1
 13168 069b 0B       		.uleb128 0xb
 13169 069c 0B       		.uleb128 0xb
 13170 069d 3A       		.uleb128 0x3a
 13171 069e 0B       		.uleb128 0xb
 13172 069f 3B       		.uleb128 0x3b
 13173 06a0 0B       		.uleb128 0xb
 13174 06a1 39       		.uleb128 0x39
 13175 06a2 0B       		.uleb128 0xb
 13176 06a3 6E       		.uleb128 0x6e
 13177 06a4 08       		.uleb128 0x8
 13178 06a5 01       		.uleb128 0x1
 13179 06a6 13       		.uleb128 0x13
 13180 06a7 00       		.byte	0
 13181 06a8 00       		.byte	0
 13182 06a9 6A       		.uleb128 0x6a
 13183 06aa 0D       		.uleb128 0xd
 13184 06ab 00       		.byte	0
 13185 06ac 03       		.uleb128 0x3
 13186 06ad 0E       		.uleb128 0xe
 13187 06ae 3A       		.uleb128 0x3a
 13188 06af 0B       		.uleb128 0xb
 13189 06b0 3B       		.uleb128 0x3b
 13190 06b1 0B       		.uleb128 0xb
 13191 06b2 39       		.uleb128 0x39
 13192 06b3 0B       		.uleb128 0xb
 13193 06b4 49       		.uleb128 0x49
 13194 06b5 13       		.uleb128 0x13
 13195 06b6 38       		.uleb128 0x38
 13196 06b7 0B       		.uleb128 0xb
 13197 06b8 32       		.uleb128 0x32
 13198 06b9 0B       		.uleb128 0xb
 13199 06ba 00       		.byte	0
 13200 06bb 00       		.byte	0
 13201 06bc 6B       		.uleb128 0x6b
 13202 06bd 2E       		.uleb128 0x2e
 13203 06be 01       		.byte	0x1
 13204 06bf 3F       		.uleb128 0x3f
 13205 06c0 19       		.uleb128 0x19
 13206 06c1 03       		.uleb128 0x3
 13207 06c2 08       		.uleb128 0x8
GAS LISTING C:\Users\gabri\AppData\Local\Temp\cc5DSkcw.s 			page 294


 13208 06c3 3A       		.uleb128 0x3a
 13209 06c4 0B       		.uleb128 0xb
 13210 06c5 3B       		.uleb128 0x3b
 13211 06c6 0B       		.uleb128 0xb
 13212 06c7 39       		.uleb128 0x39
 13213 06c8 0B       		.uleb128 0xb
 13214 06c9 6E       		.uleb128 0x6e
 13215 06ca 08       		.uleb128 0x8
 13216 06cb 49       		.uleb128 0x49
 13217 06cc 13       		.uleb128 0x13
 13218 06cd 32       		.uleb128 0x32
 13219 06ce 0B       		.uleb128 0xb
 13220 06cf 3C       		.uleb128 0x3c
 13221 06d0 19       		.uleb128 0x19
 13222 06d1 64       		.uleb128 0x64
 13223 06d2 13       		.uleb128 0x13
 13224 06d3 01       		.uleb128 0x1
 13225 06d4 13       		.uleb128 0x13
 13226 06d5 00       		.byte	0
 13227 06d6 00       		.byte	0
 13228 06d7 6C       		.uleb128 0x6c
 13229 06d8 2E       		.uleb128 0x2e
 13230 06d9 00       		.byte	0
 13231 06da 03       		.uleb128 0x3
 13232 06db 08       		.uleb128 0x8
 13233 06dc 34       		.uleb128 0x34
 13234 06dd 19       		.uleb128 0x19
 13235 06de 11       		.uleb128 0x11
 13236 06df 01       		.uleb128 0x1
 13237 06e0 12       		.uleb128 0x12
 13238 06e1 07       		.uleb128 0x7
 13239 06e2 40       		.uleb128 0x40
 13240 06e3 18       		.uleb128 0x18
 13241 06e4 9642     		.uleb128 0x2116
 13242 06e6 19       		.uleb128 0x19
 13243 06e7 00       		.byte	0
 13244 06e8 00       		.byte	0
 13245 06e9 6D       		.uleb128 0x6d
 13246 06ea 05       		.uleb128 0x5
 13247 06eb 00       		.byte	0
 13248 06ec 03       		.uleb128 0x3
 13249 06ed 0E       		.uleb128 0xe
 13250 06ee 49       		.uleb128 0x49
 13251 06ef 13       		.uleb128 0x13
 13252 06f0 34       		.uleb128 0x34
 13253 06f1 19       		.uleb128 0x19
 13254 06f2 00       		.byte	0
 13255 06f3 00       		.byte	0
 13256 06f4 6E       		.uleb128 0x6e
 13257 06f5 05       		.uleb128 0x5
 13258 06f6 00       		.byte	0
 13259 06f7 31       		.uleb128 0x31
 13260 06f8 13       		.uleb128 0x13
 13261 06f9 02       		.uleb128 0x2
 13262 06fa 18       		.uleb128 0x18
 13263 06fb 00       		.byte	0
 13264 06fc 00       		.byte	0
GAS LISTING C:\Users\gabri\AppData\Local\Temp\cc5DSkcw.s 			page 295


 13265 06fd 6F       		.uleb128 0x6f
 13266 06fe 11       		.uleb128 0x11
 13267 06ff 01       		.byte	0x1
 13268 0700 25       		.uleb128 0x25
 13269 0701 08       		.uleb128 0x8
 13270 0702 13       		.uleb128 0x13
 13271 0703 0B       		.uleb128 0xb
 13272 0704 03       		.uleb128 0x3
 13273 0705 08       		.uleb128 0x8
 13274 0706 1B       		.uleb128 0x1b
 13275 0707 08       		.uleb128 0x8
 13276 0708 55       		.uleb128 0x55
 13277 0709 17       		.uleb128 0x17
 13278 070a 11       		.uleb128 0x11
 13279 070b 01       		.uleb128 0x1
 13280 070c 10       		.uleb128 0x10
 13281 070d 17       		.uleb128 0x17
 13282 070e 00       		.byte	0
 13283 070f 00       		.byte	0
 13284 0710 70       		.uleb128 0x70
 13285 0711 39       		.uleb128 0x39
 13286 0712 01       		.byte	0x1
 13287 0713 03       		.uleb128 0x3
 13288 0714 08       		.uleb128 0x8
 13289 0715 3A       		.uleb128 0x3a
 13290 0716 0B       		.uleb128 0xb
 13291 0717 3B       		.uleb128 0x3b
 13292 0718 0B       		.uleb128 0xb
 13293 0719 01       		.uleb128 0x1
 13294 071a 13       		.uleb128 0x13
 13295 071b 00       		.byte	0
 13296 071c 00       		.byte	0
 13297 071d 71       		.uleb128 0x71
 13298 071e 2E       		.uleb128 0x2e
 13299 071f 01       		.byte	0x1
 13300 0720 3F       		.uleb128 0x3f
 13301 0721 19       		.uleb128 0x19
 13302 0722 03       		.uleb128 0x3
 13303 0723 0E       		.uleb128 0xe
 13304 0724 3A       		.uleb128 0x3a
 13305 0725 0B       		.uleb128 0xb
 13306 0726 3B       		.uleb128 0x3b
 13307 0727 0B       		.uleb128 0xb
 13308 0728 39       		.uleb128 0x39
 13309 0729 0B       		.uleb128 0xb
 13310 072a 6E       		.uleb128 0x6e
 13311 072b 08       		.uleb128 0x8
 13312 072c 3C       		.uleb128 0x3c
 13313 072d 19       		.uleb128 0x19
 13314 072e 63       		.uleb128 0x63
 13315 072f 19       		.uleb128 0x19
 13316 0730 64       		.uleb128 0x64
 13317 0731 13       		.uleb128 0x13
 13318 0732 01       		.uleb128 0x1
 13319 0733 13       		.uleb128 0x13
 13320 0734 00       		.byte	0
 13321 0735 00       		.byte	0
GAS LISTING C:\Users\gabri\AppData\Local\Temp\cc5DSkcw.s 			page 296


 13322 0736 72       		.uleb128 0x72
 13323 0737 2E       		.uleb128 0x2e
 13324 0738 01       		.byte	0x1
 13325 0739 3F       		.uleb128 0x3f
 13326 073a 19       		.uleb128 0x19
 13327 073b 03       		.uleb128 0x3
 13328 073c 08       		.uleb128 0x8
 13329 073d 3A       		.uleb128 0x3a
 13330 073e 0B       		.uleb128 0xb
 13331 073f 3B       		.uleb128 0x3b
 13332 0740 0B       		.uleb128 0xb
 13333 0741 39       		.uleb128 0x39
 13334 0742 0B       		.uleb128 0xb
 13335 0743 6E       		.uleb128 0x6e
 13336 0744 08       		.uleb128 0x8
 13337 0745 49       		.uleb128 0x49
 13338 0746 13       		.uleb128 0x13
 13339 0747 32       		.uleb128 0x32
 13340 0748 0B       		.uleb128 0xb
 13341 0749 3C       		.uleb128 0x3c
 13342 074a 19       		.uleb128 0x19
 13343 074b 63       		.uleb128 0x63
 13344 074c 19       		.uleb128 0x19
 13345 074d 64       		.uleb128 0x64
 13346 074e 13       		.uleb128 0x13
 13347 074f 01       		.uleb128 0x1
 13348 0750 13       		.uleb128 0x13
 13349 0751 00       		.byte	0
 13350 0752 00       		.byte	0
 13351 0753 73       		.uleb128 0x73
 13352 0754 2E       		.uleb128 0x2e
 13353 0755 01       		.byte	0x1
 13354 0756 3F       		.uleb128 0x3f
 13355 0757 19       		.uleb128 0x19
 13356 0758 03       		.uleb128 0x3
 13357 0759 08       		.uleb128 0x8
 13358 075a 3A       		.uleb128 0x3a
 13359 075b 0B       		.uleb128 0xb
 13360 075c 3B       		.uleb128 0x3b
 13361 075d 0B       		.uleb128 0xb
 13362 075e 39       		.uleb128 0x39
 13363 075f 0B       		.uleb128 0xb
 13364 0760 6E       		.uleb128 0x6e
 13365 0761 08       		.uleb128 0x8
 13366 0762 49       		.uleb128 0x49
 13367 0763 13       		.uleb128 0x13
 13368 0764 32       		.uleb128 0x32
 13369 0765 0B       		.uleb128 0xb
 13370 0766 3C       		.uleb128 0x3c
 13371 0767 19       		.uleb128 0x19
 13372 0768 64       		.uleb128 0x64
 13373 0769 13       		.uleb128 0x13
 13374 076a 00       		.byte	0
 13375 076b 00       		.byte	0
 13376 076c 74       		.uleb128 0x74
 13377 076d 2E       		.uleb128 0x2e
 13378 076e 01       		.byte	0x1
GAS LISTING C:\Users\gabri\AppData\Local\Temp\cc5DSkcw.s 			page 297


 13379 076f 3F       		.uleb128 0x3f
 13380 0770 19       		.uleb128 0x19
 13381 0771 03       		.uleb128 0x3
 13382 0772 08       		.uleb128 0x8
 13383 0773 3A       		.uleb128 0x3a
 13384 0774 0B       		.uleb128 0xb
 13385 0775 3B       		.uleb128 0x3b
 13386 0776 0B       		.uleb128 0xb
 13387 0777 39       		.uleb128 0x39
 13388 0778 0B       		.uleb128 0xb
 13389 0779 6E       		.uleb128 0x6e
 13390 077a 08       		.uleb128 0x8
 13391 077b 8701     		.uleb128 0x87
 13392 077d 19       		.uleb128 0x19
 13393 077e 3C       		.uleb128 0x3c
 13394 077f 19       		.uleb128 0x19
 13395 0780 01       		.uleb128 0x1
 13396 0781 13       		.uleb128 0x13
 13397 0782 00       		.byte	0
 13398 0783 00       		.byte	0
 13399 0784 75       		.uleb128 0x75
 13400 0785 39       		.uleb128 0x39
 13401 0786 01       		.byte	0x1
 13402 0787 03       		.uleb128 0x3
 13403 0788 08       		.uleb128 0x8
 13404 0789 3A       		.uleb128 0x3a
 13405 078a 0B       		.uleb128 0xb
 13406 078b 3B       		.uleb128 0x3b
 13407 078c 05       		.uleb128 0x5
 13408 078d 39       		.uleb128 0x39
 13409 078e 0B       		.uleb128 0xb
 13410 078f 8901     		.uleb128 0x89
 13411 0791 19       		.uleb128 0x19
 13412 0792 01       		.uleb128 0x1
 13413 0793 13       		.uleb128 0x13
 13414 0794 00       		.byte	0
 13415 0795 00       		.byte	0
 13416 0796 76       		.uleb128 0x76
 13417 0797 39       		.uleb128 0x39
 13418 0798 00       		.byte	0
 13419 0799 03       		.uleb128 0x3
 13420 079a 08       		.uleb128 0x8
 13421 079b 3A       		.uleb128 0x3a
 13422 079c 0B       		.uleb128 0xb
 13423 079d 3B       		.uleb128 0x3b
 13424 079e 0B       		.uleb128 0xb
 13425 079f 39       		.uleb128 0x39
 13426 07a0 0B       		.uleb128 0xb
 13427 07a1 8901     		.uleb128 0x89
 13428 07a3 19       		.uleb128 0x19
 13429 07a4 00       		.byte	0
 13430 07a5 00       		.byte	0
 13431 07a6 77       		.uleb128 0x77
 13432 07a7 02       		.uleb128 0x2
 13433 07a8 01       		.byte	0x1
 13434 07a9 03       		.uleb128 0x3
 13435 07aa 08       		.uleb128 0x8
GAS LISTING C:\Users\gabri\AppData\Local\Temp\cc5DSkcw.s 			page 298


 13436 07ab 0B       		.uleb128 0xb
 13437 07ac 0B       		.uleb128 0xb
 13438 07ad 3A       		.uleb128 0x3a
 13439 07ae 0B       		.uleb128 0xb
 13440 07af 3B       		.uleb128 0x3b
 13441 07b0 05       		.uleb128 0x5
 13442 07b1 39       		.uleb128 0x39
 13443 07b2 0B       		.uleb128 0xb
 13444 07b3 32       		.uleb128 0x32
 13445 07b4 0B       		.uleb128 0xb
 13446 07b5 00       		.byte	0
 13447 07b6 00       		.byte	0
 13448 07b7 78       		.uleb128 0x78
 13449 07b8 13       		.uleb128 0x13
 13450 07b9 00       		.byte	0
 13451 07ba 03       		.uleb128 0x3
 13452 07bb 08       		.uleb128 0x8
 13453 07bc 0B       		.uleb128 0xb
 13454 07bd 0B       		.uleb128 0xb
 13455 07be 3A       		.uleb128 0x3a
 13456 07bf 0B       		.uleb128 0xb
 13457 07c0 3B       		.uleb128 0x3b
 13458 07c1 05       		.uleb128 0x5
 13459 07c2 39       		.uleb128 0x39
 13460 07c3 0B       		.uleb128 0xb
 13461 07c4 00       		.byte	0
 13462 07c5 00       		.byte	0
 13463 07c6 79       		.uleb128 0x79
 13464 07c7 34       		.uleb128 0x34
 13465 07c8 00       		.byte	0
 13466 07c9 03       		.uleb128 0x3
 13467 07ca 08       		.uleb128 0x8
 13468 07cb 3A       		.uleb128 0x3a
 13469 07cc 0B       		.uleb128 0xb
 13470 07cd 3B       		.uleb128 0x3b
 13471 07ce 05       		.uleb128 0x5
 13472 07cf 39       		.uleb128 0x39
 13473 07d0 0B       		.uleb128 0xb
 13474 07d1 49       		.uleb128 0x49
 13475 07d2 13       		.uleb128 0x13
 13476 07d3 3C       		.uleb128 0x3c
 13477 07d4 19       		.uleb128 0x19
 13478 07d5 1C       		.uleb128 0x1c
 13479 07d6 0A       		.uleb128 0xa
 13480 07d7 6C       		.uleb128 0x6c
 13481 07d8 19       		.uleb128 0x19
 13482 07d9 00       		.byte	0
 13483 07da 00       		.byte	0
 13484 07db 7A       		.uleb128 0x7a
 13485 07dc 34       		.uleb128 0x34
 13486 07dd 00       		.byte	0
 13487 07de 03       		.uleb128 0x3
 13488 07df 08       		.uleb128 0x8
 13489 07e0 3A       		.uleb128 0x3a
 13490 07e1 0B       		.uleb128 0xb
 13491 07e2 3B       		.uleb128 0x3b
 13492 07e3 0B       		.uleb128 0xb
GAS LISTING C:\Users\gabri\AppData\Local\Temp\cc5DSkcw.s 			page 299


 13493 07e4 39       		.uleb128 0x39
 13494 07e5 0B       		.uleb128 0xb
 13495 07e6 49       		.uleb128 0x49
 13496 07e7 13       		.uleb128 0x13
 13497 07e8 3C       		.uleb128 0x3c
 13498 07e9 19       		.uleb128 0x19
 13499 07ea 00       		.byte	0
 13500 07eb 00       		.byte	0
 13501 07ec 7B       		.uleb128 0x7b
 13502 07ed 34       		.uleb128 0x34
 13503 07ee 00       		.byte	0
 13504 07ef 03       		.uleb128 0x3
 13505 07f0 08       		.uleb128 0x8
 13506 07f1 3A       		.uleb128 0x3a
 13507 07f2 0B       		.uleb128 0xb
 13508 07f3 3B       		.uleb128 0x3b
 13509 07f4 0B       		.uleb128 0xb
 13510 07f5 39       		.uleb128 0x39
 13511 07f6 0B       		.uleb128 0xb
 13512 07f7 49       		.uleb128 0x49
 13513 07f8 13       		.uleb128 0x13
 13514 07f9 3C       		.uleb128 0x3c
 13515 07fa 19       		.uleb128 0x19
 13516 07fb 1C       		.uleb128 0x1c
 13517 07fc 0D       		.uleb128 0xd
 13518 07fd 00       		.byte	0
 13519 07fe 00       		.byte	0
 13520 07ff 7C       		.uleb128 0x7c
 13521 0800 04       		.uleb128 0x4
 13522 0801 01       		.byte	0x1
 13523 0802 03       		.uleb128 0x3
 13524 0803 08       		.uleb128 0x8
 13525 0804 6D       		.uleb128 0x6d
 13526 0805 19       		.uleb128 0x19
 13527 0806 3E       		.uleb128 0x3e
 13528 0807 0B       		.uleb128 0xb
 13529 0808 0B       		.uleb128 0xb
 13530 0809 0B       		.uleb128 0xb
 13531 080a 49       		.uleb128 0x49
 13532 080b 13       		.uleb128 0x13
 13533 080c 3A       		.uleb128 0x3a
 13534 080d 0B       		.uleb128 0xb
 13535 080e 3B       		.uleb128 0x3b
 13536 080f 0B       		.uleb128 0xb
 13537 0810 39       		.uleb128 0x39
 13538 0811 0B       		.uleb128 0xb
 13539 0812 01       		.uleb128 0x1
 13540 0813 13       		.uleb128 0x13
 13541 0814 00       		.byte	0
 13542 0815 00       		.byte	0
 13543 0816 7D       		.uleb128 0x7d
 13544 0817 02       		.uleb128 0x2
 13545 0818 01       		.byte	0x1
 13546 0819 03       		.uleb128 0x3
 13547 081a 08       		.uleb128 0x8
 13548 081b 0B       		.uleb128 0xb
 13549 081c 05       		.uleb128 0x5
GAS LISTING C:\Users\gabri\AppData\Local\Temp\cc5DSkcw.s 			page 300


 13550 081d 3A       		.uleb128 0x3a
 13551 081e 0B       		.uleb128 0xb
 13552 081f 3B       		.uleb128 0x3b
 13553 0820 05       		.uleb128 0x5
 13554 0821 39       		.uleb128 0x39
 13555 0822 0B       		.uleb128 0xb
 13556 0823 01       		.uleb128 0x1
 13557 0824 13       		.uleb128 0x13
 13558 0825 00       		.byte	0
 13559 0826 00       		.byte	0
 13560 0827 7E       		.uleb128 0x7e
 13561 0828 0D       		.uleb128 0xd
 13562 0829 00       		.byte	0
 13563 082a 03       		.uleb128 0x3
 13564 082b 08       		.uleb128 0x8
 13565 082c 3A       		.uleb128 0x3a
 13566 082d 0B       		.uleb128 0xb
 13567 082e 3B       		.uleb128 0x3b
 13568 082f 05       		.uleb128 0x5
 13569 0830 39       		.uleb128 0x39
 13570 0831 0B       		.uleb128 0xb
 13571 0832 49       		.uleb128 0x49
 13572 0833 13       		.uleb128 0x13
 13573 0834 3F       		.uleb128 0x3f
 13574 0835 19       		.uleb128 0x19
 13575 0836 32       		.uleb128 0x32
 13576 0837 0B       		.uleb128 0xb
 13577 0838 3C       		.uleb128 0x3c
 13578 0839 19       		.uleb128 0x19
 13579 083a 1C       		.uleb128 0x1c
 13580 083b 05       		.uleb128 0x5
 13581 083c 6C       		.uleb128 0x6c
 13582 083d 19       		.uleb128 0x19
 13583 083e 00       		.byte	0
 13584 083f 00       		.byte	0
 13585 0840 7F       		.uleb128 0x7f
 13586 0841 16       		.uleb128 0x16
 13587 0842 00       		.byte	0
 13588 0843 03       		.uleb128 0x3
 13589 0844 08       		.uleb128 0x8
 13590 0845 3A       		.uleb128 0x3a
 13591 0846 0B       		.uleb128 0xb
 13592 0847 3B       		.uleb128 0x3b
 13593 0848 05       		.uleb128 0x5
 13594 0849 39       		.uleb128 0x39
 13595 084a 0B       		.uleb128 0xb
 13596 084b 49       		.uleb128 0x49
 13597 084c 13       		.uleb128 0x13
 13598 084d 32       		.uleb128 0x32
 13599 084e 0B       		.uleb128 0xb
 13600 084f 00       		.byte	0
 13601 0850 00       		.byte	0
 13602 0851 8001     		.uleb128 0x80
 13603 0853 2E       		.uleb128 0x2e
 13604 0854 01       		.byte	0x1
 13605 0855 3F       		.uleb128 0x3f
 13606 0856 19       		.uleb128 0x19
GAS LISTING C:\Users\gabri\AppData\Local\Temp\cc5DSkcw.s 			page 301


 13607 0857 03       		.uleb128 0x3
 13608 0858 08       		.uleb128 0x8
 13609 0859 3A       		.uleb128 0x3a
 13610 085a 0B       		.uleb128 0xb
 13611 085b 3B       		.uleb128 0x3b
 13612 085c 05       		.uleb128 0x5
 13613 085d 39       		.uleb128 0x39
 13614 085e 0B       		.uleb128 0xb
 13615 085f 6E       		.uleb128 0x6e
 13616 0860 08       		.uleb128 0x8
 13617 0861 32       		.uleb128 0x32
 13618 0862 0B       		.uleb128 0xb
 13619 0863 3C       		.uleb128 0x3c
 13620 0864 19       		.uleb128 0x19
 13621 0865 63       		.uleb128 0x63
 13622 0866 19       		.uleb128 0x19
 13623 0867 64       		.uleb128 0x64
 13624 0868 13       		.uleb128 0x13
 13625 0869 01       		.uleb128 0x1
 13626 086a 13       		.uleb128 0x13
 13627 086b 00       		.byte	0
 13628 086c 00       		.byte	0
 13629 086d 8101     		.uleb128 0x81
 13630 086f 2E       		.uleb128 0x2e
 13631 0870 01       		.byte	0x1
 13632 0871 3F       		.uleb128 0x3f
 13633 0872 19       		.uleb128 0x19
 13634 0873 03       		.uleb128 0x3
 13635 0874 0E       		.uleb128 0xe
 13636 0875 3A       		.uleb128 0x3a
 13637 0876 0B       		.uleb128 0xb
 13638 0877 3B       		.uleb128 0x3b
 13639 0878 05       		.uleb128 0x5
 13640 0879 39       		.uleb128 0x39
 13641 087a 0B       		.uleb128 0xb
 13642 087b 6E       		.uleb128 0x6e
 13643 087c 08       		.uleb128 0x8
 13644 087d 49       		.uleb128 0x49
 13645 087e 13       		.uleb128 0x13
 13646 087f 32       		.uleb128 0x32
 13647 0880 0B       		.uleb128 0xb
 13648 0881 3C       		.uleb128 0x3c
 13649 0882 19       		.uleb128 0x19
 13650 0883 64       		.uleb128 0x64
 13651 0884 13       		.uleb128 0x13
 13652 0885 01       		.uleb128 0x1
 13653 0886 13       		.uleb128 0x13
 13654 0887 00       		.byte	0
 13655 0888 00       		.byte	0
 13656 0889 8201     		.uleb128 0x82
 13657 088b 2E       		.uleb128 0x2e
 13658 088c 01       		.byte	0x1
 13659 088d 3F       		.uleb128 0x3f
 13660 088e 19       		.uleb128 0x19
 13661 088f 03       		.uleb128 0x3
 13662 0890 08       		.uleb128 0x8
 13663 0891 3A       		.uleb128 0x3a
GAS LISTING C:\Users\gabri\AppData\Local\Temp\cc5DSkcw.s 			page 302


 13664 0892 0B       		.uleb128 0xb
 13665 0893 3B       		.uleb128 0x3b
 13666 0894 05       		.uleb128 0x5
 13667 0895 39       		.uleb128 0x39
 13668 0896 0B       		.uleb128 0xb
 13669 0897 6E       		.uleb128 0x6e
 13670 0898 08       		.uleb128 0x8
 13671 0899 3C       		.uleb128 0x3c
 13672 089a 19       		.uleb128 0x19
 13673 089b 64       		.uleb128 0x64
 13674 089c 13       		.uleb128 0x13
 13675 089d 01       		.uleb128 0x1
 13676 089e 13       		.uleb128 0x13
 13677 089f 00       		.byte	0
 13678 08a0 00       		.byte	0
 13679 08a1 8301     		.uleb128 0x83
 13680 08a3 2E       		.uleb128 0x2e
 13681 08a4 01       		.byte	0x1
 13682 08a5 3F       		.uleb128 0x3f
 13683 08a6 19       		.uleb128 0x19
 13684 08a7 03       		.uleb128 0x3
 13685 08a8 08       		.uleb128 0x8
 13686 08a9 3A       		.uleb128 0x3a
 13687 08aa 0B       		.uleb128 0xb
 13688 08ab 3B       		.uleb128 0x3b
 13689 08ac 0B       		.uleb128 0xb
 13690 08ad 39       		.uleb128 0x39
 13691 08ae 0B       		.uleb128 0xb
 13692 08af 6E       		.uleb128 0x6e
 13693 08b0 08       		.uleb128 0x8
 13694 08b1 49       		.uleb128 0x49
 13695 08b2 13       		.uleb128 0x13
 13696 08b3 3C       		.uleb128 0x3c
 13697 08b4 19       		.uleb128 0x19
 13698 08b5 00       		.byte	0
 13699 08b6 00       		.byte	0
 13700 08b7 8401     		.uleb128 0x84
 13701 08b9 39       		.uleb128 0x39
 13702 08ba 01       		.byte	0x1
 13703 08bb 03       		.uleb128 0x3
 13704 08bc 08       		.uleb128 0x8
 13705 08bd 3A       		.uleb128 0x3a
 13706 08be 0B       		.uleb128 0xb
 13707 08bf 3B       		.uleb128 0x3b
 13708 08c0 05       		.uleb128 0x5
 13709 08c1 39       		.uleb128 0x39
 13710 08c2 0B       		.uleb128 0xb
 13711 08c3 01       		.uleb128 0x1
 13712 08c4 13       		.uleb128 0x13
 13713 08c5 00       		.byte	0
 13714 08c6 00       		.byte	0
 13715 08c7 8501     		.uleb128 0x85
 13716 08c9 34       		.uleb128 0x34
 13717 08ca 00       		.byte	0
 13718 08cb 03       		.uleb128 0x3
 13719 08cc 08       		.uleb128 0x8
 13720 08cd 3A       		.uleb128 0x3a
GAS LISTING C:\Users\gabri\AppData\Local\Temp\cc5DSkcw.s 			page 303


 13721 08ce 0B       		.uleb128 0xb
 13722 08cf 3B       		.uleb128 0x3b
 13723 08d0 0B       		.uleb128 0xb
 13724 08d1 39       		.uleb128 0x39
 13725 08d2 0B       		.uleb128 0xb
 13726 08d3 49       		.uleb128 0x49
 13727 08d4 13       		.uleb128 0x13
 13728 08d5 3C       		.uleb128 0x3c
 13729 08d6 19       		.uleb128 0x19
 13730 08d7 1C       		.uleb128 0x1c
 13731 08d8 0B       		.uleb128 0xb
 13732 08d9 00       		.byte	0
 13733 08da 00       		.byte	0
 13734 08db 8601     		.uleb128 0x86
 13735 08dd 0F       		.uleb128 0xf
 13736 08de 00       		.byte	0
 13737 08df 0B       		.uleb128 0xb
 13738 08e0 0B       		.uleb128 0xb
 13739 08e1 03       		.uleb128 0x3
 13740 08e2 08       		.uleb128 0x8
 13741 08e3 49       		.uleb128 0x49
 13742 08e4 13       		.uleb128 0x13
 13743 08e5 00       		.byte	0
 13744 08e6 00       		.byte	0
 13745 08e7 8701     		.uleb128 0x87
 13746 08e9 13       		.uleb128 0x13
 13747 08ea 01       		.byte	0x1
 13748 08eb 03       		.uleb128 0x3
 13749 08ec 08       		.uleb128 0x8
 13750 08ed 0B       		.uleb128 0xb
 13751 08ee 05       		.uleb128 0x5
 13752 08ef 3A       		.uleb128 0x3a
 13753 08f0 0B       		.uleb128 0xb
 13754 08f1 3B       		.uleb128 0x3b
 13755 08f2 05       		.uleb128 0x5
 13756 08f3 39       		.uleb128 0x39
 13757 08f4 0B       		.uleb128 0xb
 13758 08f5 01       		.uleb128 0x1
 13759 08f6 13       		.uleb128 0x13
 13760 08f7 00       		.byte	0
 13761 08f8 00       		.byte	0
 13762 08f9 8801     		.uleb128 0x88
 13763 08fb 13       		.uleb128 0x13
 13764 08fc 01       		.byte	0x1
 13765 08fd 0B       		.uleb128 0xb
 13766 08fe 0B       		.uleb128 0xb
 13767 08ff 3A       		.uleb128 0x3a
 13768 0900 0B       		.uleb128 0xb
 13769 0901 3B       		.uleb128 0x3b
 13770 0902 05       		.uleb128 0x5
 13771 0903 39       		.uleb128 0x39
 13772 0904 0B       		.uleb128 0xb
 13773 0905 01       		.uleb128 0x1
 13774 0906 13       		.uleb128 0x13
 13775 0907 00       		.byte	0
 13776 0908 00       		.byte	0
 13777 0909 8901     		.uleb128 0x89
GAS LISTING C:\Users\gabri\AppData\Local\Temp\cc5DSkcw.s 			page 304


 13778 090b 15       		.uleb128 0x15
 13779 090c 00       		.byte	0
 13780 090d 00       		.byte	0
 13781 090e 00       		.byte	0
 13782 090f 8A01     		.uleb128 0x8a
 13783 0911 13       		.uleb128 0x13
 13784 0912 01       		.byte	0x1
 13785 0913 0B       		.uleb128 0xb
 13786 0914 0B       		.uleb128 0xb
 13787 0915 3A       		.uleb128 0x3a
 13788 0916 0B       		.uleb128 0xb
 13789 0917 3B       		.uleb128 0x3b
 13790 0918 05       		.uleb128 0x5
 13791 0919 39       		.uleb128 0x39
 13792 091a 0B       		.uleb128 0xb
 13793 091b 6E       		.uleb128 0x6e
 13794 091c 08       		.uleb128 0x8
 13795 091d 01       		.uleb128 0x1
 13796 091e 13       		.uleb128 0x13
 13797 091f 00       		.byte	0
 13798 0920 00       		.byte	0
 13799 0921 8B01     		.uleb128 0x8b
 13800 0923 0F       		.uleb128 0xf
 13801 0924 00       		.byte	0
 13802 0925 0B       		.uleb128 0xb
 13803 0926 0B       		.uleb128 0xb
 13804 0927 00       		.byte	0
 13805 0928 00       		.byte	0
 13806 0929 8C01     		.uleb128 0x8c
 13807 092b 26       		.uleb128 0x26
 13808 092c 00       		.byte	0
 13809 092d 00       		.byte	0
 13810 092e 00       		.byte	0
 13811 092f 8D01     		.uleb128 0x8d
 13812 0931 15       		.uleb128 0x15
 13813 0932 01       		.byte	0x1
 13814 0933 49       		.uleb128 0x49
 13815 0934 13       		.uleb128 0x13
 13816 0935 01       		.uleb128 0x1
 13817 0936 13       		.uleb128 0x13
 13818 0937 00       		.byte	0
 13819 0938 00       		.byte	0
 13820 0939 8E01     		.uleb128 0x8e
 13821 093b 21       		.uleb128 0x21
 13822 093c 00       		.byte	0
 13823 093d 00       		.byte	0
 13824 093e 00       		.byte	0
 13825 093f 8F01     		.uleb128 0x8f
 13826 0941 01       		.uleb128 0x1
 13827 0942 01       		.byte	0x1
 13828 0943 49       		.uleb128 0x49
 13829 0944 13       		.uleb128 0x13
 13830 0945 8801     		.uleb128 0x88
 13831 0947 0B       		.uleb128 0xb
 13832 0948 01       		.uleb128 0x1
 13833 0949 13       		.uleb128 0x13
 13834 094a 00       		.byte	0
GAS LISTING C:\Users\gabri\AppData\Local\Temp\cc5DSkcw.s 			page 305


 13835 094b 00       		.byte	0
 13836 094c 9001     		.uleb128 0x90
 13837 094e 2E       		.uleb128 0x2e
 13838 094f 01       		.byte	0x1
 13839 0950 3F       		.uleb128 0x3f
 13840 0951 19       		.uleb128 0x19
 13841 0952 03       		.uleb128 0x3
 13842 0953 08       		.uleb128 0x8
 13843 0954 3A       		.uleb128 0x3a
 13844 0955 0B       		.uleb128 0xb
 13845 0956 3B       		.uleb128 0x3b
 13846 0957 05       		.uleb128 0x5
 13847 0958 39       		.uleb128 0x39
 13848 0959 0B       		.uleb128 0xb
 13849 095a 8701     		.uleb128 0x87
 13850 095c 19       		.uleb128 0x19
 13851 095d 3C       		.uleb128 0x3c
 13852 095e 19       		.uleb128 0x19
 13853 095f 01       		.uleb128 0x1
 13854 0960 13       		.uleb128 0x13
 13855 0961 00       		.byte	0
 13856 0962 00       		.byte	0
 13857 0963 9101     		.uleb128 0x91
 13858 0965 13       		.uleb128 0x13
 13859 0966 01       		.byte	0x1
 13860 0967 0B       		.uleb128 0xb
 13861 0968 0B       		.uleb128 0xb
 13862 0969 8801     		.uleb128 0x88
 13863 096b 0B       		.uleb128 0xb
 13864 096c 3A       		.uleb128 0x3a
 13865 096d 0B       		.uleb128 0xb
 13866 096e 3B       		.uleb128 0x3b
 13867 096f 05       		.uleb128 0x5
 13868 0970 39       		.uleb128 0x39
 13869 0971 0B       		.uleb128 0xb
 13870 0972 6E       		.uleb128 0x6e
 13871 0973 08       		.uleb128 0x8
 13872 0974 01       		.uleb128 0x1
 13873 0975 13       		.uleb128 0x13
 13874 0976 00       		.byte	0
 13875 0977 00       		.byte	0
 13876 0978 9201     		.uleb128 0x92
 13877 097a 16       		.uleb128 0x16
 13878 097b 00       		.byte	0
 13879 097c 03       		.uleb128 0x3
 13880 097d 08       		.uleb128 0x8
 13881 097e 3A       		.uleb128 0x3a
 13882 097f 0B       		.uleb128 0xb
 13883 0980 3B       		.uleb128 0x3b
 13884 0981 05       		.uleb128 0x5
 13885 0982 39       		.uleb128 0x39
 13886 0983 0B       		.uleb128 0xb
 13887 0984 49       		.uleb128 0x49
 13888 0985 13       		.uleb128 0x13
 13889 0986 8801     		.uleb128 0x88
 13890 0988 0B       		.uleb128 0xb
 13891 0989 00       		.byte	0
GAS LISTING C:\Users\gabri\AppData\Local\Temp\cc5DSkcw.s 			page 306


 13892 098a 00       		.byte	0
 13893 098b 9301     		.uleb128 0x93
 13894 098d 3B       		.uleb128 0x3b
 13895 098e 00       		.byte	0
 13896 098f 03       		.uleb128 0x3
 13897 0990 08       		.uleb128 0x8
 13898 0991 00       		.byte	0
 13899 0992 00       		.byte	0
 13900 0993 9401     		.uleb128 0x94
 13901 0995 42       		.uleb128 0x42
 13902 0996 00       		.byte	0
 13903 0997 0B       		.uleb128 0xb
 13904 0998 0B       		.uleb128 0xb
 13905 0999 49       		.uleb128 0x49
 13906 099a 13       		.uleb128 0x13
 13907 099b 00       		.byte	0
 13908 099c 00       		.byte	0
 13909 099d 9501     		.uleb128 0x95
 13910 099f 34       		.uleb128 0x34
 13911 09a0 00       		.byte	0
 13912 09a1 47       		.uleb128 0x47
 13913 09a2 13       		.uleb128 0x13
 13914 09a3 02       		.uleb128 0x2
 13915 09a4 18       		.uleb128 0x18
 13916 09a5 00       		.byte	0
 13917 09a6 00       		.byte	0
 13918 09a7 9601     		.uleb128 0x96
 13919 09a9 21       		.uleb128 0x21
 13920 09aa 00       		.byte	0
 13921 09ab 49       		.uleb128 0x49
 13922 09ac 13       		.uleb128 0x13
 13923 09ad 2F       		.uleb128 0x2f
 13924 09ae 05       		.uleb128 0x5
 13925 09af 00       		.byte	0
 13926 09b0 00       		.byte	0
 13927 09b1 9701     		.uleb128 0x97
 13928 09b3 2E       		.uleb128 0x2e
 13929 09b4 01       		.byte	0x1
 13930 09b5 3F       		.uleb128 0x3f
 13931 09b6 19       		.uleb128 0x19
 13932 09b7 03       		.uleb128 0x3
 13933 09b8 0E       		.uleb128 0xe
 13934 09b9 6E       		.uleb128 0x6e
 13935 09ba 08       		.uleb128 0x8
 13936 09bb 34       		.uleb128 0x34
 13937 09bc 19       		.uleb128 0x19
 13938 09bd 3C       		.uleb128 0x3c
 13939 09be 19       		.uleb128 0x19
 13940 09bf 64       		.uleb128 0x64
 13941 09c0 13       		.uleb128 0x13
 13942 09c1 00       		.byte	0
 13943 09c2 00       		.byte	0
 13944 09c3 9801     		.uleb128 0x98
 13945 09c5 16       		.uleb128 0x16
 13946 09c6 00       		.byte	0
 13947 09c7 03       		.uleb128 0x3
 13948 09c8 0E       		.uleb128 0xe
GAS LISTING C:\Users\gabri\AppData\Local\Temp\cc5DSkcw.s 			page 307


 13949 09c9 3A       		.uleb128 0x3a
 13950 09ca 0B       		.uleb128 0xb
 13951 09cb 3B       		.uleb128 0x3b
 13952 09cc 0B       		.uleb128 0xb
 13953 09cd 39       		.uleb128 0x39
 13954 09ce 0B       		.uleb128 0xb
 13955 09cf 49       		.uleb128 0x49
 13956 09d0 13       		.uleb128 0x13
 13957 09d1 32       		.uleb128 0x32
 13958 09d2 0B       		.uleb128 0xb
 13959 09d3 00       		.byte	0
 13960 09d4 00       		.byte	0
 13961 09d5 9901     		.uleb128 0x99
 13962 09d7 34       		.uleb128 0x34
 13963 09d8 00       		.byte	0
 13964 09d9 6E       		.uleb128 0x6e
 13965 09da 08       		.uleb128 0x8
 13966 09db 47       		.uleb128 0x47
 13967 09dc 13       		.uleb128 0x13
 13968 09dd 1C       		.uleb128 0x1c
 13969 09de 07       		.uleb128 0x7
 13970 09df 00       		.byte	0
 13971 09e0 00       		.byte	0
 13972 09e1 9A01     		.uleb128 0x9a
 13973 09e3 2E       		.uleb128 0x2e
 13974 09e4 01       		.byte	0x1
 13975 09e5 03       		.uleb128 0x3
 13976 09e6 08       		.uleb128 0x8
 13977 09e7 34       		.uleb128 0x34
 13978 09e8 19       		.uleb128 0x19
 13979 09e9 11       		.uleb128 0x11
 13980 09ea 01       		.uleb128 0x1
 13981 09eb 12       		.uleb128 0x12
 13982 09ec 07       		.uleb128 0x7
 13983 09ed 40       		.uleb128 0x40
 13984 09ee 18       		.uleb128 0x18
 13985 09ef 9642     		.uleb128 0x2116
 13986 09f1 19       		.uleb128 0x19
 13987 09f2 01       		.uleb128 0x1
 13988 09f3 13       		.uleb128 0x13
 13989 09f4 00       		.byte	0
 13990 09f5 00       		.byte	0
 13991 09f6 9B01     		.uleb128 0x9b
 13992 09f8 2E       		.uleb128 0x2e
 13993 09f9 01       		.byte	0x1
 13994 09fa 47       		.uleb128 0x47
 13995 09fb 13       		.uleb128 0x13
 13996 09fc 11       		.uleb128 0x11
 13997 09fd 01       		.uleb128 0x1
 13998 09fe 12       		.uleb128 0x12
 13999 09ff 07       		.uleb128 0x7
 14000 0a00 40       		.uleb128 0x40
 14001 0a01 18       		.uleb128 0x18
 14002 0a02 9742     		.uleb128 0x2117
 14003 0a04 19       		.uleb128 0x19
 14004 0a05 01       		.uleb128 0x1
 14005 0a06 13       		.uleb128 0x13
GAS LISTING C:\Users\gabri\AppData\Local\Temp\cc5DSkcw.s 			page 308


 14006 0a07 00       		.byte	0
 14007 0a08 00       		.byte	0
 14008 0a09 9C01     		.uleb128 0x9c
 14009 0a0b 2E       		.uleb128 0x2e
 14010 0a0c 01       		.byte	0x1
 14011 0a0d 3F       		.uleb128 0x3f
 14012 0a0e 19       		.uleb128 0x19
 14013 0a0f 03       		.uleb128 0x3
 14014 0a10 08       		.uleb128 0x8
 14015 0a11 3A       		.uleb128 0x3a
 14016 0a12 0B       		.uleb128 0xb
 14017 0a13 3B       		.uleb128 0x3b
 14018 0a14 0B       		.uleb128 0xb
 14019 0a15 39       		.uleb128 0x39
 14020 0a16 0B       		.uleb128 0xb
 14021 0a17 49       		.uleb128 0x49
 14022 0a18 13       		.uleb128 0x13
 14023 0a19 11       		.uleb128 0x11
 14024 0a1a 01       		.uleb128 0x1
 14025 0a1b 12       		.uleb128 0x12
 14026 0a1c 07       		.uleb128 0x7
 14027 0a1d 40       		.uleb128 0x40
 14028 0a1e 18       		.uleb128 0x18
 14029 0a1f 9642     		.uleb128 0x2116
 14030 0a21 19       		.uleb128 0x19
 14031 0a22 01       		.uleb128 0x1
 14032 0a23 13       		.uleb128 0x13
 14033 0a24 00       		.byte	0
 14034 0a25 00       		.byte	0
 14035 0a26 9D01     		.uleb128 0x9d
 14036 0a28 0B       		.uleb128 0xb
 14037 0a29 01       		.byte	0x1
 14038 0a2a 11       		.uleb128 0x11
 14039 0a2b 01       		.uleb128 0x1
 14040 0a2c 12       		.uleb128 0x12
 14041 0a2d 07       		.uleb128 0x7
 14042 0a2e 01       		.uleb128 0x1
 14043 0a2f 13       		.uleb128 0x13
 14044 0a30 00       		.byte	0
 14045 0a31 00       		.byte	0
 14046 0a32 9E01     		.uleb128 0x9e
 14047 0a34 2E       		.uleb128 0x2e
 14048 0a35 01       		.byte	0x1
 14049 0a36 47       		.uleb128 0x47
 14050 0a37 13       		.uleb128 0x13
 14051 0a38 64       		.uleb128 0x64
 14052 0a39 13       		.uleb128 0x13
 14053 0a3a 11       		.uleb128 0x11
 14054 0a3b 01       		.uleb128 0x1
 14055 0a3c 12       		.uleb128 0x12
 14056 0a3d 07       		.uleb128 0x7
 14057 0a3e 40       		.uleb128 0x40
 14058 0a3f 18       		.uleb128 0x18
 14059 0a40 9742     		.uleb128 0x2117
 14060 0a42 19       		.uleb128 0x19
 14061 0a43 01       		.uleb128 0x1
 14062 0a44 13       		.uleb128 0x13
GAS LISTING C:\Users\gabri\AppData\Local\Temp\cc5DSkcw.s 			page 309


 14063 0a45 00       		.byte	0
 14064 0a46 00       		.byte	0
 14065 0a47 9F01     		.uleb128 0x9f
 14066 0a49 2E       		.uleb128 0x2e
 14067 0a4a 01       		.byte	0x1
 14068 0a4b 47       		.uleb128 0x47
 14069 0a4c 13       		.uleb128 0x13
 14070 0a4d 64       		.uleb128 0x64
 14071 0a4e 13       		.uleb128 0x13
 14072 0a4f 20       		.uleb128 0x20
 14073 0a50 0B       		.uleb128 0xb
 14074 0a51 01       		.uleb128 0x1
 14075 0a52 13       		.uleb128 0x13
 14076 0a53 00       		.byte	0
 14077 0a54 00       		.byte	0
 14078 0a55 A001     		.uleb128 0xa0
 14079 0a57 2E       		.uleb128 0x2e
 14080 0a58 01       		.byte	0x1
 14081 0a59 31       		.uleb128 0x31
 14082 0a5a 13       		.uleb128 0x13
 14083 0a5b 6E       		.uleb128 0x6e
 14084 0a5c 08       		.uleb128 0x8
 14085 0a5d 64       		.uleb128 0x64
 14086 0a5e 13       		.uleb128 0x13
 14087 0a5f 11       		.uleb128 0x11
 14088 0a60 01       		.uleb128 0x1
 14089 0a61 12       		.uleb128 0x12
 14090 0a62 07       		.uleb128 0x7
 14091 0a63 40       		.uleb128 0x40
 14092 0a64 18       		.uleb128 0x18
 14093 0a65 9642     		.uleb128 0x2116
 14094 0a67 19       		.uleb128 0x19
 14095 0a68 01       		.uleb128 0x1
 14096 0a69 13       		.uleb128 0x13
 14097 0a6a 00       		.byte	0
 14098 0a6b 00       		.byte	0
 14099 0a6c A101     		.uleb128 0xa1
 14100 0a6e 2E       		.uleb128 0x2e
 14101 0a6f 01       		.byte	0x1
 14102 0a70 47       		.uleb128 0x47
 14103 0a71 13       		.uleb128 0x13
 14104 0a72 3A       		.uleb128 0x3a
 14105 0a73 0B       		.uleb128 0xb
 14106 0a74 3B       		.uleb128 0x3b
 14107 0a75 0B       		.uleb128 0xb
 14108 0a76 39       		.uleb128 0x39
 14109 0a77 0B       		.uleb128 0xb
 14110 0a78 64       		.uleb128 0x64
 14111 0a79 13       		.uleb128 0x13
 14112 0a7a 20       		.uleb128 0x20
 14113 0a7b 0B       		.uleb128 0xb
 14114 0a7c 01       		.uleb128 0x1
 14115 0a7d 13       		.uleb128 0x13
 14116 0a7e 00       		.byte	0
 14117 0a7f 00       		.byte	0
 14118 0a80 A201     		.uleb128 0xa2
 14119 0a82 2E       		.uleb128 0x2e
GAS LISTING C:\Users\gabri\AppData\Local\Temp\cc5DSkcw.s 			page 310


 14120 0a83 01       		.byte	0x1
 14121 0a84 31       		.uleb128 0x31
 14122 0a85 13       		.uleb128 0x13
 14123 0a86 6E       		.uleb128 0x6e
 14124 0a87 08       		.uleb128 0x8
 14125 0a88 64       		.uleb128 0x64
 14126 0a89 13       		.uleb128 0x13
 14127 0a8a 11       		.uleb128 0x11
 14128 0a8b 01       		.uleb128 0x1
 14129 0a8c 12       		.uleb128 0x12
 14130 0a8d 07       		.uleb128 0x7
 14131 0a8e 40       		.uleb128 0x40
 14132 0a8f 18       		.uleb128 0x18
 14133 0a90 9742     		.uleb128 0x2117
 14134 0a92 19       		.uleb128 0x19
 14135 0a93 01       		.uleb128 0x1
 14136 0a94 13       		.uleb128 0x13
 14137 0a95 00       		.byte	0
 14138 0a96 00       		.byte	0
 14139 0a97 A301     		.uleb128 0xa3
 14140 0a99 2E       		.uleb128 0x2e
 14141 0a9a 00       		.byte	0
 14142 0a9b 3F       		.uleb128 0x3f
 14143 0a9c 19       		.uleb128 0x19
 14144 0a9d 3C       		.uleb128 0x3c
 14145 0a9e 19       		.uleb128 0x19
 14146 0a9f 6E       		.uleb128 0x6e
 14147 0aa0 0E       		.uleb128 0xe
 14148 0aa1 03       		.uleb128 0x3
 14149 0aa2 0E       		.uleb128 0xe
 14150 0aa3 3A       		.uleb128 0x3a
 14151 0aa4 0B       		.uleb128 0xb
 14152 0aa5 3B       		.uleb128 0x3b
 14153 0aa6 0B       		.uleb128 0xb
 14154 0aa7 39       		.uleb128 0x39
 14155 0aa8 0B       		.uleb128 0xb
 14156 0aa9 00       		.byte	0
 14157 0aaa 00       		.byte	0
 14158 0aab 00       		.byte	0
 14159              		.section	.debug_aranges,"dr"
 14160 0000 EC000000 		.long	0xec
 14161 0004 0200     		.word	0x2
 14162 0006 00000000 		.secrel32	.Ldebug_info0
 14163 000a 08       		.byte	0x8
 14164 000b 00       		.byte	0
 14165 000c 0000     		.word	0
 14166 000e 0000     		.word	0
 14167 0010 00000000 		.quad	.Ltext0
 14167      00000000 
 14168 0018 A5020000 		.quad	.Letext0-.Ltext0
 14168      00000000 
 14169 0020 00000000 		.quad	.LFB21
 14169      00000000 
 14170 0028 54000000 		.quad	.LFE21-.LFB21
 14170      00000000 
 14171 0030 00000000 		.quad	.LFB27
 14171      00000000 
GAS LISTING C:\Users\gabri\AppData\Local\Temp\cc5DSkcw.s 			page 311


 14172 0038 54000000 		.quad	.LFE27-.LFB27
 14172      00000000 
 14173 0040 00000000 		.quad	.LFB8813
 14173      00000000 
 14174 0048 16000000 		.quad	.LFE8813-.LFB8813
 14174      00000000 
 14175 0050 00000000 		.quad	.LFB8815
 14175      00000000 
 14176 0058 6F000000 		.quad	.LFE8815-.LFB8815
 14176      00000000 
 14177 0060 00000000 		.quad	.LFB8819
 14177      00000000 
 14178 0068 9F010000 		.quad	.LFE8819-.LFB8819
 14178      00000000 
 14179 0070 00000000 		.quad	.LFB8820
 14179      00000000 
 14180 0078 D8010000 		.quad	.LFE8820-.LFB8820
 14180      00000000 
 14181 0080 00000000 		.quad	.LFB8821
 14181      00000000 
 14182 0088 D5000000 		.quad	.LFE8821-.LFB8821
 14182      00000000 
 14183 0090 00000000 		.quad	.LFB8822
 14183      00000000 
 14184 0098 1F000000 		.quad	.LFE8822-.LFB8822
 14184      00000000 
 14185 00a0 00000000 		.quad	.LFB8823
 14185      00000000 
 14186 00a8 6C010000 		.quad	.LFE8823-.LFB8823
 14186      00000000 
 14187 00b0 00000000 		.quad	.LFB8824
 14187      00000000 
 14188 00b8 61010000 		.quad	.LFE8824-.LFB8824
 14188      00000000 
 14189 00c0 00000000 		.quad	.LFB8825
 14189      00000000 
 14190 00c8 5D000000 		.quad	.LFE8825-.LFB8825
 14190      00000000 
 14191 00d0 00000000 		.quad	.LFB9343
 14191      00000000 
 14192 00d8 28000000 		.quad	.LFE9343-.LFB9343
 14192      00000000 
 14193 00e0 00000000 		.quad	0
 14193      00000000 
 14194 00e8 00000000 		.quad	0
 14194      00000000 
 14195              		.section	.debug_ranges,"dr"
 14196              	.Ldebug_ranges0:
 14197 0000 00000000 		.quad	.Ltext0
 14197      00000000 
 14198 0008 A5020000 		.quad	.Letext0
 14198      00000000 
 14199 0010 00000000 		.quad	.LFB21
 14199      00000000 
 14200 0018 54000000 		.quad	.LFE21
 14200      00000000 
 14201 0020 00000000 		.quad	.LFB27
GAS LISTING C:\Users\gabri\AppData\Local\Temp\cc5DSkcw.s 			page 312


 14201      00000000 
 14202 0028 54000000 		.quad	.LFE27
 14202      00000000 
 14203 0030 00000000 		.quad	.LFB8813
 14203      00000000 
 14204 0038 16000000 		.quad	.LFE8813
 14204      00000000 
 14205 0040 00000000 		.quad	.LFB8815
 14205      00000000 
 14206 0048 6F000000 		.quad	.LFE8815
 14206      00000000 
 14207 0050 00000000 		.quad	.LFB8819
 14207      00000000 
 14208 0058 9F010000 		.quad	.LFE8819
 14208      00000000 
 14209 0060 00000000 		.quad	.LFB8820
 14209      00000000 
 14210 0068 D8010000 		.quad	.LFE8820
 14210      00000000 
 14211 0070 00000000 		.quad	.LFB8821
 14211      00000000 
 14212 0078 D5000000 		.quad	.LFE8821
 14212      00000000 
 14213 0080 00000000 		.quad	.LFB8822
 14213      00000000 
 14214 0088 1F000000 		.quad	.LFE8822
 14214      00000000 
 14215 0090 00000000 		.quad	.LFB8823
 14215      00000000 
 14216 0098 6C010000 		.quad	.LFE8823
 14216      00000000 
 14217 00a0 00000000 		.quad	.LFB8824
 14217      00000000 
 14218 00a8 61010000 		.quad	.LFE8824
 14218      00000000 
 14219 00b0 00000000 		.quad	.LFB8825
 14219      00000000 
 14220 00b8 5D000000 		.quad	.LFE8825
 14220      00000000 
 14221 00c0 00000000 		.quad	.LFB9343
 14221      00000000 
 14222 00c8 28000000 		.quad	.LFE9343
 14222      00000000 
 14223 00d0 00000000 		.quad	0
 14223      00000000 
 14224 00d8 00000000 		.quad	0
 14224      00000000 
 14225              		.section	.debug_line,"dr"
 14226              	.Ldebug_line0:
 14227 0000 610A0000 		.section	.debug_str,"dr"
 14227      02004006 
 14227      00000101 
 14227      FB0E0D00 
 14227      01010101 
 14228              	.LASF34:
 14229 0000 76737770 		.ascii "vswprintf\0"
 14229      72696E74 
GAS LISTING C:\Users\gabri\AppData\Local\Temp\cc5DSkcw.s 			page 313


 14229      6600
 14230              	.LASF18:
 14231 000a 64656665 		.ascii "defer_lock_t\0"
 14231      725F6C6F 
 14231      636B5F74 
 14231      00
 14232              	.LASF19:
 14233 0017 7472795F 		.ascii "try_to_lock_t\0"
 14233      746F5F6C 
 14233      6F636B5F 
 14233      7400
 14234              	.LASF25:
 14235 0025 5F56616C 		.ascii "_Value\0"
 14235      756500
 14236              	.LASF5:
 14237 002c 76616C75 		.ascii "value\0"
 14237      6500
 14238              	.LASF35:
 14239 0032 4D657541 		.ascii "MeuArquivo\0"
 14239      72717569 
 14239      766F00
 14240              	.LASF29:
 14241 003d 72656663 		.ascii "refcount\0"
 14241      6F756E74 
 14241      00
 14242              	.LASF0:
 14243 0046 6E6F7468 		.ascii "nothrow_t\0"
 14243      726F775F 
 14243      7400
 14244              	.LASF15:
 14245 0050 616C6C6F 		.ascii "allocator_arg_t\0"
 14245      6361746F 
 14245      725F6172 
 14245      675F7400 
 14246              	.LASF6:
 14247 0060 70696563 		.ascii "piecewise_construct_t\0"
 14247      65776973 
 14247      655F636F 
 14247      6E737472 
 14247      7563745F 
 14248              	.LASF41:
 14249 0076 70616C61 		.ascii "palavra\0"
 14249      76726100 
 14250              	.LASF40:
 14251 007e 72656D6F 		.ascii "removeRegistro\0"
 14251      76655265 
 14251      67697374 
 14251      726F00
 14252              	.LASF23:
 14253 008d 5F5F6973 		.ascii "__is_signed\0"
 14253      5F736967 
 14253      6E656400 
 14254              	.LASF16:
 14255 0099 5F4E756D 		.ascii "_Num\0"
 14255      00
 14256              	.LASF14:
 14257 009e 5F547261 		.ascii "_Traits\0"
GAS LISTING C:\Users\gabri\AppData\Local\Temp\cc5DSkcw.s 			page 314


 14257      69747300 
 14258              	.LASF10:
 14259 00a6 696E745F 		.ascii "int_type\0"
 14259      74797065 
 14259      00
 14260              	.LASF42:
 14261 00af 6F666673 		.ascii "offset\0"
 14261      657400
 14262              	.LASF44:
 14263 00b6 74616D61 		.ascii "tamanhoPalavra\0"
 14263      6E686F50 
 14263      616C6176 
 14263      726100
 14264              	.LASF7:
 14265 00c5 63686172 		.ascii "char_type\0"
 14265      5F747970 
 14265      6500
 14266              	.LASF1:
 14267 00cf 65786365 		.ascii "exception_ptr\0"
 14267      7074696F 
 14267      6E5F7074 
 14267      7200
 14268              	.LASF9:
 14269 00dd 746F5F63 		.ascii "to_char_type\0"
 14269      6861725F 
 14269      74797065 
 14269      00
 14270              	.LASF2:
 14271 00ea 6F706572 		.ascii "operator=\0"
 14271      61746F72 
 14271      3D00
 14272              	.LASF39:
 14273 00f4 72656769 		.ascii "registro\0"
 14273      7374726F 
 14273      00
 14274              	.LASF46:
 14275 00fd 5F5F6163 		.ascii "__acrt_iob_func\0"
 14275      72745F69 
 14275      6F625F66 
 14275      756E6300 
 14276              	.LASF26:
 14277 010d 5F5F6D61 		.ascii "__max_digits10\0"
 14277      785F6469 
 14277      67697473 
 14277      313000
 14278              	.LASF38:
 14279 011c 63616265 		.ascii "cabecalho\0"
 14279      63616C68 
 14279      6F00
 14280              	.LASF11:
 14281 0126 746F5F69 		.ascii "to_int_type\0"
 14281      6E745F74 
 14281      79706500 
 14282              	.LASF36:
 14283 0132 7175616E 		.ascii "quantidade\0"
 14283      74696461 
 14283      646500
GAS LISTING C:\Users\gabri\AppData\Local\Temp\cc5DSkcw.s 			page 315


 14284              	.LASF13:
 14285 013d 5F436861 		.ascii "_CharT\0"
 14285      725400
 14286              	.LASF3:
 14287 0144 76616C75 		.ascii "value_type\0"
 14287      655F7479 
 14287      706500
 14288              	.LASF8:
 14289 014f 61737369 		.ascii "assign\0"
 14289      676E00
 14290              	.LASF37:
 14291 0156 64697370 		.ascii "disponivel\0"
 14291      6F6E6976 
 14291      656C00
 14292              	.LASF22:
 14293 0161 5F5F6D61 		.ascii "__max\0"
 14293      7800
 14294              	.LASF30:
 14295 0167 5F5F7265 		.ascii "__retval\0"
 14295      7476616C 
 14295      00
 14296              	.LASF20:
 14297 0170 61646F70 		.ascii "adopt_lock_t\0"
 14297      745F6C6F 
 14297      636B5F74 
 14297      00
 14298              	.LASF27:
 14299 017d 5F5F6469 		.ascii "__digits10\0"
 14299      67697473 
 14299      313000
 14300              	.LASF17:
 14301 0188 5F44656E 		.ascii "_Den\0"
 14301      00
 14302              	.LASF4:
 14303 018d 6F706572 		.ascii "operator()\0"
 14303      61746F72 
 14303      282900
 14304              	.LASF33:
 14305 0198 73777072 		.ascii "swprintf\0"
 14305      696E7466 
 14305      00
 14306              	.LASF21:
 14307 01a1 5F5F6D69 		.ascii "__min\0"
 14307      6E00
 14308              	.LASF12:
 14309 01a7 65715F69 		.ascii "eq_int_type\0"
 14309      6E745F74 
 14309      79706500 
 14310              	.LASF31:
 14311 01b3 5F5F6C6F 		.ascii "__local_argv\0"
 14311      63616C5F 
 14311      61726776 
 14311      00
 14312              	.LASF32:
 14313 01c0 5F5F666F 		.ascii "__format\0"
 14313      726D6174 
 14313      00
GAS LISTING C:\Users\gabri\AppData\Local\Temp\cc5DSkcw.s 			page 316


 14314              	.LASF28:
 14315 01c9 5F5F6D61 		.ascii "__max_exponent10\0"
 14315      785F6578 
 14315      706F6E65 
 14315      6E743130 
 14315      00
 14316              	.LASF43:
 14317 01da 74686973 		.ascii "this\0"
 14317      00
 14318              	.LASF45:
 14319 01df 72656D52 		.ascii "remRegistro\0"
 14319      65676973 
 14319      74726F00 
 14320              	.LASF24:
 14321 01eb 5F5F6469 		.ascii "__digits\0"
 14321      67697473 
 14321      00
 14322              		.ident	"GCC: (x86_64-posix-seh-rev0, Built by MinGW-W64 project) 8.1.0"
 14349              		.section	.rdata$.refptr._ZSt4endlIcSt11char_traitsIcEERSt13basic_ostreamIT_T0_ES6_, "dr"
 14350              		.globl	.refptr._ZSt4endlIcSt11char_traitsIcEERSt13basic_ostreamIT_T0_ES6_
 14351              		.linkonce	discard
 14352              	.refptr._ZSt4endlIcSt11char_traitsIcEERSt13basic_ostreamIT_T0_ES6_:
 14353 0000 00000000 		.quad	_ZSt4endlIcSt11char_traitsIcEERSt13basic_ostreamIT_T0_ES6_
 14353      00000000 
 14354 0008 00000000 		.section	.rdata$.refptr._ZSt4cout, "dr"
 14354      00000000 
 14355              		.globl	.refptr._ZSt4cout
 14356              		.linkonce	discard
 14357              	.refptr._ZSt4cout:
 14358 0000 00000000 		.quad	_ZSt4cout
 14358      00000000 
 14358      00000000 
 14358      00000000 
GAS LISTING C:\Users\gabri\AppData\Local\Temp\cc5DSkcw.s 			page 317


DEFINED SYMBOLS
                            *ABS*:0000000000000000 main.cpp
C:\Users\gabri\AppData\Local\Temp\cc5DSkcw.s:10     .text$_Z5scanfPKcz:0000000000000000 _Z5scanfPKcz
C:\Users\gabri\AppData\Local\Temp\cc5DSkcw.s:66     .text$_Z6printfPKcz:0000000000000000 _Z6printfPKcz
C:\Users\gabri\AppData\Local\Temp\cc5DSkcw.s:117    .rdata:0000000000000000 _ZStL19piecewise_construct
C:\Users\gabri\AppData\Local\Temp\cc5DSkcw.s:119    .rdata:0000000000000001 _ZStL13allocator_arg
C:\Users\gabri\AppData\Local\Temp\cc5DSkcw.s:121    .rdata:0000000000000002 _ZStL6ignore
                             .bss:0000000000000000 _ZStL8__ioinit
C:\Users\gabri\AppData\Local\Temp\cc5DSkcw.s:125    .rdata:0000000000000004 _ZN9__gnu_cxxL21__default_lock_policyE
C:\Users\gabri\AppData\Local\Temp\cc5DSkcw.s:127    .rdata:0000000000000008 _ZStL10defer_lock
C:\Users\gabri\AppData\Local\Temp\cc5DSkcw.s:129    .rdata:0000000000000009 _ZStL11try_to_lock
C:\Users\gabri\AppData\Local\Temp\cc5DSkcw.s:131    .rdata:000000000000000a _ZStL10adopt_lock
C:\Users\gabri\AppData\Local\Temp\cc5DSkcw.s:134    .rdata:000000000000000c _ZNSt15regex_constantsL5icaseE
C:\Users\gabri\AppData\Local\Temp\cc5DSkcw.s:137    .rdata:0000000000000010 _ZNSt15regex_constantsL6nosubsE
C:\Users\gabri\AppData\Local\Temp\cc5DSkcw.s:140    .rdata:0000000000000014 _ZNSt15regex_constantsL8optimizeE
C:\Users\gabri\AppData\Local\Temp\cc5DSkcw.s:143    .rdata:0000000000000018 _ZNSt15regex_constantsL7collateE
C:\Users\gabri\AppData\Local\Temp\cc5DSkcw.s:146    .rdata:000000000000001c _ZNSt15regex_constantsL10ECMAScriptE
C:\Users\gabri\AppData\Local\Temp\cc5DSkcw.s:149    .rdata:0000000000000020 _ZNSt15regex_constantsL5basicE
C:\Users\gabri\AppData\Local\Temp\cc5DSkcw.s:152    .rdata:0000000000000024 _ZNSt15regex_constantsL8extendedE
C:\Users\gabri\AppData\Local\Temp\cc5DSkcw.s:155    .rdata:0000000000000028 _ZNSt15regex_constantsL3awkE
C:\Users\gabri\AppData\Local\Temp\cc5DSkcw.s:158    .rdata:000000000000002c _ZNSt15regex_constantsL4grepE
C:\Users\gabri\AppData\Local\Temp\cc5DSkcw.s:161    .rdata:0000000000000030 _ZNSt15regex_constantsL5egrepE
C:\Users\gabri\AppData\Local\Temp\cc5DSkcw.s:164    .rdata:0000000000000034 _ZNSt15regex_constantsL12__polynomialE
C:\Users\gabri\AppData\Local\Temp\cc5DSkcw.s:167    .rdata:0000000000000038 _ZNSt15regex_constantsL13match_defaultE
C:\Users\gabri\AppData\Local\Temp\cc5DSkcw.s:170    .rdata:000000000000003c _ZNSt15regex_constantsL13match_not_bolE
C:\Users\gabri\AppData\Local\Temp\cc5DSkcw.s:173    .rdata:0000000000000040 _ZNSt15regex_constantsL13match_not_eolE
C:\Users\gabri\AppData\Local\Temp\cc5DSkcw.s:176    .rdata:0000000000000044 _ZNSt15regex_constantsL13match_not_bowE
C:\Users\gabri\AppData\Local\Temp\cc5DSkcw.s:179    .rdata:0000000000000048 _ZNSt15regex_constantsL13match_not_eowE
C:\Users\gabri\AppData\Local\Temp\cc5DSkcw.s:182    .rdata:000000000000004c _ZNSt15regex_constantsL9match_anyE
C:\Users\gabri\AppData\Local\Temp\cc5DSkcw.s:185    .rdata:0000000000000050 _ZNSt15regex_constantsL14match_not_nullE
C:\Users\gabri\AppData\Local\Temp\cc5DSkcw.s:188    .rdata:0000000000000054 _ZNSt15regex_constantsL16match_continuousE
C:\Users\gabri\AppData\Local\Temp\cc5DSkcw.s:191    .rdata:0000000000000058 _ZNSt15regex_constantsL16match_prev_availE
C:\Users\gabri\AppData\Local\Temp\cc5DSkcw.s:194    .rdata:000000000000005c _ZNSt15regex_constantsL14format_defaultE
C:\Users\gabri\AppData\Local\Temp\cc5DSkcw.s:197    .rdata:0000000000000060 _ZNSt15regex_constantsL10format_sedE
C:\Users\gabri\AppData\Local\Temp\cc5DSkcw.s:200    .rdata:0000000000000064 _ZNSt15regex_constantsL14format_no_copyE
C:\Users\gabri\AppData\Local\Temp\cc5DSkcw.s:203    .rdata:0000000000000068 _ZNSt15regex_constantsL17format_first_onlyE
C:\Users\gabri\AppData\Local\Temp\cc5DSkcw.s:206    .rdata:000000000000006c _ZNSt15regex_constantsL13error_collateE
C:\Users\gabri\AppData\Local\Temp\cc5DSkcw.s:209    .rdata:0000000000000070 _ZNSt15regex_constantsL11error_ctypeE
C:\Users\gabri\AppData\Local\Temp\cc5DSkcw.s:212    .rdata:0000000000000074 _ZNSt15regex_constantsL12error_escapeE
C:\Users\gabri\AppData\Local\Temp\cc5DSkcw.s:215    .rdata:0000000000000078 _ZNSt15regex_constantsL13error_backrefE
C:\Users\gabri\AppData\Local\Temp\cc5DSkcw.s:218    .rdata:000000000000007c _ZNSt15regex_constantsL11error_brackE
C:\Users\gabri\AppData\Local\Temp\cc5DSkcw.s:221    .rdata:0000000000000080 _ZNSt15regex_constantsL11error_parenE
C:\Users\gabri\AppData\Local\Temp\cc5DSkcw.s:224    .rdata:0000000000000084 _ZNSt15regex_constantsL11error_braceE
C:\Users\gabri\AppData\Local\Temp\cc5DSkcw.s:227    .rdata:0000000000000088 _ZNSt15regex_constantsL14error_badbraceE
C:\Users\gabri\AppData\Local\Temp\cc5DSkcw.s:230    .rdata:000000000000008c _ZNSt15regex_constantsL11error_rangeE
C:\Users\gabri\AppData\Local\Temp\cc5DSkcw.s:233    .rdata:0000000000000090 _ZNSt15regex_constantsL11error_spaceE
C:\Users\gabri\AppData\Local\Temp\cc5DSkcw.s:236    .rdata:0000000000000094 _ZNSt15regex_constantsL15error_badrepeatE
C:\Users\gabri\AppData\Local\Temp\cc5DSkcw.s:239    .rdata:0000000000000098 _ZNSt15regex_constantsL16error_complexityE
C:\Users\gabri\AppData\Local\Temp\cc5DSkcw.s:242    .rdata:000000000000009c _ZNSt15regex_constantsL11error_stackE
C:\Users\gabri\AppData\Local\Temp\cc5DSkcw.s:245    .rdata:00000000000000a0 _ZNSt8__detailL19_S_invalid_state_idE
C:\Users\gabri\AppData\Local\Temp\cc5DSkcw.s:253    .text$_ZN10MeuArquivo9cabecalhoC1Ev:0000000000000000 _ZN10MeuArquivo9cabecalhoC1Ev
C:\Users\gabri\AppData\Local\Temp\cc5DSkcw.s:291    .text$_ZN10MeuArquivoC1Ev:0000000000000000 _ZN10MeuArquivoC1Ev
C:\Users\gabri\AppData\Local\Temp\cc5DSkcw.s:359    .text$_ZN10MeuArquivo13inserePalavraEPc:0000000000000000 _ZN10MeuArquivo13inserePalavraEPc
C:\Users\gabri\AppData\Local\Temp\cc5DSkcw.s:14357  .rdata$.refptr._ZSt4cout:0000000000000000 .refptr._ZSt4cout
C:\Users\gabri\AppData\Local\Temp\cc5DSkcw.s:14352  .rdata$.refptr._ZSt4endlIcSt11char_traitsIcEERSt13basic_ostreamIT_T0_ES6_:0000000000000000 .refptr._ZSt4endlIcSt11char_traitsIcEERSt13basic_ostreamIT_T0_ES6_
C:\Users\gabri\AppData\Local\Temp\cc5DSkcw.s:537    .text$_ZN10MeuArquivo14inserePalavra1EPc:0000000000000000 _ZN10MeuArquivo14inserePalavra1EPc
C:\Users\gabri\AppData\Local\Temp\cc5DSkcw.s:722    .text$_ZN10MeuArquivo13proximoOffsetEii:0000000000000000 _ZN10MeuArquivo13proximoOffsetEii
GAS LISTING C:\Users\gabri\AppData\Local\Temp\cc5DSkcw.s 			page 318


C:\Users\gabri\AppData\Local\Temp\cc5DSkcw.s:822    .text$_ZN10MeuArquivo17atualizaCabecalhoEi:0000000000000000 _ZN10MeuArquivo17atualizaCabecalhoEi
C:\Users\gabri\AppData\Local\Temp\cc5DSkcw.s:864    .text$_ZN10MeuArquivo13removePalavraEi:0000000000000000 _ZN10MeuArquivo13removePalavraEi
C:\Users\gabri\AppData\Local\Temp\cc5DSkcw.s:1015   .text$_ZN10MeuArquivo12buscaPalavraEPc:0000000000000000 _ZN10MeuArquivo12buscaPalavraEPc
C:\Users\gabri\AppData\Local\Temp\cc5DSkcw.s:1151   .text$_ZN10MeuArquivo27substituiBarraNporBarraZeroEPc:0000000000000000 _ZN10MeuArquivo27substituiBarraNporBarraZeroEPc
C:\Users\gabri\AppData\Local\Temp\cc5DSkcw.s:1246   .text:0000000000000000 main
C:\Users\gabri\AppData\Local\Temp\cc5DSkcw.s:1515   .text$_ZSt3maxIiERKT_S2_S2_:0000000000000000 _ZSt3maxIiERKT_S2_S2_
C:\Users\gabri\AppData\Local\Temp\cc5DSkcw.s:1556   .text:0000000000000230 __tcf_0
C:\Users\gabri\AppData\Local\Temp\cc5DSkcw.s:1585   .text:000000000000024b _Z41__static_initialization_and_destruction_0ii
C:\Users\gabri\AppData\Local\Temp\cc5DSkcw.s:1625   .text:0000000000000287 _GLOBAL__sub_I_main

UNDEFINED SYMBOLS
__imp___acrt_iob_func
__main
__gxx_personality_seh0
__mingw_vfscanf
__mingw_vfprintf
fopen
fwrite
fflush
strlen
malloc
strcpy
fseek
_ZStlsISt11char_traitsIcEERSt13basic_ostreamIcT_ES5_PKc
_ZNSolsEPFRSoS_E
_ZNSolsEi
ftell
fread
strcmp
_Znay
_Znwy
feof
fgets
fclose
getchar
_ZdlPvy
_Unwind_Resume
_ZNSt8ios_base4InitD1Ev
_ZNSt8ios_base4InitC1Ev
atexit
_ZSt4endlIcSt11char_traitsIcEERSt13basic_ostreamIT_T0_ES6_
_ZSt4cout
